
test_dual.elf:     file format elf32-littleriscv


Disassembly of section .text:

44000000 <_start-0x80>:
44000000:	0800006f          	j	44000080 <_start>
44000004:	12c0006f          	j	44000130 <default_handler>
44000008:	1280006f          	j	44000130 <default_handler>
4400000c:	1240006f          	j	44000130 <default_handler>
44000010:	1200006f          	j	44000130 <default_handler>
44000014:	11c0006f          	j	44000130 <default_handler>
44000018:	1180006f          	j	44000130 <default_handler>
4400001c:	1140006f          	j	44000130 <default_handler>
44000020:	1100006f          	j	44000130 <default_handler>
44000024:	10c0006f          	j	44000130 <default_handler>
44000028:	1080006f          	j	44000130 <default_handler>
4400002c:	1040006f          	j	44000130 <default_handler>
44000030:	1000006f          	j	44000130 <default_handler>
44000034:	0fc0006f          	j	44000130 <default_handler>
44000038:	0f80006f          	j	44000130 <default_handler>
4400003c:	0f40006f          	j	44000130 <default_handler>
44000040:	0f00006f          	j	44000130 <default_handler>
44000044:	0ec0006f          	j	44000130 <default_handler>
44000048:	0e80006f          	j	44000130 <default_handler>
4400004c:	0e40006f          	j	44000130 <default_handler>
44000050:	0e00006f          	j	44000130 <default_handler>
44000054:	0dc0006f          	j	44000130 <default_handler>
44000058:	0d80006f          	j	44000130 <default_handler>
4400005c:	0d40006f          	j	44000130 <default_handler>
44000060:	0d00006f          	j	44000130 <default_handler>
44000064:	0cc0006f          	j	44000130 <default_handler>
44000068:	0c80006f          	j	44000130 <default_handler>
4400006c:	0c40006f          	j	44000130 <default_handler>
44000070:	0c00006f          	j	44000130 <default_handler>
44000074:	0bc0006f          	j	44000130 <default_handler>
44000078:	0b80006f          	j	44000130 <default_handler>
4400007c:	0b40006f          	j	44000130 <default_handler>

44000080 <_start>:
44000080:	f1002573          	csrr	a0,0xf10
44000084:	00f57513          	and	a0,a0,15
44000088:	00050413          	mv	s0,a0
4400008c:	fe00b117          	auipc	sp,0xfe00b
44000090:	ed410113          	add	sp,sp,-300 # 4200af60 <_stack_end>
44000094:	02040063          	beqz	s0,440000b4 <is_master>

44000098 <setup_slave>:
44000098:	00001337          	lui	t1,0x1
4400009c:	40610133          	sub	sp,sp,t1
440000a0:	420102b7          	lui	t0,0x42010
440000a4:	ff028293          	add	t0,t0,-16 # 4200fff0 <_stack_end+0x5090>

440000a8 <wait_for_master>:
440000a8:	0002a303          	lw	t1,0(t0)
440000ac:	fe030ee3          	beqz	t1,440000a8 <wait_for_master>
440000b0:	0740006f          	j	44000124 <call_main>

440000b4 <is_master>:
440000b4:	420102b7          	lui	t0,0x42010
440000b8:	ff028293          	add	t0,t0,-16 # 4200fff0 <_stack_end+0x5090>
440000bc:	0002a023          	sw	zero,0(t0)
440000c0:	fe000297          	auipc	t0,0xfe000
440000c4:	f4028293          	add	t0,t0,-192 # 42000000 <input_img>
440000c8:	fe001317          	auipc	t1,0xfe001
440000cc:	47830313          	add	t1,t1,1144 # 42001540 <output_L5>
440000d0:	00023397          	auipc	t2,0x23
440000d4:	02038393          	add	t2,t2,32 # 440230f0 <_sidata>
440000d8:	0062dc63          	bge	t0,t1,440000f0 <zero_bss>

440000dc <copy_loop>:
440000dc:	0003ae03          	lw	t3,0(t2)
440000e0:	01c2a023          	sw	t3,0(t0)
440000e4:	00428293          	add	t0,t0,4
440000e8:	00438393          	add	t2,t2,4
440000ec:	fe62c8e3          	blt	t0,t1,440000dc <copy_loop>

440000f0 <zero_bss>:
440000f0:	fe001297          	auipc	t0,0xfe001
440000f4:	45028293          	add	t0,t0,1104 # 42001540 <output_L5>
440000f8:	fe009317          	auipc	t1,0xfe009
440000fc:	e5c30313          	add	t1,t1,-420 # 42008f54 <_ebss>
44000100:	0062d863          	bge	t0,t1,44000110 <release_slaves>

44000104 <zero_loop>:
44000104:	0002a023          	sw	zero,0(t0)
44000108:	00428293          	add	t0,t0,4
4400010c:	fe62cce3          	blt	t0,t1,44000104 <zero_loop>

44000110 <release_slaves>:
44000110:	0ff0000f          	fence
44000114:	420102b7          	lui	t0,0x42010
44000118:	ff028293          	add	t0,t0,-16 # 4200fff0 <_stack_end+0x5090>
4400011c:	00100313          	li	t1,1
44000120:	0062a023          	sw	t1,0(t0)

44000124 <call_main>:
44000124:	00040513          	mv	a0,s0
44000128:	792000ef          	jal	440008ba <main>

4400012c <loop_forever>:
4400012c:	0000006f          	j	4400012c <loop_forever>

44000130 <default_handler>:
44000130:	0000006f          	j	44000130 <default_handler>

44000134 <Relu>:
44000134:	1141                	add	sp,sp,-16
44000136:	c606                	sw	ra,12(sp)
44000138:	c422                	sw	s0,8(sp)
4400013a:	842a                	mv	s0,a0
4400013c:	00000593          	li	a1,0
44000140:	10e030ef          	jal	4400324e <__lesf2>
44000144:	00054763          	bltz	a0,44000152 <Relu+0x1e>
44000148:	8522                	mv	a0,s0
4400014a:	40b2                	lw	ra,12(sp)
4400014c:	4422                	lw	s0,8(sp)
4400014e:	0141                	add	sp,sp,16
44000150:	8082                	ret
44000152:	00000413          	li	s0,0
44000156:	bfcd                	j	44000148 <Relu+0x14>

44000158 <L1_Conv_1>:
44000158:	7159                	add	sp,sp,-112
4400015a:	d686                	sw	ra,108(sp)
4400015c:	d4a2                	sw	s0,104(sp)
4400015e:	d2a6                	sw	s1,100(sp)
44000160:	d0ca                	sw	s2,96(sp)
44000162:	cece                	sw	s3,92(sp)
44000164:	ccd2                	sw	s4,88(sp)
44000166:	cad6                	sw	s5,84(sp)
44000168:	c8da                	sw	s6,80(sp)
4400016a:	c6de                	sw	s7,76(sp)
4400016c:	c4e2                	sw	s8,72(sp)
4400016e:	c2e6                	sw	s9,68(sp)
44000170:	c0ea                	sw	s10,64(sp)
44000172:	de6e                	sw	s11,60(sp)
44000174:	d22a                	sw	a0,36(sp)
44000176:	d42e                	sw	a1,40(sp)
44000178:	440057b7          	lui	a5,0x44005
4400017c:	ccc78793          	add	a5,a5,-820 # 44004ccc <conv1_bias>
44000180:	ca3e                	sw	a5,20(sp)
44000182:	00c78c93          	add	s9,a5,12
44000186:	cc02                	sw	zero,24(sp)
44000188:	d002                	sw	zero,32(sp)
4400018a:	00000c13          	li	s8,0
4400018e:	4df1                	li	s11,28
44000190:	6785                	lui	a5,0x1
44000192:	c4078793          	add	a5,a5,-960 # c40 <input_img-0x41fff3c0>
44000196:	d63e                	sw	a5,44(sp)
44000198:	a055                	j	4400023c <L1_Conv_1+0xe4>
4400019a:	008ba023          	sw	s0,0(s7)
4400019e:	0b05                	add	s6,s6,1
440001a0:	0b91                	add	s7,s7,4
440001a2:	0a91                	add	s5,s5,4
440001a4:	05bb0a63          	beq	s6,s11,440001f8 <L1_Conv_1+0xa0>
440001a8:	d80a8993          	add	s3,s5,-640
440001ac:	8a66                	mv	s4,s9
440001ae:	84e2                	mv	s1,s8
440001b0:	fec98413          	add	s0,s3,-20
440001b4:	8952                	mv	s2,s4
440001b6:	00095503          	lhu	a0,0(s2)
440001ba:	4b4030ef          	jal	4400366e <__extendhfsf2>
440001be:	400c                	lw	a1,0(s0)
440001c0:	124030ef          	jal	440032e4 <__mulsf3>
440001c4:	85aa                	mv	a1,a0
440001c6:	8526                	mv	a0,s1
440001c8:	447020ef          	jal	44002e0e <__addsf3>
440001cc:	84aa                	mv	s1,a0
440001ce:	0411                	add	s0,s0,4
440001d0:	0909                	add	s2,s2,2
440001d2:	ff3412e3          	bne	s0,s3,440001b6 <L1_Conv_1+0x5e>
440001d6:	0a29                	add	s4,s4,10
440001d8:	08098993          	add	s3,s3,128
440001dc:	fd599ae3          	bne	s3,s5,440001b0 <L1_Conv_1+0x58>
440001e0:	85aa                	mv	a1,a0
440001e2:	856a                	mv	a0,s10
440001e4:	42b020ef          	jal	44002e0e <__addsf3>
440001e8:	842a                	mv	s0,a0
440001ea:	85e2                	mv	a1,s8
440001ec:	062030ef          	jal	4400324e <__lesf2>
440001f0:	fa0555e3          	bgez	a0,4400019a <L1_Conv_1+0x42>
440001f4:	8462                	mv	s0,s8
440001f6:	b755                	j	4400019a <L1_Conv_1+0x42>
440001f8:	47f2                	lw	a5,28(sp)
440001fa:	0785                	add	a5,a5,1
440001fc:	ce3e                	sw	a5,28(sp)
440001fe:	4732                	lw	a4,12(sp)
44000200:	07070713          	add	a4,a4,112
44000204:	c63a                	sw	a4,12(sp)
44000206:	4742                	lw	a4,16(sp)
44000208:	08070713          	add	a4,a4,128
4400020c:	c83a                	sw	a4,16(sp)
4400020e:	01b78663          	beq	a5,s11,4400021a <L1_Conv_1+0xc2>
44000212:	4ac2                	lw	s5,16(sp)
44000214:	4bb2                	lw	s7,12(sp)
44000216:	4b01                	li	s6,0
44000218:	bf41                	j	440001a8 <L1_Conv_1+0x50>
4400021a:	47d2                	lw	a5,20(sp)
4400021c:	0789                	add	a5,a5,2
4400021e:	ca3e                	sw	a5,20(sp)
44000220:	032c8c93          	add	s9,s9,50
44000224:	5782                	lw	a5,32(sp)
44000226:	03278793          	add	a5,a5,50
4400022a:	d03e                	sw	a5,32(sp)
4400022c:	4762                	lw	a4,24(sp)
4400022e:	56b2                	lw	a3,44(sp)
44000230:	9736                	add	a4,a4,a3
44000232:	cc3a                	sw	a4,24(sp)
44000234:	12c00713          	li	a4,300
44000238:	02e78263          	beq	a5,a4,4400025c <L1_Conv_1+0x104>
4400023c:	47d2                	lw	a5,20(sp)
4400023e:	0007d503          	lhu	a0,0(a5)
44000242:	42c030ef          	jal	4400366e <__extendhfsf2>
44000246:	8d2a                	mv	s10,a0
44000248:	57a2                	lw	a5,40(sp)
4400024a:	4762                	lw	a4,24(sp)
4400024c:	97ba                	add	a5,a5,a4
4400024e:	c63e                	sw	a5,12(sp)
44000250:	5792                	lw	a5,36(sp)
44000252:	29478793          	add	a5,a5,660
44000256:	c83e                	sw	a5,16(sp)
44000258:	ce02                	sw	zero,28(sp)
4400025a:	bf65                	j	44000212 <L1_Conv_1+0xba>
4400025c:	50b6                	lw	ra,108(sp)
4400025e:	5426                	lw	s0,104(sp)
44000260:	5496                	lw	s1,100(sp)
44000262:	5906                	lw	s2,96(sp)
44000264:	49f6                	lw	s3,92(sp)
44000266:	4a66                	lw	s4,88(sp)
44000268:	4ad6                	lw	s5,84(sp)
4400026a:	4b46                	lw	s6,80(sp)
4400026c:	4bb6                	lw	s7,76(sp)
4400026e:	4c26                	lw	s8,72(sp)
44000270:	4c96                	lw	s9,68(sp)
44000272:	4d06                	lw	s10,64(sp)
44000274:	5df2                	lw	s11,60(sp)
44000276:	6165                	add	sp,sp,112
44000278:	8082                	ret

4400027a <L2_MaxPool_1>:
4400027a:	715d                	add	sp,sp,-80
4400027c:	c686                	sw	ra,76(sp)
4400027e:	c4a2                	sw	s0,72(sp)
44000280:	c2a6                	sw	s1,68(sp)
44000282:	c0ca                	sw	s2,64(sp)
44000284:	de4e                	sw	s3,60(sp)
44000286:	dc52                	sw	s4,56(sp)
44000288:	da56                	sw	s5,52(sp)
4400028a:	d85a                	sw	s6,48(sp)
4400028c:	d65e                	sw	s7,44(sp)
4400028e:	d462                	sw	s8,40(sp)
44000290:	d266                	sw	s9,36(sp)
44000292:	d06a                	sw	s10,32(sp)
44000294:	ce6e                	sw	s11,28(sp)
44000296:	c42e                	sw	a1,8(sp)
44000298:	4d01                	li	s10,0
4400029a:	c202                	sw	zero,4(sp)
4400029c:	07050793          	add	a5,a0,112
440002a0:	c63e                	sw	a5,12(sp)
440002a2:	6c85                	lui	s9,0x1
440002a4:	c40c8c93          	add	s9,s9,-960 # c40 <input_img-0x41fff3c0>
440002a8:	6d85                	lui	s11,0x1
440002aa:	260d8d93          	add	s11,s11,608 # 1260 <input_img-0x41ffeda0>
440002ae:	a8b5                	j	4400032a <L2_MaxPool_1+0xb0>
440002b0:	89a6                	mv	s3,s1
440002b2:	01392023          	sw	s3,0(s2)
440002b6:	0421                	add	s0,s0,8
440002b8:	0911                	add	s2,s2,4
440002ba:	05640363          	beq	s0,s6,44000300 <L2_MaxPool_1+0x86>
440002be:	015407b3          	add	a5,s0,s5
440002c2:	97de                	add	a5,a5,s7
440002c4:	0007aa03          	lw	s4,0(a5)
440002c8:	89a2                	mv	s3,s0
440002ca:	4044                	lw	s1,4(s0)
440002cc:	85a6                	mv	a1,s1
440002ce:	8552                	mv	a0,s4
440002d0:	77f020ef          	jal	4400324e <__lesf2>
440002d4:	00054363          	bltz	a0,440002da <L2_MaxPool_1+0x60>
440002d8:	84d2                	mv	s1,s4
440002da:	0709aa03          	lw	s4,112(s3)
440002de:	85a6                	mv	a1,s1
440002e0:	8552                	mv	a0,s4
440002e2:	6db020ef          	jal	440031bc <__gesf2>
440002e6:	00a04b63          	bgtz	a0,440002fc <L2_MaxPool_1+0x82>
440002ea:	0749a983          	lw	s3,116(s3)
440002ee:	85a6                	mv	a1,s1
440002f0:	854e                	mv	a0,s3
440002f2:	6cb020ef          	jal	440031bc <__gesf2>
440002f6:	faa04ee3          	bgtz	a0,440002b2 <L2_MaxPool_1+0x38>
440002fa:	bf5d                	j	440002b0 <L2_MaxPool_1+0x36>
440002fc:	84d2                	mv	s1,s4
440002fe:	b7f5                	j	440002ea <L2_MaxPool_1+0x70>
44000300:	0e0b0b13          	add	s6,s6,224
44000304:	038c0c13          	add	s8,s8,56
44000308:	0e0a8a93          	add	s5,s5,224
4400030c:	f20b8b93          	add	s7,s7,-224
44000310:	019a8663          	beq	s5,s9,4400031c <L2_MaxPool_1+0xa2>
44000314:	f90b0413          	add	s0,s6,-112
44000318:	8962                	mv	s2,s8
4400031a:	b755                	j	440002be <L2_MaxPool_1+0x44>
4400031c:	4792                	lw	a5,4(sp)
4400031e:	97e6                	add	a5,a5,s9
44000320:	c23e                	sw	a5,4(sp)
44000322:	310d0d13          	add	s10,s10,784
44000326:	01bd0c63          	beq	s10,s11,4400033e <L2_MaxPool_1+0xc4>
4400032a:	47b2                	lw	a5,12(sp)
4400032c:	4712                	lw	a4,4(sp)
4400032e:	00e78b33          	add	s6,a5,a4
44000332:	47a2                	lw	a5,8(sp)
44000334:	01a78c33          	add	s8,a5,s10
44000338:	4b81                	li	s7,0
4400033a:	4a81                	li	s5,0
4400033c:	bfe1                	j	44000314 <L2_MaxPool_1+0x9a>
4400033e:	40b6                	lw	ra,76(sp)
44000340:	4426                	lw	s0,72(sp)
44000342:	4496                	lw	s1,68(sp)
44000344:	4906                	lw	s2,64(sp)
44000346:	59f2                	lw	s3,60(sp)
44000348:	5a62                	lw	s4,56(sp)
4400034a:	5ad2                	lw	s5,52(sp)
4400034c:	5b42                	lw	s6,48(sp)
4400034e:	5bb2                	lw	s7,44(sp)
44000350:	5c22                	lw	s8,40(sp)
44000352:	5c92                	lw	s9,36(sp)
44000354:	5d02                	lw	s10,32(sp)
44000356:	4df2                	lw	s11,28(sp)
44000358:	6161                	add	sp,sp,80
4400035a:	8082                	ret

4400035c <L3_Conv_2>:
4400035c:	7119                	add	sp,sp,-128
4400035e:	de86                	sw	ra,124(sp)
44000360:	dca2                	sw	s0,120(sp)
44000362:	daa6                	sw	s1,116(sp)
44000364:	d8ca                	sw	s2,112(sp)
44000366:	d6ce                	sw	s3,108(sp)
44000368:	d4d2                	sw	s4,104(sp)
4400036a:	d2d6                	sw	s5,100(sp)
4400036c:	d0da                	sw	s6,96(sp)
4400036e:	cede                	sw	s7,92(sp)
44000370:	cce2                	sw	s8,88(sp)
44000372:	cae6                	sw	s9,84(sp)
44000374:	c8ea                	sw	s10,80(sp)
44000376:	c6ee                	sw	s11,76(sp)
44000378:	d42a                	sw	a0,40(sp)
4400037a:	8b2e                	mv	s6,a1
4400037c:	440057b7          	lui	a5,0x44005
44000380:	e0478a93          	add	s5,a5,-508 # 44004e04 <conv2_bias>
44000384:	4401                	li	s0,0
44000386:	440227b7          	lui	a5,0x44022
4400038a:	c2078793          	add	a5,a5,-992 # 44021c20 <conv2_weights>
4400038e:	d63e                	sw	a5,44(sp)
44000390:	4995                	li	s3,5
44000392:	6d85                	lui	s11,0x1
44000394:	260d8d93          	add	s11,s11,608 # 1260 <input_img-0x41ffeda0>
44000398:	84d6                	mv	s1,s5
4400039a:	a0fd                	j	44000488 <L3_Conv_2+0x12c>
4400039c:	0c85                	add	s9,s9,1
4400039e:	03840413          	add	s0,s0,56
440003a2:	0929                	add	s2,s2,10
440003a4:	033c8863          	beq	s9,s3,440003d4 <L3_Conv_2+0x78>
440003a8:	8bca                	mv	s7,s2
440003aa:	8aa2                	mv	s5,s0
440003ac:	4481                	li	s1,0
440003ae:	000bd503          	lhu	a0,0(s7)
440003b2:	2bc030ef          	jal	4400366e <__extendhfsf2>
440003b6:	000aa583          	lw	a1,0(s5)
440003ba:	72b020ef          	jal	440032e4 <__mulsf3>
440003be:	85aa                	mv	a1,a0
440003c0:	856a                	mv	a0,s10
440003c2:	24d020ef          	jal	44002e0e <__addsf3>
440003c6:	8d2a                	mv	s10,a0
440003c8:	0485                	add	s1,s1,1
440003ca:	0a91                	add	s5,s5,4
440003cc:	0b89                	add	s7,s7,2
440003ce:	ff3490e3          	bne	s1,s3,440003ae <L3_Conv_2+0x52>
440003d2:	b7e9                	j	4400039c <L3_Conv_2+0x40>
440003d4:	4432                	lw	s0,12(sp)
440003d6:	310b0b13          	add	s6,s6,784
440003da:	03240413          	add	s0,s0,50
440003de:	01bb0c63          	beq	s6,s11,440003f6 <L3_Conv_2+0x9a>
440003e2:	47c2                	lw	a5,16(sp)
440003e4:	00fb0bb3          	add	s7,s6,a5
440003e8:	01440ab3          	add	s5,s0,s4
440003ec:	4c81                	li	s9,0
440003ee:	8956                	mv	s2,s5
440003f0:	c622                	sw	s0,12(sp)
440003f2:	845e                	mv	s0,s7
440003f4:	bf55                	j	440003a8 <L3_Conv_2+0x4c>
440003f6:	85aa                	mv	a1,a0
440003f8:	4572                	lw	a0,28(sp)
440003fa:	215020ef          	jal	44002e0e <__addsf3>
440003fe:	84aa                	mv	s1,a0
44000400:	00000593          	li	a1,0
44000404:	64b020ef          	jal	4400324e <__lesf2>
44000408:	02054a63          	bltz	a0,4400043c <L3_Conv_2+0xe0>
4400040c:	5782                	lw	a5,32(sp)
4400040e:	4762                	lw	a4,24(sp)
44000410:	97ba                	add	a5,a5,a4
44000412:	c384                	sw	s1,0(a5)
44000414:	47d2                	lw	a5,20(sp)
44000416:	0785                	add	a5,a5,1
44000418:	ca3e                	sw	a5,20(sp)
4400041a:	0711                	add	a4,a4,4
4400041c:	cc3a                	sw	a4,24(sp)
4400041e:	4729                	li	a4,10
44000420:	02e78163          	beq	a5,a4,44000442 <L3_Conv_2+0xe6>
44000424:	47d2                	lw	a5,20(sp)
44000426:	00279913          	sll	s2,a5,0x2
4400042a:	5792                	lw	a5,36(sp)
4400042c:	993e                	add	s2,s2,a5
4400042e:	4c81                	li	s9,0
44000430:	4b01                	li	s6,0
44000432:	00000d13          	li	s10,0
44000436:	8466                	mv	s0,s9
44000438:	c84a                	sw	s2,16(sp)
4400043a:	b765                	j	440003e2 <L3_Conv_2+0x86>
4400043c:	00000493          	li	s1,0
44000440:	b7f1                	j	4400040c <L3_Conv_2+0xb0>
44000442:	5bf2                	lw	s7,60(sp)
44000444:	8b62                	mv	s6,s8
44000446:	0b85                	add	s7,s7,1
44000448:	47a9                	li	a5,10
4400044a:	02fb8763          	beq	s7,a5,44000478 <L3_Conv_2+0x11c>
4400044e:	003b9413          	sll	s0,s7,0x3
44000452:	41740433          	sub	s0,s0,s7
44000456:	040e                	sll	s0,s0,0x3
44000458:	57a2                	lw	a5,40(sp)
4400045a:	943e                	add	s0,s0,a5
4400045c:	002b9d13          	sll	s10,s7,0x2
44000460:	9d5e                	add	s10,s10,s7
44000462:	0d0e                	sll	s10,s10,0x3
44000464:	9d5a                	add	s10,s10,s6
44000466:	4c81                	li	s9,0
44000468:	4c01                	li	s8,0
4400046a:	de5e                	sw	s7,60(sp)
4400046c:	ca62                	sw	s8,20(sp)
4400046e:	cc66                	sw	s9,24(sp)
44000470:	d06a                	sw	s10,32(sp)
44000472:	d222                	sw	s0,36(sp)
44000474:	8c5a                	mv	s8,s6
44000476:	b77d                	j	44000424 <L3_Conv_2+0xc8>
44000478:	5442                	lw	s0,48(sp)
4400047a:	54d2                	lw	s1,52(sp)
4400047c:	5b62                	lw	s6,56(sp)
4400047e:	0405                	add	s0,s0,1
44000480:	0489                	add	s1,s1,2
44000482:	47c1                	li	a5,16
44000484:	02f40963          	beq	s0,a5,440004b6 <L3_Conv_2+0x15a>
44000488:	0004d503          	lhu	a0,0(s1)
4400048c:	1e2030ef          	jal	4400366e <__extendhfsf2>
44000490:	ce2a                	sw	a0,28(sp)
44000492:	12c00793          	li	a5,300
44000496:	02f40a33          	mul	s4,s0,a5
4400049a:	57b2                	lw	a5,44(sp)
4400049c:	9a3e                	add	s4,s4,a5
4400049e:	19000793          	li	a5,400
440004a2:	02f407b3          	mul	a5,s0,a5
440004a6:	97da                	add	a5,a5,s6
440004a8:	4901                	li	s2,0
440004aa:	d822                	sw	s0,48(sp)
440004ac:	8bca                	mv	s7,s2
440004ae:	da26                	sw	s1,52(sp)
440004b0:	dc5a                	sw	s6,56(sp)
440004b2:	8b3e                	mv	s6,a5
440004b4:	bf69                	j	4400044e <L3_Conv_2+0xf2>
440004b6:	50f6                	lw	ra,124(sp)
440004b8:	5466                	lw	s0,120(sp)
440004ba:	54d6                	lw	s1,116(sp)
440004bc:	5946                	lw	s2,112(sp)
440004be:	59b6                	lw	s3,108(sp)
440004c0:	5a26                	lw	s4,104(sp)
440004c2:	5a96                	lw	s5,100(sp)
440004c4:	5b06                	lw	s6,96(sp)
440004c6:	4bf6                	lw	s7,92(sp)
440004c8:	4c66                	lw	s8,88(sp)
440004ca:	4cd6                	lw	s9,84(sp)
440004cc:	4d46                	lw	s10,80(sp)
440004ce:	4db6                	lw	s11,76(sp)
440004d0:	6109                	add	sp,sp,128
440004d2:	8082                	ret

440004d4 <L4_MaxPool_2>:
440004d4:	715d                	add	sp,sp,-80
440004d6:	c686                	sw	ra,76(sp)
440004d8:	c4a2                	sw	s0,72(sp)
440004da:	c2a6                	sw	s1,68(sp)
440004dc:	c0ca                	sw	s2,64(sp)
440004de:	de4e                	sw	s3,60(sp)
440004e0:	dc52                	sw	s4,56(sp)
440004e2:	da56                	sw	s5,52(sp)
440004e4:	d85a                	sw	s6,48(sp)
440004e6:	d65e                	sw	s7,44(sp)
440004e8:	d462                	sw	s8,40(sp)
440004ea:	d266                	sw	s9,36(sp)
440004ec:	d06a                	sw	s10,32(sp)
440004ee:	ce6e                	sw	s11,28(sp)
440004f0:	c62e                	sw	a1,12(sp)
440004f2:	8d2a                	mv	s10,a0
440004f4:	c402                	sw	zero,8(sp)
440004f6:	4c15                	li	s8,5
440004f8:	19000d93          	li	s11,400
440004fc:	a041                	j	4400057c <L4_MaxPool_2+0xa8>
440004fe:	8a22                	mv	s4,s0
44000500:	0149a023          	sw	s4,0(s3)
44000504:	0905                	add	s2,s2,1
44000506:	04a1                	add	s1,s1,8
44000508:	0991                	add	s3,s3,4
4400050a:	05890363          	beq	s2,s8,44000550 <L4_MaxPool_2+0x7c>
4400050e:	016487b3          	add	a5,s1,s6
44000512:	97de                	add	a5,a5,s7
44000514:	0007aa83          	lw	s5,0(a5)
44000518:	8a26                	mv	s4,s1
4400051a:	40c0                	lw	s0,4(s1)
4400051c:	85a2                	mv	a1,s0
4400051e:	8556                	mv	a0,s5
44000520:	52f020ef          	jal	4400324e <__lesf2>
44000524:	00054363          	bltz	a0,4400052a <L4_MaxPool_2+0x56>
44000528:	8456                	mv	s0,s5
4400052a:	028a2a83          	lw	s5,40(s4)
4400052e:	85a2                	mv	a1,s0
44000530:	8556                	mv	a0,s5
44000532:	48b020ef          	jal	440031bc <__gesf2>
44000536:	00a04b63          	bgtz	a0,4400054c <L4_MaxPool_2+0x78>
4400053a:	02ca2a03          	lw	s4,44(s4)
4400053e:	85a2                	mv	a1,s0
44000540:	8552                	mv	a0,s4
44000542:	47b020ef          	jal	440031bc <__gesf2>
44000546:	faa04de3          	bgtz	a0,44000500 <L4_MaxPool_2+0x2c>
4400054a:	bf55                	j	440004fe <L4_MaxPool_2+0x2a>
4400054c:	8456                	mv	s0,s5
4400054e:	b7f5                	j	4400053a <L4_MaxPool_2+0x66>
44000550:	0cd1                	add	s9,s9,20
44000552:	050b0b13          	add	s6,s6,80
44000556:	fb0b8b93          	add	s7,s7,-80
4400055a:	01bb0763          	beq	s6,s11,44000568 <L4_MaxPool_2+0x94>
4400055e:	01ab04b3          	add	s1,s6,s10
44000562:	89e6                	mv	s3,s9
44000564:	4901                	li	s2,0
44000566:	b765                	j	4400050e <L4_MaxPool_2+0x3a>
44000568:	190d0d13          	add	s10,s10,400
4400056c:	47a2                	lw	a5,8(sp)
4400056e:	06478793          	add	a5,a5,100
44000572:	c43e                	sw	a5,8(sp)
44000574:	64000713          	li	a4,1600
44000578:	00e78963          	beq	a5,a4,4400058a <L4_MaxPool_2+0xb6>
4400057c:	47b2                	lw	a5,12(sp)
4400057e:	4722                	lw	a4,8(sp)
44000580:	00e78cb3          	add	s9,a5,a4
44000584:	4b81                	li	s7,0
44000586:	4b01                	li	s6,0
44000588:	bfd9                	j	4400055e <L4_MaxPool_2+0x8a>
4400058a:	40b6                	lw	ra,76(sp)
4400058c:	4426                	lw	s0,72(sp)
4400058e:	4496                	lw	s1,68(sp)
44000590:	4906                	lw	s2,64(sp)
44000592:	59f2                	lw	s3,60(sp)
44000594:	5a62                	lw	s4,56(sp)
44000596:	5ad2                	lw	s5,52(sp)
44000598:	5b42                	lw	s6,48(sp)
4400059a:	5bb2                	lw	s7,44(sp)
4400059c:	5c22                	lw	s8,40(sp)
4400059e:	5c92                	lw	s9,36(sp)
440005a0:	5d02                	lw	s10,32(sp)
440005a2:	4df2                	lw	s11,28(sp)
440005a4:	6161                	add	sp,sp,80
440005a6:	8082                	ret

440005a8 <L5_Conv_3>:
440005a8:	711d                	add	sp,sp,-96
440005aa:	ce86                	sw	ra,92(sp)
440005ac:	cca2                	sw	s0,88(sp)
440005ae:	caa6                	sw	s1,84(sp)
440005b0:	c8ca                	sw	s2,80(sp)
440005b2:	c6ce                	sw	s3,76(sp)
440005b4:	c4d2                	sw	s4,72(sp)
440005b6:	c2d6                	sw	s5,68(sp)
440005b8:	c0da                	sw	s6,64(sp)
440005ba:	de5e                	sw	s7,60(sp)
440005bc:	dc62                	sw	s8,56(sp)
440005be:	da66                	sw	s9,52(sp)
440005c0:	d86a                	sw	s10,48(sp)
440005c2:	d66e                	sw	s11,44(sp)
440005c4:	ca2a                	sw	a0,20(sp)
440005c6:	c82e                	sw	a1,16(sp)
440005c8:	440057b7          	lui	a5,0x44005
440005cc:	e2478793          	add	a5,a5,-476 # 44004e24 <conv3_bias>
440005d0:	c63e                	sw	a5,12(sp)
440005d2:	4d81                	li	s11,0
440005d4:	4400a7b7          	lui	a5,0x4400a
440005d8:	52078793          	add	a5,a5,1312 # 4400a520 <conv3_weights>
440005dc:	cc3e                	sw	a5,24(sp)
440005de:	4a15                	li	s4,5
440005e0:	32000d13          	li	s10,800
440005e4:	67dd                	lui	a5,0x17
440005e6:	70078793          	add	a5,a5,1792 # 17700 <input_img-0x41fe8900>
440005ea:	ce3e                	sw	a5,28(sp)
440005ec:	a041                	j	4400066c <L5_Conv_3+0xc4>
440005ee:	064b8b93          	add	s7,s7,100
440005f2:	032c0c13          	add	s8,s8,50
440005f6:	05ac0063          	beq	s8,s10,44000636 <L5_Conv_3+0x8e>
440005fa:	f9cb8a93          	add	s5,s7,-100
440005fe:	018c8b33          	add	s6,s9,s8
44000602:	89da                	mv	s3,s6
44000604:	8956                	mv	s2,s5
44000606:	4481                	li	s1,0
44000608:	0009d503          	lhu	a0,0(s3)
4400060c:	062030ef          	jal	4400366e <__extendhfsf2>
44000610:	00092583          	lw	a1,0(s2)
44000614:	4d1020ef          	jal	440032e4 <__mulsf3>
44000618:	85aa                	mv	a1,a0
4400061a:	8522                	mv	a0,s0
4400061c:	7f2020ef          	jal	44002e0e <__addsf3>
44000620:	842a                	mv	s0,a0
44000622:	0485                	add	s1,s1,1
44000624:	0911                	add	s2,s2,4
44000626:	0989                	add	s3,s3,2
44000628:	ff4490e3          	bne	s1,s4,44000608 <L5_Conv_3+0x60>
4400062c:	0ad1                	add	s5,s5,20
4400062e:	0b29                	add	s6,s6,10
44000630:	fd7a99e3          	bne	s5,s7,44000602 <L5_Conv_3+0x5a>
44000634:	bf6d                	j	440005ee <L5_Conv_3+0x46>
44000636:	47b2                	lw	a5,12(sp)
44000638:	0007d503          	lhu	a0,0(a5)
4400063c:	032030ef          	jal	4400366e <__extendhfsf2>
44000640:	85a2                	mv	a1,s0
44000642:	7cc020ef          	jal	44002e0e <__addsf3>
44000646:	842a                	mv	s0,a0
44000648:	00000593          	li	a1,0
4400064c:	403020ef          	jal	4400324e <__lesf2>
44000650:	02054863          	bltz	a0,44000680 <L5_Conv_3+0xd8>
44000654:	47c2                	lw	a5,16(sp)
44000656:	c380                	sw	s0,0(a5)
44000658:	0791                	add	a5,a5,4
4400065a:	c83e                	sw	a5,16(sp)
4400065c:	47b2                	lw	a5,12(sp)
4400065e:	0789                	add	a5,a5,2
44000660:	c63e                	sw	a5,12(sp)
44000662:	320d8d93          	add	s11,s11,800
44000666:	47f2                	lw	a5,28(sp)
44000668:	00fd8f63          	beq	s11,a5,44000686 <L5_Conv_3+0xde>
4400066c:	47d2                	lw	a5,20(sp)
4400066e:	06478b93          	add	s7,a5,100
44000672:	4c01                	li	s8,0
44000674:	00000413          	li	s0,0
44000678:	47e2                	lw	a5,24(sp)
4400067a:	00fd8cb3          	add	s9,s11,a5
4400067e:	bfb5                	j	440005fa <L5_Conv_3+0x52>
44000680:	00000413          	li	s0,0
44000684:	bfc1                	j	44000654 <L5_Conv_3+0xac>
44000686:	40f6                	lw	ra,92(sp)
44000688:	4466                	lw	s0,88(sp)
4400068a:	44d6                	lw	s1,84(sp)
4400068c:	4946                	lw	s2,80(sp)
4400068e:	49b6                	lw	s3,76(sp)
44000690:	4a26                	lw	s4,72(sp)
44000692:	4a96                	lw	s5,68(sp)
44000694:	4b06                	lw	s6,64(sp)
44000696:	5bf2                	lw	s7,60(sp)
44000698:	5c62                	lw	s8,56(sp)
4400069a:	5cd2                	lw	s9,52(sp)
4400069c:	5d42                	lw	s10,48(sp)
4400069e:	5db2                	lw	s11,44(sp)
440006a0:	6125                	add	sp,sp,96
440006a2:	8082                	ret

440006a4 <L6_FC_1>:
440006a4:	7179                	add	sp,sp,-48
440006a6:	d606                	sw	ra,44(sp)
440006a8:	d422                	sw	s0,40(sp)
440006aa:	d226                	sw	s1,36(sp)
440006ac:	d04a                	sw	s2,32(sp)
440006ae:	ce4e                	sw	s3,28(sp)
440006b0:	cc52                	sw	s4,24(sp)
440006b2:	ca56                	sw	s5,20(sp)
440006b4:	c85a                	sw	s6,16(sp)
440006b6:	c65e                	sw	s7,12(sp)
440006b8:	c462                	sw	s8,8(sp)
440006ba:	8c2a                	mv	s8,a0
440006bc:	8aae                	mv	s5,a1
440006be:	44005bb7          	lui	s7,0x44005
440006c2:	cccb8b93          	add	s7,s7,-820 # 44004ccc <conv1_bias>
440006c6:	248b8a13          	add	s4,s7,584
440006ca:	440059b7          	lui	s3,0x44005
440006ce:	75098993          	add	s3,s3,1872 # 44005750 <fc1_weights+0xf0>
440006d2:	2f0b8b93          	add	s7,s7,752
440006d6:	00000b13          	li	s6,0
440006da:	a809                	j	440006ec <L6_FC_1+0x48>
440006dc:	008aa023          	sw	s0,0(s5)
440006e0:	0a91                	add	s5,s5,4
440006e2:	0a09                	add	s4,s4,2
440006e4:	0f098993          	add	s3,s3,240
440006e8:	057a0663          	beq	s4,s7,44000734 <L6_FC_1+0x90>
440006ec:	f1098493          	add	s1,s3,-240
440006f0:	8962                	mv	s2,s8
440006f2:	845a                	mv	s0,s6
440006f4:	0004d503          	lhu	a0,0(s1)
440006f8:	777020ef          	jal	4400366e <__extendhfsf2>
440006fc:	00092583          	lw	a1,0(s2)
44000700:	3e5020ef          	jal	440032e4 <__mulsf3>
44000704:	85aa                	mv	a1,a0
44000706:	8522                	mv	a0,s0
44000708:	706020ef          	jal	44002e0e <__addsf3>
4400070c:	842a                	mv	s0,a0
4400070e:	0489                	add	s1,s1,2
44000710:	0911                	add	s2,s2,4
44000712:	ff3491e3          	bne	s1,s3,440006f4 <L6_FC_1+0x50>
44000716:	000a5503          	lhu	a0,0(s4)
4400071a:	755020ef          	jal	4400366e <__extendhfsf2>
4400071e:	85a2                	mv	a1,s0
44000720:	6ee020ef          	jal	44002e0e <__addsf3>
44000724:	842a                	mv	s0,a0
44000726:	85da                	mv	a1,s6
44000728:	327020ef          	jal	4400324e <__lesf2>
4400072c:	fa0558e3          	bgez	a0,440006dc <L6_FC_1+0x38>
44000730:	845a                	mv	s0,s6
44000732:	b76d                	j	440006dc <L6_FC_1+0x38>
44000734:	50b2                	lw	ra,44(sp)
44000736:	5422                	lw	s0,40(sp)
44000738:	5492                	lw	s1,36(sp)
4400073a:	5902                	lw	s2,32(sp)
4400073c:	49f2                	lw	s3,28(sp)
4400073e:	4a62                	lw	s4,24(sp)
44000740:	4ad2                	lw	s5,20(sp)
44000742:	4b42                	lw	s6,16(sp)
44000744:	4bb2                	lw	s7,12(sp)
44000746:	4c22                	lw	s8,8(sp)
44000748:	6145                	add	sp,sp,48
4400074a:	8082                	ret

4400074c <L7_FC_2>:
4400074c:	7179                	add	sp,sp,-48
4400074e:	d606                	sw	ra,44(sp)
44000750:	d422                	sw	s0,40(sp)
44000752:	d226                	sw	s1,36(sp)
44000754:	d04a                	sw	s2,32(sp)
44000756:	ce4e                	sw	s3,28(sp)
44000758:	cc52                	sw	s4,24(sp)
4400075a:	ca56                	sw	s5,20(sp)
4400075c:	c85a                	sw	s6,16(sp)
4400075e:	c65e                	sw	s7,12(sp)
44000760:	c462                	sw	s8,8(sp)
44000762:	8baa                	mv	s7,a0
44000764:	44005b37          	lui	s6,0x44005
44000768:	cccb0b13          	add	s6,s6,-820 # 44004ccc <conv1_bias>
4400076c:	2f0b0a13          	add	s4,s6,752
44000770:	8aae                	mv	s5,a1
44000772:	3acb0993          	add	s3,s6,940
44000776:	304b0b13          	add	s6,s6,772
4400077a:	00000c13          	li	s8,0
4400077e:	f5898493          	add	s1,s3,-168
44000782:	895e                	mv	s2,s7
44000784:	8462                	mv	s0,s8
44000786:	0004d503          	lhu	a0,0(s1)
4400078a:	6e5020ef          	jal	4400366e <__extendhfsf2>
4400078e:	00092583          	lw	a1,0(s2)
44000792:	353020ef          	jal	440032e4 <__mulsf3>
44000796:	85aa                	mv	a1,a0
44000798:	8522                	mv	a0,s0
4400079a:	674020ef          	jal	44002e0e <__addsf3>
4400079e:	842a                	mv	s0,a0
440007a0:	0489                	add	s1,s1,2
440007a2:	0911                	add	s2,s2,4
440007a4:	ff3491e3          	bne	s1,s3,44000786 <L7_FC_2+0x3a>
440007a8:	000a5503          	lhu	a0,0(s4)
440007ac:	6c3020ef          	jal	4400366e <__extendhfsf2>
440007b0:	85a2                	mv	a1,s0
440007b2:	65c020ef          	jal	44002e0e <__addsf3>
440007b6:	00aaa023          	sw	a0,0(s5)
440007ba:	0a09                	add	s4,s4,2
440007bc:	0a91                	add	s5,s5,4
440007be:	0a898993          	add	s3,s3,168
440007c2:	fb6a1ee3          	bne	s4,s6,4400077e <L7_FC_2+0x32>
440007c6:	50b2                	lw	ra,44(sp)
440007c8:	5422                	lw	s0,40(sp)
440007ca:	5492                	lw	s1,36(sp)
440007cc:	5902                	lw	s2,32(sp)
440007ce:	49f2                	lw	s3,28(sp)
440007d0:	4a62                	lw	s4,24(sp)
440007d2:	4ad2                	lw	s5,20(sp)
440007d4:	4b42                	lw	s6,16(sp)
440007d6:	4bb2                	lw	s7,12(sp)
440007d8:	4c22                	lw	s8,8(sp)
440007da:	6145                	add	sp,sp,48
440007dc:	8082                	ret

440007de <LogSoftmax_8>:
440007de:	1101                	add	sp,sp,-32
440007e0:	ce06                	sw	ra,28(sp)
440007e2:	cc22                	sw	s0,24(sp)
440007e4:	ca26                	sw	s1,20(sp)
440007e6:	c84a                	sw	s2,16(sp)
440007e8:	c64e                	sw	s3,12(sp)
440007ea:	c452                	sw	s4,8(sp)
440007ec:	c256                	sw	s5,4(sp)
440007ee:	c05a                	sw	s6,0(sp)
440007f0:	84aa                	mv	s1,a0
440007f2:	8aae                	mv	s5,a1
440007f4:	8a2a                	mv	s4,a0
440007f6:	02850b13          	add	s6,a0,40
440007fa:	00000413          	li	s0,0
440007fe:	4088                	lw	a0,0(s1)
44000800:	5c9020ef          	jal	440035c8 <__extendsfdf2>
44000804:	2649                	jal	44000b86 <exp>
44000806:	89aa                	mv	s3,a0
44000808:	892e                	mv	s2,a1
4400080a:	8522                	mv	a0,s0
4400080c:	5bd020ef          	jal	440035c8 <__extendsfdf2>
44000810:	864e                	mv	a2,s3
44000812:	86ca                	mv	a3,s2
44000814:	1b5000ef          	jal	440011c8 <__adddf3>
44000818:	6d3020ef          	jal	440036ea <__truncdfsf2>
4400081c:	842a                	mv	s0,a0
4400081e:	0491                	add	s1,s1,4
44000820:	fc9b1fe3          	bne	s6,s1,440007fe <LogSoftmax_8+0x20>
44000824:	000a2503          	lw	a0,0(s4)
44000828:	5a1020ef          	jal	440035c8 <__extendsfdf2>
4400082c:	2ea9                	jal	44000b86 <exp>
4400082e:	892a                	mv	s2,a0
44000830:	84ae                	mv	s1,a1
44000832:	8522                	mv	a0,s0
44000834:	595020ef          	jal	440035c8 <__extendsfdf2>
44000838:	862a                	mv	a2,a0
4400083a:	86ae                	mv	a3,a1
4400083c:	854a                	mv	a0,s2
4400083e:	85a6                	mv	a1,s1
44000840:	0a4010ef          	jal	440018e4 <__divdf3>
44000844:	6a7020ef          	jal	440036ea <__truncdfsf2>
44000848:	00aaa023          	sw	a0,0(s5)
4400084c:	0a11                	add	s4,s4,4
4400084e:	0a91                	add	s5,s5,4
44000850:	fd6a1ae3          	bne	s4,s6,44000824 <LogSoftmax_8+0x46>
44000854:	40f2                	lw	ra,28(sp)
44000856:	4462                	lw	s0,24(sp)
44000858:	44d2                	lw	s1,20(sp)
4400085a:	4942                	lw	s2,16(sp)
4400085c:	49b2                	lw	s3,12(sp)
4400085e:	4a22                	lw	s4,8(sp)
44000860:	4a92                	lw	s5,4(sp)
44000862:	4b02                	lw	s6,0(sp)
44000864:	6105                	add	sp,sp,32
44000866:	8082                	ret

44000868 <give_prediction>:
44000868:	1101                	add	sp,sp,-32
4400086a:	ce06                	sw	ra,28(sp)
4400086c:	cc22                	sw	s0,24(sp)
4400086e:	ca26                	sw	s1,20(sp)
44000870:	c84a                	sw	s2,16(sp)
44000872:	c64e                	sw	s3,12(sp)
44000874:	c452                	sw	s4,8(sp)
44000876:	c256                	sw	s5,4(sp)
44000878:	00052983          	lw	s3,0(a0)
4400087c:	00450413          	add	s0,a0,4
44000880:	4485                	li	s1,1
44000882:	4a81                	li	s5,0
44000884:	4a29                	li	s4,10
44000886:	a029                	j	44000890 <give_prediction+0x28>
44000888:	0485                	add	s1,s1,1
4400088a:	0411                	add	s0,s0,4
4400088c:	01448d63          	beq	s1,s4,440008a6 <give_prediction+0x3e>
44000890:	00042903          	lw	s2,0(s0)
44000894:	85ce                	mv	a1,s3
44000896:	854a                	mv	a0,s2
44000898:	125020ef          	jal	440031bc <__gesf2>
4400089c:	fea056e3          	blez	a0,44000888 <give_prediction+0x20>
440008a0:	8aa6                	mv	s5,s1
440008a2:	89ca                	mv	s3,s2
440008a4:	b7d5                	j	44000888 <give_prediction+0x20>
440008a6:	8556                	mv	a0,s5
440008a8:	40f2                	lw	ra,28(sp)
440008aa:	4462                	lw	s0,24(sp)
440008ac:	44d2                	lw	s1,20(sp)
440008ae:	4942                	lw	s2,16(sp)
440008b0:	49b2                	lw	s3,12(sp)
440008b2:	4a22                	lw	s4,8(sp)
440008b4:	4a92                	lw	s5,4(sp)
440008b6:	6105                	add	sp,sp,32
440008b8:	8082                	ret

440008ba <main>:
440008ba:	7179                	add	sp,sp,-48
440008bc:	d606                	sw	ra,44(sp)
440008be:	d422                	sw	s0,40(sp)
440008c0:	d226                	sw	s1,36(sp)
440008c2:	d04a                	sw	s2,32(sp)
440008c4:	ce4e                	sw	s3,28(sp)
440008c6:	cc52                	sw	s4,24(sp)
440008c8:	ca56                	sw	s5,20(sp)
440008ca:	c85a                	sw	s6,16(sp)
440008cc:	c65e                	sw	s7,12(sp)
440008ce:	c462                	sw	s8,8(sp)
440008d0:	c266                	sw	s9,4(sp)
440008d2:	ed41                	bnez	a0,4400096a <main+0xb0>
440008d4:	420107b7          	lui	a5,0x42010
440008d8:	17d1                	add	a5,a5,-12 # 4200fff4 <_stack_end+0x5094>
440008da:	0007a023          	sw	zero,0(a5)
440008de:	420049b7          	lui	s3,0x42004
440008e2:	42000c37          	lui	s8,0x42000
440008e6:	42009bb7          	lui	s7,0x42009
440008ea:	42003937          	lui	s2,0x42003
440008ee:	42009b37          	lui	s6,0x42009
440008f2:	420024b7          	lui	s1,0x42002
440008f6:	42009ab7          	lui	s5,0x42009
440008fa:	4200ca37          	lui	s4,0x4200c
440008fe:	0a71                	add	s4,s4,28 # 4200c01c <_stack_end+0x10bc>
44000900:	4405                	li	s0,1
44000902:	7a141073          	csrw	tdata1,s0
44000906:	47c5                	li	a5,17
44000908:	7a079073          	csrw	tselect,a5
4400090c:	78002cf3          	csrr	s9,0x780
44000910:	42098593          	add	a1,s3,1056 # 42004420 <output_L1>
44000914:	000c0513          	mv	a0,s8
44000918:	841ff0ef          	jal	44000158 <L1_Conv_1>
4400091c:	f00bac23          	sw	zero,-232(s7) # 42008f18 <token_l1>
44000920:	1c090593          	add	a1,s2,448 # 420031c0 <output_L2>
44000924:	42098513          	add	a0,s3,1056
44000928:	3a89                	jal	4400027a <L2_MaxPool_1>
4400092a:	f00b2a23          	sw	zero,-236(s6) # 42008f14 <token_l2>
4400092e:	8c048593          	add	a1,s1,-1856 # 420018c0 <output_L3>
44000932:	1c090513          	add	a0,s2,448
44000936:	341d                	jal	4400035c <L3_Conv_2>
44000938:	f00aa823          	sw	zero,-240(s5) # 42008f10 <token_l3>
4400093c:	4200c5b7          	lui	a1,0x4200c
44000940:	10058593          	add	a1,a1,256 # 4200c100 <_stack_end+0x11a0>
44000944:	8c048513          	add	a0,s1,-1856
44000948:	3671                	jal	440004d4 <L4_MaxPool_2>
4400094a:	780027f3          	csrr	a5,0x780
4400094e:	419787b3          	sub	a5,a5,s9
44000952:	00fa2023          	sw	a5,0(s4)
44000956:	420107b7          	lui	a5,0x42010
4400095a:	fe87aa23          	sw	s0,-12(a5) # 4200fff4 <_stack_end+0x5094>
4400095e:	4200c7b7          	lui	a5,0x4200c
44000962:	3e700713          	li	a4,999
44000966:	c398                	sw	a4,0(a5)
44000968:	bf61                	j	44000900 <main+0x46>
4400096a:	4200c7b7          	lui	a5,0x4200c
4400096e:	4705                	li	a4,1
44000970:	cf98                	sw	a4,24(a5)
44000972:	420049b7          	lui	s3,0x42004
44000976:	42000bb7          	lui	s7,0x42000
4400097a:	42009b37          	lui	s6,0x42009
4400097e:	42003937          	lui	s2,0x42003
44000982:	42009ab7          	lui	s5,0x42009
44000986:	420024b7          	lui	s1,0x42002
4400098a:	42009a37          	lui	s4,0x42009
4400098e:	42009c37          	lui	s8,0x42009
44000992:	a85d                	j	44000a48 <main+0x18e>
44000994:	4785                	li	a5,1
44000996:	7a179073          	csrw	tdata1,a5
4400099a:	47c5                	li	a5,17
4400099c:	7a079073          	csrw	tselect,a5
440009a0:	78002973          	csrr	s2,0x780
440009a4:	420107b7          	lui	a5,0x42010
440009a8:	fe07aa23          	sw	zero,-12(a5) # 4200fff4 <_stack_end+0x5094>
440009ac:	420015b7          	lui	a1,0x42001
440009b0:	54058593          	add	a1,a1,1344 # 42001540 <output_L5>
440009b4:	4200c537          	lui	a0,0x4200c
440009b8:	10050513          	add	a0,a0,256 # 4200c100 <_stack_end+0x11a0>
440009bc:	36f5                	jal	440005a8 <L5_Conv_3>
440009be:	420097b7          	lui	a5,0x42009
440009c2:	f007a623          	sw	zero,-244(a5) # 42008f0c <token_l5>
440009c6:	42001537          	lui	a0,0x42001
440009ca:	54050593          	add	a1,a0,1344 # 42001540 <output_L5>
440009ce:	1e058593          	add	a1,a1,480
440009d2:	54050513          	add	a0,a0,1344
440009d6:	31f9                	jal	440006a4 <L6_FC_1>
440009d8:	420097b7          	lui	a5,0x42009
440009dc:	f007a423          	sw	zero,-248(a5) # 42008f08 <token_l6>
440009e0:	42001437          	lui	s0,0x42001
440009e4:	54040413          	add	s0,s0,1344 # 42001540 <output_L5>
440009e8:	33040493          	add	s1,s0,816
440009ec:	85a6                	mv	a1,s1
440009ee:	1e040513          	add	a0,s0,480
440009f2:	3ba9                	jal	4400074c <L7_FC_2>
440009f4:	35840593          	add	a1,s0,856
440009f8:	8526                	mv	a0,s1
440009fa:	33d5                	jal	440007de <LogSoftmax_8>
440009fc:	420097b7          	lui	a5,0x42009
44000a00:	f007a223          	sw	zero,-252(a5) # 42008f04 <token_l7>
44000a04:	b5818513          	add	a0,gp,-1192 # 42001898 <output>
44000a08:	3585                	jal	44000868 <give_prediction>
44000a0a:	78002773          	csrr	a4,0x780
44000a0e:	4200c7b7          	lui	a5,0x4200c
44000a12:	c388                	sw	a0,0(a5)
44000a14:	41270733          	sub	a4,a4,s2
44000a18:	c798                	sw	a4,8(a5)
44000a1a:	4501                	li	a0,0
44000a1c:	50b2                	lw	ra,44(sp)
44000a1e:	5422                	lw	s0,40(sp)
44000a20:	5492                	lw	s1,36(sp)
44000a22:	5902                	lw	s2,32(sp)
44000a24:	49f2                	lw	s3,28(sp)
44000a26:	4a62                	lw	s4,24(sp)
44000a28:	4ad2                	lw	s5,20(sp)
44000a2a:	4b42                	lw	s6,16(sp)
44000a2c:	4bb2                	lw	s7,12(sp)
44000a2e:	4c22                	lw	s8,8(sp)
44000a30:	4c92                	lw	s9,4(sp)
44000a32:	6145                	add	sp,sp,48
44000a34:	8082                	ret
44000a36:	4901                	li	s2,0
44000a38:	b759                	j	440009be <main+0x104>
44000a3a:	420097b7          	lui	a5,0x42009
44000a3e:	f047a703          	lw	a4,-252(a5) # 42008f04 <token_l7>
44000a42:	4785                	li	a5,1
44000a44:	08f70b63          	beq	a4,a5,44000ada <main+0x220>
44000a48:	4405                	li	s0,1
44000a4a:	7a141073          	csrw	tdata1,s0
44000a4e:	47c5                	li	a5,17
44000a50:	7a079073          	csrw	tselect,a5
44000a54:	78002cf3          	csrr	s9,0x780
44000a58:	42098593          	add	a1,s3,1056 # 42004420 <output_L1>
44000a5c:	000b8513          	mv	a0,s7
44000a60:	ef8ff0ef          	jal	44000158 <L1_Conv_1>
44000a64:	f00b2c23          	sw	zero,-232(s6) # 42008f18 <token_l1>
44000a68:	1c090593          	add	a1,s2,448 # 420031c0 <output_L2>
44000a6c:	42098513          	add	a0,s3,1056
44000a70:	80bff0ef          	jal	4400027a <L2_MaxPool_1>
44000a74:	f00aaa23          	sw	zero,-236(s5) # 42008f14 <token_l2>
44000a78:	8c048593          	add	a1,s1,-1856 # 420018c0 <output_L3>
44000a7c:	1c090513          	add	a0,s2,448
44000a80:	8ddff0ef          	jal	4400035c <L3_Conv_2>
44000a84:	f00a2823          	sw	zero,-240(s4) # 42008f10 <token_l3>
44000a88:	4200c5b7          	lui	a1,0x4200c
44000a8c:	10058593          	add	a1,a1,256 # 4200c100 <_stack_end+0x11a0>
44000a90:	8c048513          	add	a0,s1,-1856
44000a94:	3481                	jal	440004d4 <L4_MaxPool_2>
44000a96:	78002773          	csrr	a4,0x780
44000a9a:	41970733          	sub	a4,a4,s9
44000a9e:	4200c7b7          	lui	a5,0x4200c
44000aa2:	cfd8                	sw	a4,28(a5)
44000aa4:	420107b7          	lui	a5,0x42010
44000aa8:	fe87aa23          	sw	s0,-12(a5) # 4200fff4 <_stack_end+0x5094>
44000aac:	17d1                	add	a5,a5,-12
44000aae:	4200c737          	lui	a4,0x4200c
44000ab2:	3e700693          	li	a3,999
44000ab6:	c314                	sw	a3,0(a4)
44000ab8:	439c                	lw	a5,0(a5)
44000aba:	ec878de3          	beq	a5,s0,44000994 <main+0xda>
44000abe:	f0cc2703          	lw	a4,-244(s8) # 42008f0c <token_l5>
44000ac2:	4785                	li	a5,1
44000ac4:	f6f709e3          	beq	a4,a5,44000a36 <main+0x17c>
44000ac8:	420097b7          	lui	a5,0x42009
44000acc:	f087a703          	lw	a4,-248(a5) # 42008f08 <token_l6>
44000ad0:	4785                	li	a5,1
44000ad2:	f6f714e3          	bne	a4,a5,44000a3a <main+0x180>
44000ad6:	4901                	li	s2,0
44000ad8:	b701                	j	440009d8 <main+0x11e>
44000ada:	4901                	li	s2,0
44000adc:	b705                	j	440009fc <main+0x142>

44000ade <memset>:
44000ade:	433d                	li	t1,15
44000ae0:	872a                	mv	a4,a0
44000ae2:	02c37363          	bgeu	t1,a2,44000b08 <memset+0x2a>
44000ae6:	00f77793          	and	a5,a4,15
44000aea:	efbd                	bnez	a5,44000b68 <memset+0x8a>
44000aec:	e5ad                	bnez	a1,44000b56 <memset+0x78>
44000aee:	ff067693          	and	a3,a2,-16
44000af2:	8a3d                	and	a2,a2,15
44000af4:	96ba                	add	a3,a3,a4
44000af6:	c30c                	sw	a1,0(a4)
44000af8:	c34c                	sw	a1,4(a4)
44000afa:	c70c                	sw	a1,8(a4)
44000afc:	c74c                	sw	a1,12(a4)
44000afe:	0741                	add	a4,a4,16 # 4200c010 <_stack_end+0x10b0>
44000b00:	fed76be3          	bltu	a4,a3,44000af6 <memset+0x18>
44000b04:	e211                	bnez	a2,44000b08 <memset+0x2a>
44000b06:	8082                	ret
44000b08:	40c306b3          	sub	a3,t1,a2
44000b0c:	068a                	sll	a3,a3,0x2
44000b0e:	00000297          	auipc	t0,0x0
44000b12:	9696                	add	a3,a3,t0
44000b14:	00a68067          	jr	10(a3)
44000b18:	00b70723          	sb	a1,14(a4)
44000b1c:	00b706a3          	sb	a1,13(a4)
44000b20:	00b70623          	sb	a1,12(a4)
44000b24:	00b705a3          	sb	a1,11(a4)
44000b28:	00b70523          	sb	a1,10(a4)
44000b2c:	00b704a3          	sb	a1,9(a4)
44000b30:	00b70423          	sb	a1,8(a4)
44000b34:	00b703a3          	sb	a1,7(a4)
44000b38:	00b70323          	sb	a1,6(a4)
44000b3c:	00b702a3          	sb	a1,5(a4)
44000b40:	00b70223          	sb	a1,4(a4)
44000b44:	00b701a3          	sb	a1,3(a4)
44000b48:	00b70123          	sb	a1,2(a4)
44000b4c:	00b700a3          	sb	a1,1(a4)
44000b50:	00b70023          	sb	a1,0(a4)
44000b54:	8082                	ret
44000b56:	0ff5f593          	zext.b	a1,a1
44000b5a:	00859693          	sll	a3,a1,0x8
44000b5e:	8dd5                	or	a1,a1,a3
44000b60:	01059693          	sll	a3,a1,0x10
44000b64:	8dd5                	or	a1,a1,a3
44000b66:	b761                	j	44000aee <memset+0x10>
44000b68:	00279693          	sll	a3,a5,0x2
44000b6c:	00000297          	auipc	t0,0x0
44000b70:	9696                	add	a3,a3,t0
44000b72:	8286                	mv	t0,ra
44000b74:	fa8680e7          	jalr	-88(a3)
44000b78:	8096                	mv	ra,t0
44000b7a:	17c1                	add	a5,a5,-16
44000b7c:	8f1d                	sub	a4,a4,a5
44000b7e:	963e                	add	a2,a2,a5
44000b80:	f8c374e3          	bgeu	t1,a2,44000b08 <memset+0x2a>
44000b84:	b7a5                	j	44000aec <memset+0xe>

44000b86 <exp>:
44000b86:	1101                	add	sp,sp,-32
44000b88:	cc22                	sw	s0,24(sp)
44000b8a:	ca26                	sw	s1,20(sp)
44000b8c:	c84a                	sw	s2,16(sp)
44000b8e:	c64e                	sw	s3,12(sp)
44000b90:	ce06                	sw	ra,28(sp)
44000b92:	89aa                	mv	s3,a0
44000b94:	842e                	mv	s0,a1
44000b96:	2069                	jal	44000c20 <__ieee754_exp>
44000b98:	892a                	mv	s2,a0
44000b9a:	84ae                	mv	s1,a1
44000b9c:	854e                	mv	a0,s3
44000b9e:	85a2                	mv	a1,s0
44000ba0:	2885                	jal	44000c10 <finite>
44000ba2:	c90d                	beqz	a0,44000bd4 <exp+0x4e>
44000ba4:	00022797          	auipc	a5,0x22
44000ba8:	4b478793          	add	a5,a5,1204 # 44023058 <_etext+0x8>
44000bac:	4390                	lw	a2,0(a5)
44000bae:	43d4                	lw	a3,4(a5)
44000bb0:	854e                	mv	a0,s3
44000bb2:	85a2                	mv	a1,s0
44000bb4:	35c010ef          	jal	44001f10 <__gedf2>
44000bb8:	02a04763          	bgtz	a0,44000be6 <exp+0x60>
44000bbc:	00022797          	auipc	a5,0x22
44000bc0:	4a478793          	add	a5,a5,1188 # 44023060 <_etext+0x10>
44000bc4:	4390                	lw	a2,0(a5)
44000bc6:	43d4                	lw	a3,4(a5)
44000bc8:	854e                	mv	a0,s3
44000bca:	85a2                	mv	a1,s0
44000bcc:	402010ef          	jal	44001fce <__ledf2>
44000bd0:	02054863          	bltz	a0,44000c00 <exp+0x7a>
44000bd4:	40f2                	lw	ra,28(sp)
44000bd6:	4462                	lw	s0,24(sp)
44000bd8:	49b2                	lw	s3,12(sp)
44000bda:	854a                	mv	a0,s2
44000bdc:	85a6                	mv	a1,s1
44000bde:	4942                	lw	s2,16(sp)
44000be0:	44d2                	lw	s1,20(sp)
44000be2:	6105                	add	sp,sp,32
44000be4:	8082                	ret
44000be6:	4bf020ef          	jal	440038a4 <__errno>
44000bea:	00022797          	auipc	a5,0x22
44000bee:	46678793          	add	a5,a5,1126 # 44023050 <_etext>
44000bf2:	0007a903          	lw	s2,0(a5)
44000bf6:	43c4                	lw	s1,4(a5)
44000bf8:	02200793          	li	a5,34
44000bfc:	c11c                	sw	a5,0(a0)
44000bfe:	bfd9                	j	44000bd4 <exp+0x4e>
44000c00:	4a5020ef          	jal	440038a4 <__errno>
44000c04:	02200793          	li	a5,34
44000c08:	c11c                	sw	a5,0(a0)
44000c0a:	4901                	li	s2,0
44000c0c:	4481                	li	s1,0
44000c0e:	b7d9                	j	44000bd4 <exp+0x4e>

44000c10 <finite>:
44000c10:	00159513          	sll	a0,a1,0x1
44000c14:	801007b7          	lui	a5,0x80100
44000c18:	8105                	srl	a0,a0,0x1
44000c1a:	953e                	add	a0,a0,a5
44000c1c:	817d                	srl	a0,a0,0x1f
44000c1e:	8082                	ret

44000c20 <__ieee754_exp>:
44000c20:	7179                	add	sp,sp,-48
44000c22:	00159793          	sll	a5,a1,0x1
44000c26:	40863737          	lui	a4,0x40863
44000c2a:	d422                	sw	s0,40(sp)
44000c2c:	d226                	sw	s1,36(sp)
44000c2e:	d04a                	sw	s2,32(sp)
44000c30:	d606                	sw	ra,44(sp)
44000c32:	ce4e                	sw	s3,28(sp)
44000c34:	cc52                	sw	s4,24(sp)
44000c36:	8385                	srl	a5,a5,0x1
44000c38:	e4170713          	add	a4,a4,-447 # 40862e41 <input_img-0x179d1bf>
44000c3c:	842e                	mv	s0,a1
44000c3e:	84aa                	mv	s1,a0
44000c40:	01f5d913          	srl	s2,a1,0x1f
44000c44:	02f77363          	bgeu	a4,a5,44000c6a <__ieee754_exp+0x4a>
44000c48:	7ff00737          	lui	a4,0x7ff00
44000c4c:	12e7e363          	bltu	a5,a4,44000d72 <__ieee754_exp+0x152>
44000c50:	00c59693          	sll	a3,a1,0xc
44000c54:	82b1                	srl	a3,a3,0xc
44000c56:	8ec9                	or	a3,a3,a0
44000c58:	34069d63          	bnez	a3,44000fb2 <__ieee754_exp+0x392>
44000c5c:	4781                	li	a5,0
44000c5e:	4581                	li	a1,0
44000c60:	10091063          	bnez	s2,44000d60 <__ieee754_exp+0x140>
44000c64:	87aa                	mv	a5,a0
44000c66:	85a2                	mv	a1,s0
44000c68:	a8e5                	j	44000d60 <__ieee754_exp+0x140>
44000c6a:	3fd63737          	lui	a4,0x3fd63
44000c6e:	e4270713          	add	a4,a4,-446 # 3fd62e42 <input_img-0x229d1be>
44000c72:	2ef76963          	bltu	a4,a5,44000f64 <__ieee754_exp+0x344>
44000c76:	3df00737          	lui	a4,0x3df00
44000c7a:	00022a17          	auipc	s4,0x22
44000c7e:	436a0a13          	add	s4,s4,1078 # 440230b0 <_etext+0x60>
44000c82:	2ae7e563          	bltu	a5,a4,44000f2c <__ieee754_exp+0x30c>
44000c86:	8626                	mv	a2,s1
44000c88:	86a2                	mv	a3,s0
44000c8a:	8526                	mv	a0,s1
44000c8c:	85a2                	mv	a1,s0
44000c8e:	402010ef          	jal	44002090 <__muldf3>
44000c92:	00022797          	auipc	a5,0x22
44000c96:	3ee78793          	add	a5,a5,1006 # 44023080 <_etext+0x30>
44000c9a:	4390                	lw	a2,0(a5)
44000c9c:	43d4                	lw	a3,4(a5)
44000c9e:	89aa                	mv	s3,a0
44000ca0:	892e                	mv	s2,a1
44000ca2:	3ee010ef          	jal	44002090 <__muldf3>
44000ca6:	00022797          	auipc	a5,0x22
44000caa:	3e278793          	add	a5,a5,994 # 44023088 <_etext+0x38>
44000cae:	4390                	lw	a2,0(a5)
44000cb0:	43d4                	lw	a3,4(a5)
44000cb2:	0fd010ef          	jal	440025ae <__subdf3>
44000cb6:	864e                	mv	a2,s3
44000cb8:	86ca                	mv	a3,s2
44000cba:	3d6010ef          	jal	44002090 <__muldf3>
44000cbe:	00022797          	auipc	a5,0x22
44000cc2:	3d278793          	add	a5,a5,978 # 44023090 <_etext+0x40>
44000cc6:	4390                	lw	a2,0(a5)
44000cc8:	43d4                	lw	a3,4(a5)
44000cca:	29fd                	jal	440011c8 <__adddf3>
44000ccc:	864e                	mv	a2,s3
44000cce:	86ca                	mv	a3,s2
44000cd0:	3c0010ef          	jal	44002090 <__muldf3>
44000cd4:	00022797          	auipc	a5,0x22
44000cd8:	3c478793          	add	a5,a5,964 # 44023098 <_etext+0x48>
44000cdc:	4390                	lw	a2,0(a5)
44000cde:	43d4                	lw	a3,4(a5)
44000ce0:	0cf010ef          	jal	440025ae <__subdf3>
44000ce4:	864e                	mv	a2,s3
44000ce6:	86ca                	mv	a3,s2
44000ce8:	3a8010ef          	jal	44002090 <__muldf3>
44000cec:	00022797          	auipc	a5,0x22
44000cf0:	3b478793          	add	a5,a5,948 # 440230a0 <_etext+0x50>
44000cf4:	4390                	lw	a2,0(a5)
44000cf6:	43d4                	lw	a3,4(a5)
44000cf8:	29c1                	jal	440011c8 <__adddf3>
44000cfa:	864e                	mv	a2,s3
44000cfc:	86ca                	mv	a3,s2
44000cfe:	392010ef          	jal	44002090 <__muldf3>
44000d02:	862a                	mv	a2,a0
44000d04:	86ae                	mv	a3,a1
44000d06:	8526                	mv	a0,s1
44000d08:	85a2                	mv	a1,s0
44000d0a:	0a5010ef          	jal	440025ae <__subdf3>
44000d0e:	89aa                	mv	s3,a0
44000d10:	892e                	mv	s2,a1
44000d12:	864e                	mv	a2,s3
44000d14:	86ca                	mv	a3,s2
44000d16:	8526                	mv	a0,s1
44000d18:	85a2                	mv	a1,s0
44000d1a:	376010ef          	jal	44002090 <__muldf3>
44000d1e:	00022697          	auipc	a3,0x22
44000d22:	39a68693          	add	a3,a3,922 # 440230b8 <_etext+0x68>
44000d26:	4290                	lw	a2,0(a3)
44000d28:	42d4                	lw	a3,4(a3)
44000d2a:	87ae                	mv	a5,a1
44000d2c:	872a                	mv	a4,a0
44000d2e:	85ca                	mv	a1,s2
44000d30:	854e                	mv	a0,s3
44000d32:	893e                	mv	s2,a5
44000d34:	89ba                	mv	s3,a4
44000d36:	079010ef          	jal	440025ae <__subdf3>
44000d3a:	862a                	mv	a2,a0
44000d3c:	86ae                	mv	a3,a1
44000d3e:	854e                	mv	a0,s3
44000d40:	85ca                	mv	a1,s2
44000d42:	3a3000ef          	jal	440018e4 <__divdf3>
44000d46:	8626                	mv	a2,s1
44000d48:	86a2                	mv	a3,s0
44000d4a:	065010ef          	jal	440025ae <__subdf3>
44000d4e:	862a                	mv	a2,a0
44000d50:	86ae                	mv	a3,a1
44000d52:	000a2503          	lw	a0,0(s4)
44000d56:	004a2583          	lw	a1,4(s4)
44000d5a:	055010ef          	jal	440025ae <__subdf3>
44000d5e:	87aa                	mv	a5,a0
44000d60:	50b2                	lw	ra,44(sp)
44000d62:	5422                	lw	s0,40(sp)
44000d64:	5492                	lw	s1,36(sp)
44000d66:	5902                	lw	s2,32(sp)
44000d68:	49f2                	lw	s3,28(sp)
44000d6a:	4a62                	lw	s4,24(sp)
44000d6c:	853e                	mv	a0,a5
44000d6e:	6145                	add	sp,sp,48
44000d70:	8082                	ret
44000d72:	00022797          	auipc	a5,0x22
44000d76:	2e678793          	add	a5,a5,742 # 44023058 <_etext+0x8>
44000d7a:	4390                	lw	a2,0(a5)
44000d7c:	43d4                	lw	a3,4(a5)
44000d7e:	192010ef          	jal	44001f10 <__gedf2>
44000d82:	22a04d63          	bgtz	a0,44000fbc <__ieee754_exp+0x39c>
44000d86:	00022797          	auipc	a5,0x22
44000d8a:	2da78793          	add	a5,a5,730 # 44023060 <_etext+0x10>
44000d8e:	4390                	lw	a2,0(a5)
44000d90:	43d4                	lw	a3,4(a5)
44000d92:	8526                	mv	a0,s1
44000d94:	85a2                	mv	a1,s0
44000d96:	238010ef          	jal	44001fce <__ledf2>
44000d9a:	24054763          	bltz	a0,44000fe8 <__ieee754_exp+0x3c8>
44000d9e:	ca56                	sw	s5,20(sp)
44000da0:	c85a                	sw	s6,16(sp)
44000da2:	c65e                	sw	s7,12(sp)
44000da4:	c462                	sw	s8,8(sp)
44000da6:	c266                	sw	s9,4(sp)
44000da8:	c06a                	sw	s10,0(sp)
44000daa:	00022797          	auipc	a5,0x22
44000dae:	2be78793          	add	a5,a5,702 # 44023068 <_etext+0x18>
44000db2:	4390                	lw	a2,0(a5)
44000db4:	43d4                	lw	a3,4(a5)
44000db6:	8526                	mv	a0,s1
44000db8:	00022797          	auipc	a5,0x22
44000dbc:	14878793          	add	a5,a5,328 # 44022f00 <halF>
44000dc0:	85a2                	mv	a1,s0
44000dc2:	090e                	sll	s2,s2,0x3
44000dc4:	993e                	add	s2,s2,a5
44000dc6:	2ca010ef          	jal	44002090 <__muldf3>
44000dca:	00092603          	lw	a2,0(s2)
44000dce:	00492683          	lw	a3,4(s2)
44000dd2:	2edd                	jal	440011c8 <__adddf3>
44000dd4:	765010ef          	jal	44002d38 <__fixdfsi>
44000dd8:	8a2a                	mv	s4,a0
44000dda:	7c5010ef          	jal	44002d9e <__floatsidf>
44000dde:	00022797          	auipc	a5,0x22
44000de2:	29278793          	add	a5,a5,658 # 44023070 <_etext+0x20>
44000de6:	4390                	lw	a2,0(a5)
44000de8:	43d4                	lw	a3,4(a5)
44000dea:	89aa                	mv	s3,a0
44000dec:	892e                	mv	s2,a1
44000dee:	2a2010ef          	jal	44002090 <__muldf3>
44000df2:	862a                	mv	a2,a0
44000df4:	86ae                	mv	a3,a1
44000df6:	8526                	mv	a0,s1
44000df8:	85a2                	mv	a1,s0
44000dfa:	7b4010ef          	jal	440025ae <__subdf3>
44000dfe:	00022797          	auipc	a5,0x22
44000e02:	27a78793          	add	a5,a5,634 # 44023078 <_etext+0x28>
44000e06:	4390                	lw	a2,0(a5)
44000e08:	43d4                	lw	a3,4(a5)
44000e0a:	8b2a                	mv	s6,a0
44000e0c:	8aae                	mv	s5,a1
44000e0e:	854e                	mv	a0,s3
44000e10:	85ca                	mv	a1,s2
44000e12:	27e010ef          	jal	44002090 <__muldf3>
44000e16:	8c2a                	mv	s8,a0
44000e18:	8bae                	mv	s7,a1
44000e1a:	8662                	mv	a2,s8
44000e1c:	86de                	mv	a3,s7
44000e1e:	855a                	mv	a0,s6
44000e20:	85d6                	mv	a1,s5
44000e22:	78c010ef          	jal	440025ae <__subdf3>
44000e26:	862a                	mv	a2,a0
44000e28:	86ae                	mv	a3,a1
44000e2a:	84aa                	mv	s1,a0
44000e2c:	842e                	mv	s0,a1
44000e2e:	262010ef          	jal	44002090 <__muldf3>
44000e32:	00022797          	auipc	a5,0x22
44000e36:	24e78793          	add	a5,a5,590 # 44023080 <_etext+0x30>
44000e3a:	4390                	lw	a2,0(a5)
44000e3c:	43d4                	lw	a3,4(a5)
44000e3e:	89aa                	mv	s3,a0
44000e40:	892e                	mv	s2,a1
44000e42:	24e010ef          	jal	44002090 <__muldf3>
44000e46:	00022797          	auipc	a5,0x22
44000e4a:	24278793          	add	a5,a5,578 # 44023088 <_etext+0x38>
44000e4e:	4390                	lw	a2,0(a5)
44000e50:	43d4                	lw	a3,4(a5)
44000e52:	75c010ef          	jal	440025ae <__subdf3>
44000e56:	864e                	mv	a2,s3
44000e58:	86ca                	mv	a3,s2
44000e5a:	236010ef          	jal	44002090 <__muldf3>
44000e5e:	00022797          	auipc	a5,0x22
44000e62:	23278793          	add	a5,a5,562 # 44023090 <_etext+0x40>
44000e66:	4390                	lw	a2,0(a5)
44000e68:	43d4                	lw	a3,4(a5)
44000e6a:	2eb9                	jal	440011c8 <__adddf3>
44000e6c:	864e                	mv	a2,s3
44000e6e:	86ca                	mv	a3,s2
44000e70:	220010ef          	jal	44002090 <__muldf3>
44000e74:	00022797          	auipc	a5,0x22
44000e78:	22478793          	add	a5,a5,548 # 44023098 <_etext+0x48>
44000e7c:	4390                	lw	a2,0(a5)
44000e7e:	43d4                	lw	a3,4(a5)
44000e80:	72e010ef          	jal	440025ae <__subdf3>
44000e84:	864e                	mv	a2,s3
44000e86:	86ca                	mv	a3,s2
44000e88:	208010ef          	jal	44002090 <__muldf3>
44000e8c:	00022797          	auipc	a5,0x22
44000e90:	21478793          	add	a5,a5,532 # 440230a0 <_etext+0x50>
44000e94:	4390                	lw	a2,0(a5)
44000e96:	43d4                	lw	a3,4(a5)
44000e98:	2e05                	jal	440011c8 <__adddf3>
44000e9a:	864e                	mv	a2,s3
44000e9c:	86ca                	mv	a3,s2
44000e9e:	1f2010ef          	jal	44002090 <__muldf3>
44000ea2:	862a                	mv	a2,a0
44000ea4:	86ae                	mv	a3,a1
44000ea6:	8526                	mv	a0,s1
44000ea8:	85a2                	mv	a1,s0
44000eaa:	704010ef          	jal	440025ae <__subdf3>
44000eae:	862a                	mv	a2,a0
44000eb0:	86ae                	mv	a3,a1
44000eb2:	89aa                	mv	s3,a0
44000eb4:	892e                	mv	s2,a1
44000eb6:	8526                	mv	a0,s1
44000eb8:	85a2                	mv	a1,s0
44000eba:	1d6010ef          	jal	44002090 <__muldf3>
44000ebe:	8d2a                	mv	s10,a0
44000ec0:	8cae                	mv	s9,a1
44000ec2:	120a0c63          	beqz	s4,44000ffa <__ieee754_exp+0x3da>
44000ec6:	00022797          	auipc	a5,0x22
44000eca:	1f278793          	add	a5,a5,498 # 440230b8 <_etext+0x68>
44000ece:	4388                	lw	a0,0(a5)
44000ed0:	43cc                	lw	a1,4(a5)
44000ed2:	864e                	mv	a2,s3
44000ed4:	86ca                	mv	a3,s2
44000ed6:	6d8010ef          	jal	440025ae <__subdf3>
44000eda:	862a                	mv	a2,a0
44000edc:	86ae                	mv	a3,a1
44000ede:	856a                	mv	a0,s10
44000ee0:	85e6                	mv	a1,s9
44000ee2:	203000ef          	jal	440018e4 <__divdf3>
44000ee6:	862a                	mv	a2,a0
44000ee8:	86ae                	mv	a3,a1
44000eea:	8562                	mv	a0,s8
44000eec:	85de                	mv	a1,s7
44000eee:	6c0010ef          	jal	440025ae <__subdf3>
44000ef2:	865a                	mv	a2,s6
44000ef4:	86d6                	mv	a3,s5
44000ef6:	6b8010ef          	jal	440025ae <__subdf3>
44000efa:	00022797          	auipc	a5,0x22
44000efe:	1b678793          	add	a5,a5,438 # 440230b0 <_etext+0x60>
44000f02:	862a                	mv	a2,a0
44000f04:	86ae                	mv	a3,a1
44000f06:	4388                	lw	a0,0(a5)
44000f08:	43cc                	lw	a1,4(a5)
44000f0a:	6a4010ef          	jal	440025ae <__subdf3>
44000f0e:	c0300793          	li	a5,-1021
44000f12:	0afa4e63          	blt	s4,a5,44000fce <__ieee754_exp+0x3ae>
44000f16:	014a1793          	sll	a5,s4,0x14
44000f1a:	95be                	add	a1,a1,a5
44000f1c:	4ad2                	lw	s5,20(sp)
44000f1e:	4b42                	lw	s6,16(sp)
44000f20:	4bb2                	lw	s7,12(sp)
44000f22:	4c22                	lw	s8,8(sp)
44000f24:	4c92                	lw	s9,4(sp)
44000f26:	4d02                	lw	s10,0(sp)
44000f28:	87aa                	mv	a5,a0
44000f2a:	bd1d                	j	44000d60 <__ieee754_exp+0x140>
44000f2c:	00022797          	auipc	a5,0x22
44000f30:	17c78793          	add	a5,a5,380 # 440230a8 <_etext+0x58>
44000f34:	4390                	lw	a2,0(a5)
44000f36:	43d4                	lw	a3,4(a5)
44000f38:	00022a17          	auipc	s4,0x22
44000f3c:	178a0a13          	add	s4,s4,376 # 440230b0 <_etext+0x60>
44000f40:	2461                	jal	440011c8 <__adddf3>
44000f42:	000a2903          	lw	s2,0(s4)
44000f46:	004a2983          	lw	s3,4(s4)
44000f4a:	864a                	mv	a2,s2
44000f4c:	86ce                	mv	a3,s3
44000f4e:	7c3000ef          	jal	44001f10 <__gedf2>
44000f52:	d2a05ae3          	blez	a0,44000c86 <__ieee754_exp+0x66>
44000f56:	8526                	mv	a0,s1
44000f58:	85a2                	mv	a1,s0
44000f5a:	864a                	mv	a2,s2
44000f5c:	86ce                	mv	a3,s3
44000f5e:	24ad                	jal	440011c8 <__adddf3>
44000f60:	87aa                	mv	a5,a0
44000f62:	bbfd                	j	44000d60 <__ieee754_exp+0x140>
44000f64:	3ff0a737          	lui	a4,0x3ff0a
44000f68:	ca56                	sw	s5,20(sp)
44000f6a:	c85a                	sw	s6,16(sp)
44000f6c:	c65e                	sw	s7,12(sp)
44000f6e:	c462                	sw	s8,8(sp)
44000f70:	c266                	sw	s9,4(sp)
44000f72:	c06a                	sw	s10,0(sp)
44000f74:	2b170713          	add	a4,a4,689 # 3ff0a2b1 <input_img-0x20f5d4f>
44000f78:	e2f769e3          	bltu	a4,a5,44000daa <__ieee754_exp+0x18a>
44000f7c:	00391413          	sll	s0,s2,0x3
44000f80:	00022797          	auipc	a5,0x22
44000f84:	f7078793          	add	a5,a5,-144 # 44022ef0 <ln2HI>
44000f88:	97a2                	add	a5,a5,s0
44000f8a:	4390                	lw	a2,0(a5)
44000f8c:	43d4                	lw	a3,4(a5)
44000f8e:	620010ef          	jal	440025ae <__subdf3>
44000f92:	00022717          	auipc	a4,0x22
44000f96:	f4e70713          	add	a4,a4,-178 # 44022ee0 <ln2LO>
44000f9a:	9722                	add	a4,a4,s0
44000f9c:	00194793          	xor	a5,s2,1
44000fa0:	00072c03          	lw	s8,0(a4)
44000fa4:	00472b83          	lw	s7,4(a4)
44000fa8:	8b2a                	mv	s6,a0
44000faa:	8aae                	mv	s5,a1
44000fac:	41278a33          	sub	s4,a5,s2
44000fb0:	b5ad                	j	44000e1a <__ieee754_exp+0x1fa>
44000fb2:	862a                	mv	a2,a0
44000fb4:	86ae                	mv	a3,a1
44000fb6:	2c09                	jal	440011c8 <__adddf3>
44000fb8:	87aa                	mv	a5,a0
44000fba:	b35d                	j	44000d60 <__ieee754_exp+0x140>
44000fbc:	5422                	lw	s0,40(sp)
44000fbe:	50b2                	lw	ra,44(sp)
44000fc0:	5492                	lw	s1,36(sp)
44000fc2:	5902                	lw	s2,32(sp)
44000fc4:	49f2                	lw	s3,28(sp)
44000fc6:	4a62                	lw	s4,24(sp)
44000fc8:	4501                	li	a0,0
44000fca:	6145                	add	sp,sp,48
44000fcc:	a865                	j	44001084 <__math_oflow>
44000fce:	3e8a0793          	add	a5,s4,1000
44000fd2:	07d2                	sll	a5,a5,0x14
44000fd4:	95be                	add	a1,a1,a5
44000fd6:	00022797          	auipc	a5,0x22
44000fda:	0ea78793          	add	a5,a5,234 # 440230c0 <_etext+0x70>
44000fde:	4390                	lw	a2,0(a5)
44000fe0:	43d4                	lw	a3,4(a5)
44000fe2:	0ae010ef          	jal	44002090 <__muldf3>
44000fe6:	bf1d                	j	44000f1c <__ieee754_exp+0x2fc>
44000fe8:	5422                	lw	s0,40(sp)
44000fea:	50b2                	lw	ra,44(sp)
44000fec:	5492                	lw	s1,36(sp)
44000fee:	5902                	lw	s2,32(sp)
44000ff0:	49f2                	lw	s3,28(sp)
44000ff2:	4a62                	lw	s4,24(sp)
44000ff4:	4501                	li	a0,0
44000ff6:	6145                	add	sp,sp,48
44000ff8:	a885                	j	44001068 <__math_uflow>
44000ffa:	4ad2                	lw	s5,20(sp)
44000ffc:	4b42                	lw	s6,16(sp)
44000ffe:	4bb2                	lw	s7,12(sp)
44001000:	4c22                	lw	s8,8(sp)
44001002:	4c92                	lw	s9,4(sp)
44001004:	4d02                	lw	s10,0(sp)
44001006:	00022a17          	auipc	s4,0x22
4400100a:	0aaa0a13          	add	s4,s4,170 # 440230b0 <_etext+0x60>
4400100e:	b311                	j	44000d12 <__ieee754_exp+0xf2>

44001010 <with_errno>:
44001010:	1141                	add	sp,sp,-16
44001012:	c422                	sw	s0,8(sp)
44001014:	c226                	sw	s1,4(sp)
44001016:	c04a                	sw	s2,0(sp)
44001018:	c606                	sw	ra,12(sp)
4400101a:	892a                	mv	s2,a0
4400101c:	84ae                	mv	s1,a1
4400101e:	8432                	mv	s0,a2
44001020:	085020ef          	jal	440038a4 <__errno>
44001024:	c100                	sw	s0,0(a0)
44001026:	40b2                	lw	ra,12(sp)
44001028:	4422                	lw	s0,8(sp)
4400102a:	854a                	mv	a0,s2
4400102c:	85a6                	mv	a1,s1
4400102e:	4902                	lw	s2,0(sp)
44001030:	4492                	lw	s1,4(sp)
44001032:	0141                	add	sp,sp,16
44001034:	8082                	ret

44001036 <xflow>:
44001036:	1101                	add	sp,sp,-32
44001038:	ce06                	sw	ra,28(sp)
4400103a:	87b2                	mv	a5,a2
4400103c:	c11d                	beqz	a0,44001062 <xflow+0x2c>
4400103e:	80000737          	lui	a4,0x80000
44001042:	862e                	mv	a2,a1
44001044:	00f746b3          	xor	a3,a4,a5
44001048:	c432                	sw	a2,8(sp)
4400104a:	c636                	sw	a3,12(sp)
4400104c:	4622                	lw	a2,8(sp)
4400104e:	46b2                	lw	a3,12(sp)
44001050:	852e                	mv	a0,a1
44001052:	85be                	mv	a1,a5
44001054:	03c010ef          	jal	44002090 <__muldf3>
44001058:	40f2                	lw	ra,28(sp)
4400105a:	02200613          	li	a2,34
4400105e:	6105                	add	sp,sp,32
44001060:	bf45                	j	44001010 <with_errno>
44001062:	862e                	mv	a2,a1
44001064:	86be                	mv	a3,a5
44001066:	b7cd                	j	44001048 <xflow+0x12>

44001068 <__math_uflow>:
44001068:	00022797          	auipc	a5,0x22
4400106c:	06078793          	add	a5,a5,96 # 440230c8 <_etext+0x78>
44001070:	438c                	lw	a1,0(a5)
44001072:	43d0                	lw	a2,4(a5)
44001074:	b7c9                	j	44001036 <xflow>

44001076 <__math_may_uflow>:
44001076:	00022797          	auipc	a5,0x22
4400107a:	05a78793          	add	a5,a5,90 # 440230d0 <_etext+0x80>
4400107e:	438c                	lw	a1,0(a5)
44001080:	43d0                	lw	a2,4(a5)
44001082:	bf55                	j	44001036 <xflow>

44001084 <__math_oflow>:
44001084:	00022797          	auipc	a5,0x22
44001088:	05478793          	add	a5,a5,84 # 440230d8 <_etext+0x88>
4400108c:	438c                	lw	a1,0(a5)
4400108e:	43d0                	lw	a2,4(a5)
44001090:	b75d                	j	44001036 <xflow>

44001092 <__math_divzero>:
44001092:	1101                	add	sp,sp,-32
44001094:	ce06                	sw	ra,28(sp)
44001096:	c505                	beqz	a0,440010be <__math_divzero+0x2c>
44001098:	00022797          	auipc	a5,0x22
4400109c:	04878793          	add	a5,a5,72 # 440230e0 <_etext+0x90>
440010a0:	4398                	lw	a4,0(a5)
440010a2:	43dc                	lw	a5,4(a5)
440010a4:	c43a                	sw	a4,8(sp)
440010a6:	c63e                	sw	a5,12(sp)
440010a8:	4522                	lw	a0,8(sp)
440010aa:	45b2                	lw	a1,12(sp)
440010ac:	4601                	li	a2,0
440010ae:	4681                	li	a3,0
440010b0:	035000ef          	jal	440018e4 <__divdf3>
440010b4:	40f2                	lw	ra,28(sp)
440010b6:	02200613          	li	a2,34
440010ba:	6105                	add	sp,sp,32
440010bc:	bf91                	j	44001010 <with_errno>
440010be:	00022797          	auipc	a5,0x22
440010c2:	ff278793          	add	a5,a5,-14 # 440230b0 <_etext+0x60>
440010c6:	4398                	lw	a4,0(a5)
440010c8:	43dc                	lw	a5,4(a5)
440010ca:	bfe9                	j	440010a4 <__math_divzero+0x12>

440010cc <__math_invalid>:
440010cc:	1141                	add	sp,sp,-16
440010ce:	862a                	mv	a2,a0
440010d0:	86ae                	mv	a3,a1
440010d2:	c606                	sw	ra,12(sp)
440010d4:	c422                	sw	s0,8(sp)
440010d6:	c226                	sw	s1,4(sp)
440010d8:	842e                	mv	s0,a1
440010da:	84aa                	mv	s1,a0
440010dc:	4d2010ef          	jal	440025ae <__subdf3>
440010e0:	862a                	mv	a2,a0
440010e2:	86ae                	mv	a3,a1
440010e4:	001000ef          	jal	440018e4 <__divdf3>
440010e8:	872a                	mv	a4,a0
440010ea:	87ae                	mv	a5,a1
440010ec:	8626                	mv	a2,s1
440010ee:	8526                	mv	a0,s1
440010f0:	86a2                	mv	a3,s0
440010f2:	85a2                	mv	a1,s0
440010f4:	84ba                	mv	s1,a4
440010f6:	843e                	mv	s0,a5
440010f8:	405010ef          	jal	44002cfc <__unorddf2>
440010fc:	e911                	bnez	a0,44001110 <__math_invalid+0x44>
440010fe:	85a2                	mv	a1,s0
44001100:	4422                	lw	s0,8(sp)
44001102:	40b2                	lw	ra,12(sp)
44001104:	8526                	mv	a0,s1
44001106:	4492                	lw	s1,4(sp)
44001108:	02100613          	li	a2,33
4400110c:	0141                	add	sp,sp,16
4400110e:	b709                	j	44001010 <with_errno>
44001110:	40b2                	lw	ra,12(sp)
44001112:	85a2                	mv	a1,s0
44001114:	4422                	lw	s0,8(sp)
44001116:	8526                	mv	a0,s1
44001118:	4492                	lw	s1,4(sp)
4400111a:	0141                	add	sp,sp,16
4400111c:	8082                	ret

4400111e <__math_check_uflow>:
4400111e:	1141                	add	sp,sp,-16
44001120:	4601                	li	a2,0
44001122:	4681                	li	a3,0
44001124:	c422                	sw	s0,8(sp)
44001126:	c226                	sw	s1,4(sp)
44001128:	c606                	sw	ra,12(sp)
4400112a:	84aa                	mv	s1,a0
4400112c:	842e                	mv	s0,a1
4400112e:	577000ef          	jal	44001ea4 <__eqdf2>
44001132:	c901                	beqz	a0,44001142 <__math_check_uflow+0x24>
44001134:	40b2                	lw	ra,12(sp)
44001136:	85a2                	mv	a1,s0
44001138:	4422                	lw	s0,8(sp)
4400113a:	8526                	mv	a0,s1
4400113c:	4492                	lw	s1,4(sp)
4400113e:	0141                	add	sp,sp,16
44001140:	8082                	ret
44001142:	85a2                	mv	a1,s0
44001144:	4422                	lw	s0,8(sp)
44001146:	40b2                	lw	ra,12(sp)
44001148:	8526                	mv	a0,s1
4400114a:	4492                	lw	s1,4(sp)
4400114c:	02200613          	li	a2,34
44001150:	0141                	add	sp,sp,16
44001152:	bd7d                	j	44001010 <with_errno>

44001154 <__math_check_oflow>:
44001154:	1101                	add	sp,sp,-32
44001156:	00022797          	auipc	a5,0x22
4400115a:	f9278793          	add	a5,a5,-110 # 440230e8 <_etext+0x98>
4400115e:	c652                	sw	s4,12(sp)
44001160:	c456                	sw	s5,8(sp)
44001162:	0007aa03          	lw	s4,0(a5)
44001166:	0047aa83          	lw	s5,4(a5)
4400116a:	c84a                	sw	s2,16(sp)
4400116c:	00159913          	sll	s2,a1,0x1
44001170:	cc22                	sw	s0,24(sp)
44001172:	00195913          	srl	s2,s2,0x1
44001176:	842a                	mv	s0,a0
44001178:	ca26                	sw	s1,20(sp)
4400117a:	8522                	mv	a0,s0
4400117c:	84ae                	mv	s1,a1
4400117e:	8652                	mv	a2,s4
44001180:	85ca                	mv	a1,s2
44001182:	86d6                	mv	a3,s5
44001184:	ce06                	sw	ra,28(sp)
44001186:	377010ef          	jal	44002cfc <__unorddf2>
4400118a:	e909                	bnez	a0,4400119c <__math_check_oflow+0x48>
4400118c:	8522                	mv	a0,s0
4400118e:	85ca                	mv	a1,s2
44001190:	8652                	mv	a2,s4
44001192:	86d6                	mv	a3,s5
44001194:	63b000ef          	jal	44001fce <__ledf2>
44001198:	00a04c63          	bgtz	a0,440011b0 <__math_check_oflow+0x5c>
4400119c:	40f2                	lw	ra,28(sp)
4400119e:	8522                	mv	a0,s0
440011a0:	4462                	lw	s0,24(sp)
440011a2:	4942                	lw	s2,16(sp)
440011a4:	4a32                	lw	s4,12(sp)
440011a6:	4aa2                	lw	s5,8(sp)
440011a8:	85a6                	mv	a1,s1
440011aa:	44d2                	lw	s1,20(sp)
440011ac:	6105                	add	sp,sp,32
440011ae:	8082                	ret
440011b0:	8522                	mv	a0,s0
440011b2:	4462                	lw	s0,24(sp)
440011b4:	40f2                	lw	ra,28(sp)
440011b6:	4942                	lw	s2,16(sp)
440011b8:	4a32                	lw	s4,12(sp)
440011ba:	4aa2                	lw	s5,8(sp)
440011bc:	85a6                	mv	a1,s1
440011be:	44d2                	lw	s1,20(sp)
440011c0:	02200613          	li	a2,34
440011c4:	6105                	add	sp,sp,32
440011c6:	b5a9                	j	44001010 <with_errno>

440011c8 <__adddf3>:
440011c8:	001007b7          	lui	a5,0x100
440011cc:	1101                	add	sp,sp,-32
440011ce:	fff78e93          	add	t4,a5,-1 # fffff <input_img-0x41f00001>
440011d2:	00bef833          	and	a6,t4,a1
440011d6:	00def7b3          	and	a5,t4,a3
440011da:	0146d313          	srl	t1,a3,0x14
440011de:	c84a                	sw	s2,16(sp)
440011e0:	0145d913          	srl	s2,a1,0x14
440011e4:	078e                	sll	a5,a5,0x3
440011e6:	cc22                	sw	s0,24(sp)
440011e8:	080e                	sll	a6,a6,0x3
440011ea:	01f5d413          	srl	s0,a1,0x1f
440011ee:	01d55713          	srl	a4,a0,0x1d
440011f2:	01d65893          	srl	a7,a2,0x1d
440011f6:	7ff97913          	and	s2,s2,2047
440011fa:	7ff37313          	and	t1,t1,2047
440011fe:	ce06                	sw	ra,28(sp)
44001200:	ca26                	sw	s1,20(sp)
44001202:	c64e                	sw	s3,12(sp)
44001204:	82fd                	srl	a3,a3,0x1f
44001206:	00f8e8b3          	or	a7,a7,a5
4400120a:	01076733          	or	a4,a4,a6
4400120e:	00351593          	sll	a1,a0,0x3
44001212:	00361f13          	sll	t5,a2,0x3
44001216:	406907b3          	sub	a5,s2,t1
4400121a:	18d40c63          	beq	s0,a3,440013b2 <__adddf3+0x1ea>
4400121e:	12f05363          	blez	a5,44001344 <__adddf3+0x17c>
44001222:	22030263          	beqz	t1,44001446 <__adddf3+0x27e>
44001226:	7ff00693          	li	a3,2047
4400122a:	38d90163          	beq	s2,a3,440015ac <__adddf3+0x3e4>
4400122e:	03800693          	li	a3,56
44001232:	4605                	li	a2,1
44001234:	02f6ca63          	blt	a3,a5,44001268 <__adddf3+0xa0>
44001238:	008006b7          	lui	a3,0x800
4400123c:	00d8e8b3          	or	a7,a7,a3
44001240:	46fd                	li	a3,31
44001242:	44f6ce63          	blt	a3,a5,4400169e <__adddf3+0x4d6>
44001246:	02000693          	li	a3,32
4400124a:	8e9d                	sub	a3,a3,a5
4400124c:	00d89633          	sll	a2,a7,a3
44001250:	00ff5533          	srl	a0,t5,a5
44001254:	00df16b3          	sll	a3,t5,a3
44001258:	8e49                	or	a2,a2,a0
4400125a:	00d036b3          	snez	a3,a3
4400125e:	00f8d8b3          	srl	a7,a7,a5
44001262:	8e55                	or	a2,a2,a3
44001264:	41170733          	sub	a4,a4,a7
44001268:	40c58633          	sub	a2,a1,a2
4400126c:	00c5b5b3          	sltu	a1,a1,a2
44001270:	84b2                	mv	s1,a2
44001272:	40b709b3          	sub	s3,a4,a1
44001276:	00899793          	sll	a5,s3,0x8
4400127a:	2a07db63          	bgez	a5,44001530 <__adddf3+0x368>
4400127e:	008007b7          	lui	a5,0x800
44001282:	17fd                	add	a5,a5,-1 # 7fffff <input_img-0x41800001>
44001284:	00f9f9b3          	and	s3,s3,a5
44001288:	24098f63          	beqz	s3,440014e6 <__adddf3+0x31e>
4400128c:	854e                	mv	a0,s3
4400128e:	5a8020ef          	jal	44003836 <__clzsi2>
44001292:	ff850793          	add	a5,a0,-8
44001296:	02000693          	li	a3,32
4400129a:	40f68733          	sub	a4,a3,a5
4400129e:	00e4d733          	srl	a4,s1,a4
440012a2:	00f999b3          	sll	s3,s3,a5
440012a6:	01376733          	or	a4,a4,s3
440012aa:	00f494b3          	sll	s1,s1,a5
440012ae:	3f27c063          	blt	a5,s2,4400168e <__adddf3+0x4c6>
440012b2:	412787b3          	sub	a5,a5,s2
440012b6:	0785                	add	a5,a5,1
440012b8:	8e9d                	sub	a3,a3,a5
440012ba:	00d49633          	sll	a2,s1,a3
440012be:	00f4d9b3          	srl	s3,s1,a5
440012c2:	00c03633          	snez	a2,a2
440012c6:	01366633          	or	a2,a2,s3
440012ca:	00d716b3          	sll	a3,a4,a3
440012ce:	00c6e4b3          	or	s1,a3,a2
440012d2:	00f759b3          	srl	s3,a4,a5
440012d6:	4901                	li	s2,0
440012d8:	0074f793          	and	a5,s1,7
440012dc:	cf81                	beqz	a5,440012f4 <__adddf3+0x12c>
440012de:	00f4f793          	and	a5,s1,15
440012e2:	4711                	li	a4,4
440012e4:	00e78863          	beq	a5,a4,440012f4 <__adddf3+0x12c>
440012e8:	00448793          	add	a5,s1,4
440012ec:	0097b633          	sltu	a2,a5,s1
440012f0:	99b2                	add	s3,s3,a2
440012f2:	84be                	mv	s1,a5
440012f4:	00899793          	sll	a5,s3,0x8
440012f8:	5807dd63          	bgez	a5,44001892 <__adddf3+0x6ca>
440012fc:	00190793          	add	a5,s2,1
44001300:	7ff00713          	li	a4,2047
44001304:	8e22                	mv	t3,s0
44001306:	22e78e63          	beq	a5,a4,44001542 <__adddf3+0x37a>
4400130a:	ff800737          	lui	a4,0xff800
4400130e:	177d                	add	a4,a4,-1 # ff7fffff <_sidata+0xbb7dcf0f>
44001310:	00e9f733          	and	a4,s3,a4
44001314:	7ff7f793          	and	a5,a5,2047
44001318:	01d71813          	sll	a6,a4,0x1d
4400131c:	0034d613          	srl	a2,s1,0x3
44001320:	0726                	sll	a4,a4,0x9
44001322:	00c86833          	or	a6,a6,a2
44001326:	8331                	srl	a4,a4,0xc
44001328:	40f2                	lw	ra,28(sp)
4400132a:	4462                	lw	s0,24(sp)
4400132c:	07d2                	sll	a5,a5,0x14
4400132e:	8fd9                	or	a5,a5,a4
44001330:	01fe1713          	sll	a4,t3,0x1f
44001334:	8fd9                	or	a5,a5,a4
44001336:	44d2                	lw	s1,20(sp)
44001338:	4942                	lw	s2,16(sp)
4400133a:	49b2                	lw	s3,12(sp)
4400133c:	8542                	mv	a0,a6
4400133e:	85be                	mv	a1,a5
44001340:	6105                	add	sp,sp,32
44001342:	8082                	ret
44001344:	12078463          	beqz	a5,4400146c <__adddf3+0x2a4>
44001348:	412307b3          	sub	a5,t1,s2
4400134c:	32091463          	bnez	s2,44001674 <__adddf3+0x4ac>
44001350:	00b76533          	or	a0,a4,a1
44001354:	3e050c63          	beqz	a0,4400174c <__adddf3+0x584>
44001358:	fff78513          	add	a0,a5,-1
4400135c:	4e050263          	beqz	a0,44001840 <__adddf3+0x678>
44001360:	7ff00813          	li	a6,2047
44001364:	47078963          	beq	a5,a6,440017d6 <__adddf3+0x60e>
44001368:	03800793          	li	a5,56
4400136c:	4605                	li	a2,1
4400136e:	02a7c863          	blt	a5,a0,4400139e <__adddf3+0x1d6>
44001372:	87aa                	mv	a5,a0
44001374:	467d                	li	a2,31
44001376:	46f64963          	blt	a2,a5,440017e8 <__adddf3+0x620>
4400137a:	02000513          	li	a0,32
4400137e:	8d1d                	sub	a0,a0,a5
44001380:	00a71633          	sll	a2,a4,a0
44001384:	00f5d833          	srl	a6,a1,a5
44001388:	00a59533          	sll	a0,a1,a0
4400138c:	01066633          	or	a2,a2,a6
44001390:	00a03533          	snez	a0,a0
44001394:	00f75733          	srl	a4,a4,a5
44001398:	8e49                	or	a2,a2,a0
4400139a:	40e888b3          	sub	a7,a7,a4
4400139e:	40cf0633          	sub	a2,t5,a2
440013a2:	00cf3733          	sltu	a4,t5,a2
440013a6:	84b2                	mv	s1,a2
440013a8:	40e889b3          	sub	s3,a7,a4
440013ac:	891a                	mv	s2,t1
440013ae:	8436                	mv	s0,a3
440013b0:	b5d9                	j	44001276 <__adddf3+0xae>
440013b2:	18f05d63          	blez	a5,4400154c <__adddf3+0x384>
440013b6:	10031a63          	bnez	t1,440014ca <__adddf3+0x302>
440013ba:	01e8e6b3          	or	a3,a7,t5
440013be:	20068a63          	beqz	a3,440015d2 <__adddf3+0x40a>
440013c2:	fff78693          	add	a3,a5,-1
440013c6:	3a068663          	beqz	a3,44001772 <__adddf3+0x5aa>
440013ca:	7ff00613          	li	a2,2047
440013ce:	1cc78f63          	beq	a5,a2,440015ac <__adddf3+0x3e4>
440013d2:	03800793          	li	a5,56
440013d6:	4985                	li	s3,1
440013d8:	02d7c863          	blt	a5,a3,44001408 <__adddf3+0x240>
440013dc:	87b6                	mv	a5,a3
440013de:	46fd                	li	a3,31
440013e0:	3cf6c163          	blt	a3,a5,440017a2 <__adddf3+0x5da>
440013e4:	02000693          	li	a3,32
440013e8:	8e9d                	sub	a3,a3,a5
440013ea:	00d899b3          	sll	s3,a7,a3
440013ee:	00ff5633          	srl	a2,t5,a5
440013f2:	00df16b3          	sll	a3,t5,a3
440013f6:	00c9e9b3          	or	s3,s3,a2
440013fa:	00d036b3          	snez	a3,a3
440013fe:	00f8d8b3          	srl	a7,a7,a5
44001402:	00d9e9b3          	or	s3,s3,a3
44001406:	9746                	add	a4,a4,a7
44001408:	95ce                	add	a1,a1,s3
4400140a:	0135b9b3          	sltu	s3,a1,s3
4400140e:	84ae                	mv	s1,a1
44001410:	99ba                	add	s3,s3,a4
44001412:	00899793          	sll	a5,s3,0x8
44001416:	1007dd63          	bgez	a5,44001530 <__adddf3+0x368>
4400141a:	0905                	add	s2,s2,1
4400141c:	7ff00793          	li	a5,2047
44001420:	2ef90163          	beq	s2,a5,44001702 <__adddf3+0x53a>
44001424:	ff8007b7          	lui	a5,0xff800
44001428:	17fd                	add	a5,a5,-1 # ff7fffff <_sidata+0xbb7dcf0f>
4400142a:	0014f613          	and	a2,s1,1
4400142e:	00f9f7b3          	and	a5,s3,a5
44001432:	0014d713          	srl	a4,s1,0x1
44001436:	8f51                	or	a4,a4,a2
44001438:	01f79613          	sll	a2,a5,0x1f
4400143c:	00e664b3          	or	s1,a2,a4
44001440:	0017d993          	srl	s3,a5,0x1
44001444:	bd51                	j	440012d8 <__adddf3+0x110>
44001446:	01e8e6b3          	or	a3,a7,t5
4400144a:	18068463          	beqz	a3,440015d2 <__adddf3+0x40a>
4400144e:	fff78693          	add	a3,a5,-1
44001452:	32068d63          	beqz	a3,4400178c <__adddf3+0x5c4>
44001456:	7ff00613          	li	a2,2047
4400145a:	14c78963          	beq	a5,a2,440015ac <__adddf3+0x3e4>
4400145e:	03800793          	li	a5,56
44001462:	4605                	li	a2,1
44001464:	e0d7c2e3          	blt	a5,a3,44001268 <__adddf3+0xa0>
44001468:	87b6                	mv	a5,a3
4400146a:	bbd9                	j	44001240 <__adddf3+0x78>
4400146c:	00190813          	add	a6,s2,1
44001470:	7fe87813          	and	a6,a6,2046
44001474:	1c081b63          	bnez	a6,4400164a <__adddf3+0x482>
44001478:	00b76333          	or	t1,a4,a1
4400147c:	01e8e833          	or	a6,a7,t5
44001480:	2c091b63          	bnez	s2,44001756 <__adddf3+0x58e>
44001484:	38030b63          	beqz	t1,4400181a <__adddf3+0x652>
44001488:	34080263          	beqz	a6,440017cc <__adddf3+0x604>
4400148c:	41e589b3          	sub	s3,a1,t5
44001490:	0135b533          	sltu	a0,a1,s3
44001494:	41170633          	sub	a2,a4,a7
44001498:	8e09                	sub	a2,a2,a0
4400149a:	00861513          	sll	a0,a2,0x8
4400149e:	40055463          	bgez	a0,440018a6 <__adddf3+0x6de>
440014a2:	40bf05b3          	sub	a1,t5,a1
440014a6:	40e88733          	sub	a4,a7,a4
440014aa:	00bf3f33          	sltu	t5,t5,a1
440014ae:	41e70733          	sub	a4,a4,t5
440014b2:	00871613          	sll	a2,a4,0x8
440014b6:	84ae                	mv	s1,a1
440014b8:	40065e63          	bgez	a2,440018d4 <__adddf3+0x70c>
440014bc:	ff8007b7          	lui	a5,0xff800
440014c0:	17fd                	add	a5,a5,-1 # ff7fffff <_sidata+0xbb7dcf0f>
440014c2:	8f7d                	and	a4,a4,a5
440014c4:	8e36                	mv	t3,a3
440014c6:	4785                	li	a5,1
440014c8:	bd81                	j	44001318 <__adddf3+0x150>
440014ca:	7ff00693          	li	a3,2047
440014ce:	0cd90f63          	beq	s2,a3,440015ac <__adddf3+0x3e4>
440014d2:	03800693          	li	a3,56
440014d6:	4985                	li	s3,1
440014d8:	f2f6c8e3          	blt	a3,a5,44001408 <__adddf3+0x240>
440014dc:	008006b7          	lui	a3,0x800
440014e0:	00d8e8b3          	or	a7,a7,a3
440014e4:	bded                	j	440013de <__adddf3+0x216>
440014e6:	8526                	mv	a0,s1
440014e8:	34e020ef          	jal	44003836 <__clzsi2>
440014ec:	01850793          	add	a5,a0,24
440014f0:	46fd                	li	a3,31
440014f2:	daf6d2e3          	bge	a3,a5,44001296 <__adddf3+0xce>
440014f6:	ff850713          	add	a4,a0,-8
440014fa:	00e49733          	sll	a4,s1,a4
440014fe:	1d27c463          	blt	a5,s2,440016c6 <__adddf3+0x4fe>
44001502:	41278933          	sub	s2,a5,s2
44001506:	00190793          	add	a5,s2,1
4400150a:	38f6d963          	bge	a3,a5,4400189c <__adddf3+0x6d4>
4400150e:	1905                	add	s2,s2,-31
44001510:	02000693          	li	a3,32
44001514:	012754b3          	srl	s1,a4,s2
44001518:	00d78b63          	beq	a5,a3,4400152e <__adddf3+0x366>
4400151c:	04000693          	li	a3,64
44001520:	40f687b3          	sub	a5,a3,a5
44001524:	00f71733          	sll	a4,a4,a5
44001528:	00e03733          	snez	a4,a4
4400152c:	8cd9                	or	s1,s1,a4
4400152e:	4901                	li	s2,0
44001530:	0074f793          	and	a5,s1,7
44001534:	da0795e3          	bnez	a5,440012de <__adddf3+0x116>
44001538:	87ca                	mv	a5,s2
4400153a:	0034d613          	srl	a2,s1,0x3
4400153e:	874e                	mv	a4,s3
44001540:	a861                	j	440015d8 <__adddf3+0x410>
44001542:	7ff00793          	li	a5,2047
44001546:	4701                	li	a4,0
44001548:	4801                	li	a6,0
4400154a:	bbf9                	j	44001328 <__adddf3+0x160>
4400154c:	c7cd                	beqz	a5,440015f6 <__adddf3+0x42e>
4400154e:	412307b3          	sub	a5,t1,s2
44001552:	18090663          	beqz	s2,440016de <__adddf3+0x516>
44001556:	7ff00693          	li	a3,2047
4400155a:	28d30363          	beq	t1,a3,440017e0 <__adddf3+0x618>
4400155e:	03800693          	li	a3,56
44001562:	4985                	li	s3,1
44001564:	02f6ca63          	blt	a3,a5,44001598 <__adddf3+0x3d0>
44001568:	008006b7          	lui	a3,0x800
4400156c:	8f55                	or	a4,a4,a3
4400156e:	46fd                	li	a3,31
44001570:	2ef6cd63          	blt	a3,a5,4400186a <__adddf3+0x6a2>
44001574:	02000693          	li	a3,32
44001578:	8e9d                	sub	a3,a3,a5
4400157a:	00d719b3          	sll	s3,a4,a3
4400157e:	00f5d633          	srl	a2,a1,a5
44001582:	00d596b3          	sll	a3,a1,a3
44001586:	00c9e9b3          	or	s3,s3,a2
4400158a:	00d036b3          	snez	a3,a3
4400158e:	00f75733          	srl	a4,a4,a5
44001592:	00d9e9b3          	or	s3,s3,a3
44001596:	98ba                	add	a7,a7,a4
44001598:	01e98733          	add	a4,s3,t5
4400159c:	013739b3          	sltu	s3,a4,s3
440015a0:	84ba                	mv	s1,a4
440015a2:	99c6                	add	s3,s3,a7
440015a4:	891a                	mv	s2,t1
440015a6:	b5b5                	j	44001412 <__adddf3+0x24a>
440015a8:	00081e63          	bnez	a6,440015c4 <__adddf3+0x3fc>
440015ac:	00351613          	sll	a2,a0,0x3
440015b0:	820d                	srl	a2,a2,0x3
440015b2:	01d71813          	sll	a6,a4,0x1d
440015b6:	00c86833          	or	a6,a6,a2
440015ba:	830d                	srl	a4,a4,0x3
440015bc:	01076733          	or	a4,a4,a6
440015c0:	14070163          	beqz	a4,44001702 <__adddf3+0x53a>
440015c4:	4e01                	li	t3,0
440015c6:	7ff00793          	li	a5,2047
440015ca:	00080737          	lui	a4,0x80
440015ce:	4801                	li	a6,0
440015d0:	bba1                	j	44001328 <__adddf3+0x160>
440015d2:	00351613          	sll	a2,a0,0x3
440015d6:	820d                	srl	a2,a2,0x3
440015d8:	01d71813          	sll	a6,a4,0x1d
440015dc:	7ff00693          	li	a3,2047
440015e0:	00c86833          	or	a6,a6,a2
440015e4:	830d                	srl	a4,a4,0x3
440015e6:	fcd78be3          	beq	a5,a3,440015bc <__adddf3+0x3f4>
440015ea:	0732                	sll	a4,a4,0xc
440015ec:	8331                	srl	a4,a4,0xc
440015ee:	7ff7f793          	and	a5,a5,2047
440015f2:	8e22                	mv	t3,s0
440015f4:	bb15                	j	44001328 <__adddf3+0x160>
440015f6:	00190693          	add	a3,s2,1
440015fa:	7fe6f813          	and	a6,a3,2046
440015fe:	10081863          	bnez	a6,4400170e <__adddf3+0x546>
44001602:	00b766b3          	or	a3,a4,a1
44001606:	20091463          	bnez	s2,4400180e <__adddf3+0x646>
4400160a:	24068b63          	beqz	a3,44001860 <__adddf3+0x698>
4400160e:	01e8e6b3          	or	a3,a7,t5
44001612:	1a068d63          	beqz	a3,440017cc <__adddf3+0x604>
44001616:	01e587b3          	add	a5,a1,t5
4400161a:	00b7b5b3          	sltu	a1,a5,a1
4400161e:	9746                	add	a4,a4,a7
44001620:	972e                	add	a4,a4,a1
44001622:	0037d813          	srl	a6,a5,0x3
44001626:	00871793          	sll	a5,a4,0x8
4400162a:	8e22                	mv	t3,s0
4400162c:	2807db63          	bgez	a5,440018c2 <__adddf3+0x6fa>
44001630:	ff8007b7          	lui	a5,0xff800
44001634:	17fd                	add	a5,a5,-1 # ff7fffff <_sidata+0xbb7dcf0f>
44001636:	8f7d                	and	a4,a4,a5
44001638:	01d71793          	sll	a5,a4,0x1d
4400163c:	830d                	srl	a4,a4,0x3
4400163e:	0107e833          	or	a6,a5,a6
44001642:	01d77733          	and	a4,a4,t4
44001646:	4785                	li	a5,1
44001648:	b1c5                	j	44001328 <__adddf3+0x160>
4400164a:	41e58833          	sub	a6,a1,t5
4400164e:	0105b7b3          	sltu	a5,a1,a6
44001652:	411709b3          	sub	s3,a4,a7
44001656:	40f989b3          	sub	s3,s3,a5
4400165a:	00899793          	sll	a5,s3,0x8
4400165e:	84c2                	mv	s1,a6
44001660:	0c07cb63          	bltz	a5,44001736 <__adddf3+0x56e>
44001664:	01386833          	or	a6,a6,s3
44001668:	c20810e3          	bnez	a6,44001288 <__adddf3+0xc0>
4400166c:	4e01                	li	t3,0
4400166e:	4781                	li	a5,0
44001670:	4701                	li	a4,0
44001672:	b95d                	j	44001328 <__adddf3+0x160>
44001674:	7ff00513          	li	a0,2047
44001678:	14a30f63          	beq	t1,a0,440017d6 <__adddf3+0x60e>
4400167c:	03800513          	li	a0,56
44001680:	4605                	li	a2,1
44001682:	d0f54ee3          	blt	a0,a5,4400139e <__adddf3+0x1d6>
44001686:	00800637          	lui	a2,0x800
4400168a:	8f51                	or	a4,a4,a2
4400168c:	b1e5                	j	44001374 <__adddf3+0x1ac>
4400168e:	ff8009b7          	lui	s3,0xff800
44001692:	19fd                	add	s3,s3,-1 # ff7fffff <_sidata+0xbb7dcf0f>
44001694:	40f90933          	sub	s2,s2,a5
44001698:	013779b3          	and	s3,a4,s3
4400169c:	b935                	j	440012d8 <__adddf3+0x110>
4400169e:	fe078693          	add	a3,a5,-32
440016a2:	02000613          	li	a2,32
440016a6:	00d8d6b3          	srl	a3,a7,a3
440016aa:	00c78a63          	beq	a5,a2,440016be <__adddf3+0x4f6>
440016ae:	04000613          	li	a2,64
440016b2:	40f607b3          	sub	a5,a2,a5
440016b6:	00f897b3          	sll	a5,a7,a5
440016ba:	00ff6f33          	or	t5,t5,a5
440016be:	01e03633          	snez	a2,t5
440016c2:	8e55                	or	a2,a2,a3
440016c4:	b655                	j	44001268 <__adddf3+0xa0>
440016c6:	ff8006b7          	lui	a3,0xff800
440016ca:	16fd                	add	a3,a3,-1 # ff7fffff <_sidata+0xbb7dcf0f>
440016cc:	40f907b3          	sub	a5,s2,a5
440016d0:	8f75                	and	a4,a4,a3
440016d2:	01d71813          	sll	a6,a4,0x1d
440016d6:	01386833          	or	a6,a6,s3
440016da:	830d                	srl	a4,a4,0x3
440016dc:	b739                	j	440015ea <__adddf3+0x422>
440016de:	00b766b3          	or	a3,a4,a1
440016e2:	16068b63          	beqz	a3,44001858 <__adddf3+0x690>
440016e6:	fff78693          	add	a3,a5,-1
440016ea:	c6c1                	beqz	a3,44001772 <__adddf3+0x5aa>
440016ec:	7ff00513          	li	a0,2047
440016f0:	0ea78863          	beq	a5,a0,440017e0 <__adddf3+0x618>
440016f4:	03800793          	li	a5,56
440016f8:	4985                	li	s3,1
440016fa:	e8d7cfe3          	blt	a5,a3,44001598 <__adddf3+0x3d0>
440016fe:	87b6                	mv	a5,a3
44001700:	b5bd                	j	4400156e <__adddf3+0x3a6>
44001702:	8e22                	mv	t3,s0
44001704:	7ff00793          	li	a5,2047
44001708:	4701                	li	a4,0
4400170a:	4801                	li	a6,0
4400170c:	b931                	j	44001328 <__adddf3+0x160>
4400170e:	7ff00793          	li	a5,2047
44001712:	fef688e3          	beq	a3,a5,44001702 <__adddf3+0x53a>
44001716:	9f2e                	add	t5,t5,a1
44001718:	00bf35b3          	sltu	a1,t5,a1
4400171c:	011707b3          	add	a5,a4,a7
44001720:	97ae                	add	a5,a5,a1
44001722:	01f79613          	sll	a2,a5,0x1f
44001726:	001f5f13          	srl	t5,t5,0x1
4400172a:	01e664b3          	or	s1,a2,t5
4400172e:	0017d993          	srl	s3,a5,0x1
44001732:	8936                	mv	s2,a3
44001734:	b655                	j	440012d8 <__adddf3+0x110>
44001736:	40bf0633          	sub	a2,t5,a1
4400173a:	40e887b3          	sub	a5,a7,a4
4400173e:	00cf3733          	sltu	a4,t5,a2
44001742:	84b2                	mv	s1,a2
44001744:	40e789b3          	sub	s3,a5,a4
44001748:	8436                	mv	s0,a3
4400174a:	be3d                	j	44001288 <__adddf3+0xc0>
4400174c:	060e                	sll	a2,a2,0x3
4400174e:	820d                	srl	a2,a2,0x3
44001750:	8436                	mv	s0,a3
44001752:	8746                	mv	a4,a7
44001754:	b551                	j	440015d8 <__adddf3+0x410>
44001756:	e40319e3          	bnez	t1,440015a8 <__adddf3+0x3e0>
4400175a:	14080e63          	beqz	a6,440018b6 <__adddf3+0x6ee>
4400175e:	0038d713          	srl	a4,a7,0x3
44001762:	060e                	sll	a2,a2,0x3
44001764:	08f6                	sll	a7,a7,0x1d
44001766:	01176733          	or	a4,a4,a7
4400176a:	820d                	srl	a2,a2,0x3
4400176c:	8f51                	or	a4,a4,a2
4400176e:	8436                	mv	s0,a3
44001770:	bd81                	j	440015c0 <__adddf3+0x3f8>
44001772:	9f2e                	add	t5,t5,a1
44001774:	98ba                	add	a7,a7,a4
44001776:	00bf35b3          	sltu	a1,t5,a1
4400177a:	00b889b3          	add	s3,a7,a1
4400177e:	00899793          	sll	a5,s3,0x8
44001782:	84fa                	mv	s1,t5
44001784:	0a07dc63          	bgez	a5,4400183c <__adddf3+0x674>
44001788:	4909                	li	s2,2
4400178a:	b969                	j	44001424 <__adddf3+0x25c>
4400178c:	41e58f33          	sub	t5,a1,t5
44001790:	411708b3          	sub	a7,a4,a7
44001794:	01e5b5b3          	sltu	a1,a1,t5
44001798:	84fa                	mv	s1,t5
4400179a:	40b889b3          	sub	s3,a7,a1
4400179e:	4905                	li	s2,1
440017a0:	bcd9                	j	44001276 <__adddf3+0xae>
440017a2:	fe078693          	add	a3,a5,-32
440017a6:	02000613          	li	a2,32
440017aa:	00d8d6b3          	srl	a3,a7,a3
440017ae:	00c78a63          	beq	a5,a2,440017c2 <__adddf3+0x5fa>
440017b2:	04000613          	li	a2,64
440017b6:	40f607b3          	sub	a5,a2,a5
440017ba:	00f897b3          	sll	a5,a7,a5
440017be:	00ff6f33          	or	t5,t5,a5
440017c2:	01e039b3          	snez	s3,t5
440017c6:	00d9e9b3          	or	s3,s3,a3
440017ca:	b93d                	j	44001408 <__adddf3+0x240>
440017cc:	00351613          	sll	a2,a0,0x3
440017d0:	00365993          	srl	s3,a2,0x3
440017d4:	bdfd                	j	440016d2 <__adddf3+0x50a>
440017d6:	060e                	sll	a2,a2,0x3
440017d8:	820d                	srl	a2,a2,0x3
440017da:	8436                	mv	s0,a3
440017dc:	8746                	mv	a4,a7
440017de:	bbd1                	j	440015b2 <__adddf3+0x3ea>
440017e0:	060e                	sll	a2,a2,0x3
440017e2:	820d                	srl	a2,a2,0x3
440017e4:	8746                	mv	a4,a7
440017e6:	b3f1                	j	440015b2 <__adddf3+0x3ea>
440017e8:	fe078513          	add	a0,a5,-32
440017ec:	02000613          	li	a2,32
440017f0:	00a75533          	srl	a0,a4,a0
440017f4:	00c78963          	beq	a5,a2,44001806 <__adddf3+0x63e>
440017f8:	04000613          	li	a2,64
440017fc:	40f607b3          	sub	a5,a2,a5
44001800:	00f717b3          	sll	a5,a4,a5
44001804:	8ddd                	or	a1,a1,a5
44001806:	00b03633          	snez	a2,a1
4400180a:	8e49                	or	a2,a2,a0
4400180c:	be49                	j	4400139e <__adddf3+0x1d6>
4400180e:	dae9                	beqz	a3,440017e0 <__adddf3+0x618>
44001810:	01e8ef33          	or	t5,a7,t5
44001814:	da0f18e3          	bnez	t5,440015c4 <__adddf3+0x3fc>
44001818:	bb51                	j	440015ac <__adddf3+0x3e4>
4400181a:	e40809e3          	beqz	a6,4400166c <__adddf3+0x4a4>
4400181e:	00361813          	sll	a6,a2,0x3
44001822:	01d89793          	sll	a5,a7,0x1d
44001826:	00385813          	srl	a6,a6,0x3
4400182a:	0038d713          	srl	a4,a7,0x3
4400182e:	00f86833          	or	a6,a6,a5
44001832:	01d77733          	and	a4,a4,t4
44001836:	8e36                	mv	t3,a3
44001838:	4781                	li	a5,0
4400183a:	b4fd                	j	44001328 <__adddf3+0x160>
4400183c:	4785                	li	a5,1
4400183e:	b9f5                	j	4400153a <__adddf3+0x372>
44001840:	40bf05b3          	sub	a1,t5,a1
44001844:	40e888b3          	sub	a7,a7,a4
44001848:	00bf3733          	sltu	a4,t5,a1
4400184c:	84ae                	mv	s1,a1
4400184e:	40e889b3          	sub	s3,a7,a4
44001852:	8436                	mv	s0,a3
44001854:	4905                	li	s2,1
44001856:	b405                	j	44001276 <__adddf3+0xae>
44001858:	060e                	sll	a2,a2,0x3
4400185a:	820d                	srl	a2,a2,0x3
4400185c:	8746                	mv	a4,a7
4400185e:	bbad                	j	440015d8 <__adddf3+0x410>
44001860:	060e                	sll	a2,a2,0x3
44001862:	00365993          	srl	s3,a2,0x3
44001866:	8746                	mv	a4,a7
44001868:	b5ad                	j	440016d2 <__adddf3+0x50a>
4400186a:	fe078693          	add	a3,a5,-32
4400186e:	02000613          	li	a2,32
44001872:	00d756b3          	srl	a3,a4,a3
44001876:	00c78963          	beq	a5,a2,44001888 <__adddf3+0x6c0>
4400187a:	04000613          	li	a2,64
4400187e:	40f607b3          	sub	a5,a2,a5
44001882:	00f717b3          	sll	a5,a4,a5
44001886:	8ddd                	or	a1,a1,a5
44001888:	00b039b3          	snez	s3,a1
4400188c:	00d9e9b3          	or	s3,s3,a3
44001890:	b321                	j	44001598 <__adddf3+0x3d0>
44001892:	0034d613          	srl	a2,s1,0x3
44001896:	87ca                	mv	a5,s2
44001898:	874e                	mv	a4,s3
4400189a:	bb3d                	j	440015d8 <__adddf3+0x410>
4400189c:	02000693          	li	a3,32
440018a0:	8e9d                	sub	a3,a3,a5
440018a2:	4601                	li	a2,0
440018a4:	b40d                	j	440012c6 <__adddf3+0xfe>
440018a6:	00c9e833          	or	a6,s3,a2
440018aa:	dc0801e3          	beqz	a6,4400166c <__adddf3+0x4a4>
440018ae:	0039d993          	srl	s3,s3,0x3
440018b2:	8732                	mv	a4,a2
440018b4:	bd39                	j	440016d2 <__adddf3+0x50a>
440018b6:	4e01                	li	t3,0
440018b8:	7ff00793          	li	a5,2047
440018bc:	00080737          	lui	a4,0x80
440018c0:	b4a5                	j	44001328 <__adddf3+0x160>
440018c2:	01d71793          	sll	a5,a4,0x1d
440018c6:	830d                	srl	a4,a4,0x3
440018c8:	0107e833          	or	a6,a5,a6
440018cc:	01d77733          	and	a4,a4,t4
440018d0:	4781                	li	a5,0
440018d2:	bc99                	j	44001328 <__adddf3+0x160>
440018d4:	01d71813          	sll	a6,a4,0x1d
440018d8:	818d                	srl	a1,a1,0x3
440018da:	00b86833          	or	a6,a6,a1
440018de:	830d                	srl	a4,a4,0x3
440018e0:	8436                	mv	s0,a3
440018e2:	b321                	j	440015ea <__adddf3+0x422>

440018e4 <__divdf3>:
440018e4:	7179                	add	sp,sp,-48
440018e6:	ce4e                	sw	s3,28(sp)
440018e8:	0145d993          	srl	s3,a1,0x14
440018ec:	d422                	sw	s0,40(sp)
440018ee:	d226                	sw	s1,36(sp)
440018f0:	d04a                	sw	s2,32(sp)
440018f2:	cc52                	sw	s4,24(sp)
440018f4:	c65e                	sw	s7,12(sp)
440018f6:	00c59493          	sll	s1,a1,0xc
440018fa:	d606                	sw	ra,44(sp)
440018fc:	ca56                	sw	s5,20(sp)
440018fe:	c85a                	sw	s6,16(sp)
44001900:	c462                	sw	s8,8(sp)
44001902:	7ff9f993          	and	s3,s3,2047
44001906:	842a                	mv	s0,a0
44001908:	8bb2                	mv	s7,a2
4400190a:	8936                	mv	s2,a3
4400190c:	80b1                	srl	s1,s1,0xc
4400190e:	01f5da13          	srl	s4,a1,0x1f
44001912:	12098363          	beqz	s3,44001a38 <__divdf3+0x154>
44001916:	7ff00793          	li	a5,2047
4400191a:	06f98a63          	beq	s3,a5,4400198e <__divdf3+0xaa>
4400191e:	048e                	sll	s1,s1,0x3
44001920:	01d55793          	srl	a5,a0,0x1d
44001924:	8fc5                	or	a5,a5,s1
44001926:	00800737          	lui	a4,0x800
4400192a:	00e7eab3          	or	s5,a5,a4
4400192e:	00351b13          	sll	s6,a0,0x3
44001932:	c0198993          	add	s3,s3,-1023
44001936:	4481                	li	s1,0
44001938:	4c01                	li	s8,0
4400193a:	01495793          	srl	a5,s2,0x14
4400193e:	00c91413          	sll	s0,s2,0xc
44001942:	7ff7f793          	and	a5,a5,2047
44001946:	8031                	srl	s0,s0,0xc
44001948:	01f95913          	srl	s2,s2,0x1f
4400194c:	c7a5                	beqz	a5,440019b4 <__divdf3+0xd0>
4400194e:	7ff00713          	li	a4,2047
44001952:	12e78263          	beq	a5,a4,44001a76 <__divdf3+0x192>
44001956:	040e                	sll	s0,s0,0x3
44001958:	01dbd713          	srl	a4,s7,0x1d
4400195c:	8f41                	or	a4,a4,s0
4400195e:	c0178793          	add	a5,a5,-1023
44001962:	00800437          	lui	s0,0x800
44001966:	8c59                	or	s0,s0,a4
44001968:	003b9893          	sll	a7,s7,0x3
4400196c:	40f989b3          	sub	s3,s3,a5
44001970:	4601                	li	a2,0
44001972:	473d                	li	a4,15
44001974:	012a46b3          	xor	a3,s4,s2
44001978:	1a976163          	bltu	a4,s1,44001b1a <__divdf3+0x236>
4400197c:	00021717          	auipc	a4,0x21
44001980:	59470713          	add	a4,a4,1428 # 44022f10 <halF+0x10>
44001984:	048a                	sll	s1,s1,0x2
44001986:	94ba                	add	s1,s1,a4
44001988:	409c                	lw	a5,0(s1)
4400198a:	97ba                	add	a5,a5,a4
4400198c:	8782                	jr	a5
4400198e:	00a4eab3          	or	s5,s1,a0
44001992:	140a9e63          	bnez	s5,44001aee <__divdf3+0x20a>
44001996:	01495793          	srl	a5,s2,0x14
4400199a:	00c91413          	sll	s0,s2,0xc
4400199e:	7ff7f793          	and	a5,a5,2047
440019a2:	4b01                	li	s6,0
440019a4:	44a1                	li	s1,8
440019a6:	7ff00993          	li	s3,2047
440019aa:	4c09                	li	s8,2
440019ac:	8031                	srl	s0,s0,0xc
440019ae:	01f95913          	srl	s2,s2,0x1f
440019b2:	ffd1                	bnez	a5,4400194e <__divdf3+0x6a>
440019b4:	017468b3          	or	a7,s0,s7
440019b8:	14088263          	beqz	a7,44001afc <__divdf3+0x218>
440019bc:	38040e63          	beqz	s0,44001d58 <__divdf3+0x474>
440019c0:	8522                	mv	a0,s0
440019c2:	675010ef          	jal	44003836 <__clzsi2>
440019c6:	87aa                	mv	a5,a0
440019c8:	ff550693          	add	a3,a0,-11
440019cc:	4775                	li	a4,29
440019ce:	ff878893          	add	a7,a5,-8
440019d2:	8f15                	sub	a4,a4,a3
440019d4:	01141433          	sll	s0,s0,a7
440019d8:	00ebd733          	srl	a4,s7,a4
440019dc:	8c59                	or	s0,s0,a4
440019de:	011b98b3          	sll	a7,s7,a7
440019e2:	97ce                	add	a5,a5,s3
440019e4:	3f378993          	add	s3,a5,1011
440019e8:	4601                	li	a2,0
440019ea:	b761                	j	44001972 <__divdf3+0x8e>
440019ec:	8f1d                	sub	a4,a4,a5
440019ee:	03800613          	li	a2,56
440019f2:	3ce65663          	bge	a2,a4,44001dbe <__divdf3+0x4da>
440019f6:	4781                	li	a5,0
440019f8:	4601                	li	a2,0
440019fa:	4701                	li	a4,0
440019fc:	50b2                	lw	ra,44(sp)
440019fe:	5422                	lw	s0,40(sp)
44001a00:	07d2                	sll	a5,a5,0x14
44001a02:	8fd1                	or	a5,a5,a2
44001a04:	06fe                	sll	a3,a3,0x1f
44001a06:	8fd5                	or	a5,a5,a3
44001a08:	5492                	lw	s1,36(sp)
44001a0a:	5902                	lw	s2,32(sp)
44001a0c:	49f2                	lw	s3,28(sp)
44001a0e:	4a62                	lw	s4,24(sp)
44001a10:	4ad2                	lw	s5,20(sp)
44001a12:	4b42                	lw	s6,16(sp)
44001a14:	4bb2                	lw	s7,12(sp)
44001a16:	4c22                	lw	s8,8(sp)
44001a18:	853a                	mv	a0,a4
44001a1a:	85be                	mv	a1,a5
44001a1c:	6145                	add	sp,sp,48
44001a1e:	8082                	ret
44001a20:	7ff00793          	li	a5,2047
44001a24:	4601                	li	a2,0
44001a26:	4701                	li	a4,0
44001a28:	bfd1                	j	440019fc <__divdf3+0x118>
44001a2a:	4681                	li	a3,0
44001a2c:	7ff00793          	li	a5,2047
44001a30:	00080637          	lui	a2,0x80
44001a34:	4701                	li	a4,0
44001a36:	b7d9                	j	440019fc <__divdf3+0x118>
44001a38:	00a4eab3          	or	s5,s1,a0
44001a3c:	0c0a8a63          	beqz	s5,44001b10 <__divdf3+0x22c>
44001a40:	32048b63          	beqz	s1,44001d76 <__divdf3+0x492>
44001a44:	8526                	mv	a0,s1
44001a46:	5f1010ef          	jal	44003836 <__clzsi2>
44001a4a:	872a                	mv	a4,a0
44001a4c:	ff550693          	add	a3,a0,-11
44001a50:	47f5                	li	a5,29
44001a52:	ff870b13          	add	s6,a4,-8
44001a56:	8f95                	sub	a5,a5,a3
44001a58:	016494b3          	sll	s1,s1,s6
44001a5c:	00f457b3          	srl	a5,s0,a5
44001a60:	0097eab3          	or	s5,a5,s1
44001a64:	01641b33          	sll	s6,s0,s6
44001a68:	c0d00993          	li	s3,-1011
44001a6c:	40e989b3          	sub	s3,s3,a4
44001a70:	4481                	li	s1,0
44001a72:	4c01                	li	s8,0
44001a74:	b5d9                	j	4400193a <__divdf3+0x56>
44001a76:	017468b3          	or	a7,s0,s7
44001a7a:	80198993          	add	s3,s3,-2047
44001a7e:	08089463          	bnez	a7,44001b06 <__divdf3+0x222>
44001a82:	0024e493          	or	s1,s1,2
44001a86:	4401                	li	s0,0
44001a88:	4609                	li	a2,2
44001a8a:	b5e5                	j	44001972 <__divdf3+0x8e>
44001a8c:	8952                	mv	s2,s4
44001a8e:	8456                	mv	s0,s5
44001a90:	88da                	mv	a7,s6
44001a92:	4789                	li	a5,2
44001a94:	3efc0163          	beq	s8,a5,44001e76 <__divdf3+0x592>
44001a98:	478d                	li	a5,3
44001a9a:	f8fc08e3          	beq	s8,a5,44001a2a <__divdf3+0x146>
44001a9e:	4785                	li	a5,1
44001aa0:	86ca                	mv	a3,s2
44001aa2:	f4fc0ae3          	beq	s8,a5,440019f6 <__divdf3+0x112>
44001aa6:	3ff98793          	add	a5,s3,1023
44001aaa:	20f05e63          	blez	a5,44001cc6 <__divdf3+0x3e2>
44001aae:	0078f713          	and	a4,a7,7
44001ab2:	3a071863          	bnez	a4,44001e62 <__divdf3+0x57e>
44001ab6:	00741713          	sll	a4,s0,0x7
44001aba:	00075863          	bgez	a4,44001aca <__divdf3+0x1e6>
44001abe:	ff0007b7          	lui	a5,0xff000
44001ac2:	17fd                	add	a5,a5,-1 # feffffff <_sidata+0xbafdcf0f>
44001ac4:	8c7d                	and	s0,s0,a5
44001ac6:	40098793          	add	a5,s3,1024
44001aca:	7fe00713          	li	a4,2046
44001ace:	f4f749e3          	blt	a4,a5,44001a20 <__divdf3+0x13c>
44001ad2:	0038d893          	srl	a7,a7,0x3
44001ad6:	01d41713          	sll	a4,s0,0x1d
44001ada:	00941613          	sll	a2,s0,0x9
44001ade:	01176733          	or	a4,a4,a7
44001ae2:	8231                	srl	a2,a2,0xc
44001ae4:	7ff7f793          	and	a5,a5,2047
44001ae8:	bf11                	j	440019fc <__divdf3+0x118>
44001aea:	8c32                	mv	s8,a2
44001aec:	b75d                	j	44001a92 <__divdf3+0x1ae>
44001aee:	8aa6                	mv	s5,s1
44001af0:	8b2a                	mv	s6,a0
44001af2:	44b1                	li	s1,12
44001af4:	7ff00993          	li	s3,2047
44001af8:	4c0d                	li	s8,3
44001afa:	b581                	j	4400193a <__divdf3+0x56>
44001afc:	0014e493          	or	s1,s1,1
44001b00:	4401                	li	s0,0
44001b02:	4605                	li	a2,1
44001b04:	b5bd                	j	44001972 <__divdf3+0x8e>
44001b06:	0034e493          	or	s1,s1,3
44001b0a:	88de                	mv	a7,s7
44001b0c:	460d                	li	a2,3
44001b0e:	b595                	j	44001972 <__divdf3+0x8e>
44001b10:	4b01                	li	s6,0
44001b12:	4491                	li	s1,4
44001b14:	4981                	li	s3,0
44001b16:	4c05                	li	s8,1
44001b18:	b50d                	j	4400193a <__divdf3+0x56>
44001b1a:	23546563          	bltu	s0,s5,44001d44 <__divdf3+0x460>
44001b1e:	228a8163          	beq	s5,s0,44001d40 <__divdf3+0x45c>
44001b22:	835a                	mv	t1,s6
44001b24:	19fd                	add	s3,s3,-1
44001b26:	87d6                	mv	a5,s5
44001b28:	4b01                	li	s6,0
44001b2a:	00841713          	sll	a4,s0,0x8
44001b2e:	01075513          	srl	a0,a4,0x10
44001b32:	02a7d433          	divu	s0,a5,a0
44001b36:	0188d613          	srl	a2,a7,0x18
44001b3a:	8e59                	or	a2,a2,a4
44001b3c:	01061813          	sll	a6,a2,0x10
44001b40:	01085813          	srl	a6,a6,0x10
44001b44:	00889593          	sll	a1,a7,0x8
44001b48:	01035713          	srl	a4,t1,0x10
44001b4c:	02a7f7b3          	remu	a5,a5,a0
44001b50:	028808b3          	mul	a7,a6,s0
44001b54:	07c2                	sll	a5,a5,0x10
44001b56:	8fd9                	or	a5,a5,a4
44001b58:	0117f863          	bgeu	a5,a7,44001b68 <__divdf3+0x284>
44001b5c:	97b2                	add	a5,a5,a2
44001b5e:	fff40713          	add	a4,s0,-1 # 7fffff <input_img-0x41800001>
44001b62:	24c7f963          	bgeu	a5,a2,44001db4 <__divdf3+0x4d0>
44001b66:	843a                	mv	s0,a4
44001b68:	411787b3          	sub	a5,a5,a7
44001b6c:	02a7d8b3          	divu	a7,a5,a0
44001b70:	01031713          	sll	a4,t1,0x10
44001b74:	8341                	srl	a4,a4,0x10
44001b76:	02a7f7b3          	remu	a5,a5,a0
44001b7a:	03180fb3          	mul	t6,a6,a7
44001b7e:	07c2                	sll	a5,a5,0x10
44001b80:	8f5d                	or	a4,a4,a5
44001b82:	01f77863          	bgeu	a4,t6,44001b92 <__divdf3+0x2ae>
44001b86:	9732                	add	a4,a4,a2
44001b88:	fff88793          	add	a5,a7,-1
44001b8c:	20c77f63          	bgeu	a4,a2,44001daa <__divdf3+0x4c6>
44001b90:	88be                	mv	a7,a5
44001b92:	0442                	sll	s0,s0,0x10
44001b94:	62c1                	lui	t0,0x10
44001b96:	01146433          	or	s0,s0,a7
44001b9a:	fff28313          	add	t1,t0,-1 # ffff <input_img-0x41ff0001>
44001b9e:	006478b3          	and	a7,s0,t1
44001ba2:	01045e93          	srl	t4,s0,0x10
44001ba6:	0105de13          	srl	t3,a1,0x10
44001baa:	0065f333          	and	t1,a1,t1
44001bae:	03130f33          	mul	t5,t1,a7
44001bb2:	41f70733          	sub	a4,a4,t6
44001bb6:	031e08b3          	mul	a7,t3,a7
44001bba:	010f5793          	srl	a5,t5,0x10
44001bbe:	026e8fb3          	mul	t6,t4,t1
44001bc2:	98fe                	add	a7,a7,t6
44001bc4:	97c6                	add	a5,a5,a7
44001bc6:	03ce8eb3          	mul	t4,t4,t3
44001bca:	01f7f363          	bgeu	a5,t6,44001bd0 <__divdf3+0x2ec>
44001bce:	9e96                	add	t4,t4,t0
44001bd0:	6fc1                	lui	t6,0x10
44001bd2:	1ffd                	add	t6,t6,-1 # ffff <input_img-0x41ff0001>
44001bd4:	0107d893          	srl	a7,a5,0x10
44001bd8:	01f7f7b3          	and	a5,a5,t6
44001bdc:	07c2                	sll	a5,a5,0x10
44001bde:	01ff7f33          	and	t5,t5,t6
44001be2:	98f6                	add	a7,a7,t4
44001be4:	97fa                	add	a5,a5,t5
44001be6:	13176b63          	bltu	a4,a7,44001d1c <__divdf3+0x438>
44001bea:	13170763          	beq	a4,a7,44001d18 <__divdf3+0x434>
44001bee:	40fb07b3          	sub	a5,s6,a5
44001bf2:	41170733          	sub	a4,a4,a7
44001bf6:	00fb3b33          	sltu	s6,s6,a5
44001bfa:	41670733          	sub	a4,a4,s6
44001bfe:	24e60463          	beq	a2,a4,44001e46 <__divdf3+0x562>
44001c02:	02a758b3          	divu	a7,a4,a0
44001c06:	0107de93          	srl	t4,a5,0x10
44001c0a:	02a77733          	remu	a4,a4,a0
44001c0e:	03180f33          	mul	t5,a6,a7
44001c12:	0742                	sll	a4,a4,0x10
44001c14:	00eee733          	or	a4,t4,a4
44001c18:	01e77b63          	bgeu	a4,t5,44001c2e <__divdf3+0x34a>
44001c1c:	9732                	add	a4,a4,a2
44001c1e:	fff88e93          	add	t4,a7,-1
44001c22:	24c76863          	bltu	a4,a2,44001e72 <__divdf3+0x58e>
44001c26:	25e77663          	bgeu	a4,t5,44001e72 <__divdf3+0x58e>
44001c2a:	18f9                	add	a7,a7,-2
44001c2c:	9732                	add	a4,a4,a2
44001c2e:	41e70733          	sub	a4,a4,t5
44001c32:	02a75eb3          	divu	t4,a4,a0
44001c36:	07c2                	sll	a5,a5,0x10
44001c38:	83c1                	srl	a5,a5,0x10
44001c3a:	02a77733          	remu	a4,a4,a0
44001c3e:	03d80833          	mul	a6,a6,t4
44001c42:	0742                	sll	a4,a4,0x10
44001c44:	8fd9                	or	a5,a5,a4
44001c46:	0107fb63          	bgeu	a5,a6,44001c5c <__divdf3+0x378>
44001c4a:	97b2                	add	a5,a5,a2
44001c4c:	fffe8713          	add	a4,t4,-1
44001c50:	20c7ef63          	bltu	a5,a2,44001e6e <__divdf3+0x58a>
44001c54:	2107fd63          	bgeu	a5,a6,44001e6e <__divdf3+0x58a>
44001c58:	1ef9                	add	t4,t4,-2
44001c5a:	97b2                	add	a5,a5,a2
44001c5c:	08c2                	sll	a7,a7,0x10
44001c5e:	01d8e8b3          	or	a7,a7,t4
44001c62:	01089513          	sll	a0,a7,0x10
44001c66:	0108df13          	srl	t5,a7,0x10
44001c6a:	8141                	srl	a0,a0,0x10
44001c6c:	02650eb3          	mul	t4,a0,t1
44001c70:	410787b3          	sub	a5,a5,a6
44001c74:	02ae0533          	mul	a0,t3,a0
44001c78:	010ed713          	srl	a4,t4,0x10
44001c7c:	026f0333          	mul	t1,t5,t1
44001c80:	951a                	add	a0,a0,t1
44001c82:	972a                	add	a4,a4,a0
44001c84:	03ee0e33          	mul	t3,t3,t5
44001c88:	00677463          	bgeu	a4,t1,44001c90 <__divdf3+0x3ac>
44001c8c:	6541                	lui	a0,0x10
44001c8e:	9e2a                	add	t3,t3,a0
44001c90:	6841                	lui	a6,0x10
44001c92:	187d                	add	a6,a6,-1 # ffff <input_img-0x41ff0001>
44001c94:	01075513          	srl	a0,a4,0x10
44001c98:	01077733          	and	a4,a4,a6
44001c9c:	0742                	sll	a4,a4,0x10
44001c9e:	010efeb3          	and	t4,t4,a6
44001ca2:	9572                	add	a0,a0,t3
44001ca4:	9776                	add	a4,a4,t4
44001ca6:	0ea7f763          	bgeu	a5,a0,44001d94 <__divdf3+0x4b0>
44001caa:	97b2                	add	a5,a5,a2
44001cac:	fff88313          	add	t1,a7,-1
44001cb0:	883e                	mv	a6,a5
44001cb2:	16c7e863          	bltu	a5,a2,44001e22 <__divdf3+0x53e>
44001cb6:	1ca7e663          	bltu	a5,a0,44001e82 <__divdf3+0x59e>
44001cba:	1ca78f63          	beq	a5,a0,44001e98 <__divdf3+0x5b4>
44001cbe:	889a                	mv	a7,t1
44001cc0:	0018e893          	or	a7,a7,1
44001cc4:	b3cd                	j	44001aa6 <__divdf3+0x1c2>
44001cc6:	4705                	li	a4,1
44001cc8:	d20792e3          	bnez	a5,440019ec <__divdf3+0x108>
44001ccc:	41e98993          	add	s3,s3,1054
44001cd0:	013897b3          	sll	a5,a7,s3
44001cd4:	00f037b3          	snez	a5,a5
44001cd8:	013419b3          	sll	s3,s0,s3
44001cdc:	0137e7b3          	or	a5,a5,s3
44001ce0:	00e8d8b3          	srl	a7,a7,a4
44001ce4:	00f8e8b3          	or	a7,a7,a5
44001ce8:	0078f793          	and	a5,a7,7
44001cec:	00e45433          	srl	s0,s0,a4
44001cf0:	cf81                	beqz	a5,44001d08 <__divdf3+0x424>
44001cf2:	00f8f793          	and	a5,a7,15
44001cf6:	4711                	li	a4,4
44001cf8:	00e78863          	beq	a5,a4,44001d08 <__divdf3+0x424>
44001cfc:	00488793          	add	a5,a7,4
44001d00:	0117b8b3          	sltu	a7,a5,a7
44001d04:	9446                	add	s0,s0,a7
44001d06:	88be                	mv	a7,a5
44001d08:	00841593          	sll	a1,s0,0x8
44001d0c:	4785                	li	a5,1
44001d0e:	4601                	li	a2,0
44001d10:	4701                	li	a4,0
44001d12:	ce05c5e3          	bltz	a1,440019fc <__divdf3+0x118>
44001d16:	a8dd                	j	44001e0c <__divdf3+0x528>
44001d18:	ecfb7be3          	bgeu	s6,a5,44001bee <__divdf3+0x30a>
44001d1c:	00bb0eb3          	add	t4,s6,a1
44001d20:	016ebf33          	sltu	t5,t4,s6
44001d24:	00cf0fb3          	add	t6,t5,a2
44001d28:	977e                	add	a4,a4,t6
44001d2a:	8b76                	mv	s6,t4
44001d2c:	fff40f93          	add	t6,s0,-1
44001d30:	06e67763          	bgeu	a2,a4,44001d9e <__divdf3+0x4ba>
44001d34:	11176163          	bltu	a4,a7,44001e36 <__divdf3+0x552>
44001d38:	0ee88d63          	beq	a7,a4,44001e32 <__divdf3+0x54e>
44001d3c:	847e                	mv	s0,t6
44001d3e:	bd45                	j	44001bee <__divdf3+0x30a>
44001d40:	df1b61e3          	bltu	s6,a7,44001b22 <__divdf3+0x23e>
44001d44:	001b5713          	srl	a4,s6,0x1
44001d48:	01fa9313          	sll	t1,s5,0x1f
44001d4c:	001ad793          	srl	a5,s5,0x1
44001d50:	00e36333          	or	t1,t1,a4
44001d54:	0b7e                	sll	s6,s6,0x1f
44001d56:	bbd1                	j	44001b2a <__divdf3+0x246>
44001d58:	855e                	mv	a0,s7
44001d5a:	2dd010ef          	jal	44003836 <__clzsi2>
44001d5e:	01550693          	add	a3,a0,21 # 10015 <input_img-0x41feffeb>
44001d62:	4771                	li	a4,28
44001d64:	02050793          	add	a5,a0,32
44001d68:	c6d752e3          	bge	a4,a3,440019cc <__divdf3+0xe8>
44001d6c:	1561                	add	a0,a0,-8
44001d6e:	4881                	li	a7,0
44001d70:	00ab9433          	sll	s0,s7,a0
44001d74:	b1bd                	j	440019e2 <__divdf3+0xfe>
44001d76:	2c1010ef          	jal	44003836 <__clzsi2>
44001d7a:	01550693          	add	a3,a0,21
44001d7e:	47f1                	li	a5,28
44001d80:	02050713          	add	a4,a0,32
44001d84:	ccd7d6e3          	bge	a5,a3,44001a50 <__divdf3+0x16c>
44001d88:	ff850793          	add	a5,a0,-8
44001d8c:	00f41ab3          	sll	s5,s0,a5
44001d90:	4b01                	li	s6,0
44001d92:	b9d9                	j	44001a68 <__divdf3+0x184>
44001d94:	f2a796e3          	bne	a5,a0,44001cc0 <__divdf3+0x3dc>
44001d98:	d00707e3          	beqz	a4,44001aa6 <__divdf3+0x1c2>
44001d9c:	b739                	j	44001caa <__divdf3+0x3c6>
44001d9e:	f8e61fe3          	bne	a2,a4,44001d3c <__divdf3+0x458>
44001da2:	f80f09e3          	beqz	t5,44001d34 <__divdf3+0x450>
44001da6:	847e                	mv	s0,t6
44001da8:	b599                	j	44001bee <__divdf3+0x30a>
44001daa:	dff773e3          	bgeu	a4,t6,44001b90 <__divdf3+0x2ac>
44001dae:	18f9                	add	a7,a7,-2
44001db0:	9732                	add	a4,a4,a2
44001db2:	b3c5                	j	44001b92 <__divdf3+0x2ae>
44001db4:	db17f9e3          	bgeu	a5,a7,44001b66 <__divdf3+0x282>
44001db8:	1479                	add	s0,s0,-2
44001dba:	97b2                	add	a5,a5,a2
44001dbc:	b375                	j	44001b68 <__divdf3+0x284>
44001dbe:	467d                	li	a2,31
44001dc0:	f0e656e3          	bge	a2,a4,44001ccc <__divdf3+0x3e8>
44001dc4:	5605                	li	a2,-31
44001dc6:	40f607b3          	sub	a5,a2,a5
44001dca:	02000613          	li	a2,32
44001dce:	00f457b3          	srl	a5,s0,a5
44001dd2:	00c70863          	beq	a4,a2,44001de2 <__divdf3+0x4fe>
44001dd6:	43e98993          	add	s3,s3,1086
44001dda:	013419b3          	sll	s3,s0,s3
44001dde:	0138e8b3          	or	a7,a7,s3
44001de2:	011038b3          	snez	a7,a7
44001de6:	00f8e8b3          	or	a7,a7,a5
44001dea:	0078f713          	and	a4,a7,7
44001dee:	4601                	li	a2,0
44001df0:	c31d                	beqz	a4,44001e16 <__divdf3+0x532>
44001df2:	00f8f793          	and	a5,a7,15
44001df6:	4711                	li	a4,4
44001df8:	4401                	li	s0,0
44001dfa:	00e78963          	beq	a5,a4,44001e0c <__divdf3+0x528>
44001dfe:	00488793          	add	a5,a7,4
44001e02:	0117b8b3          	sltu	a7,a5,a7
44001e06:	01103433          	snez	s0,a7
44001e0a:	88be                	mv	a7,a5
44001e0c:	00941613          	sll	a2,s0,0x9
44001e10:	01d41713          	sll	a4,s0,0x1d
44001e14:	8231                	srl	a2,a2,0xc
44001e16:	0038d893          	srl	a7,a7,0x3
44001e1a:	00e8e733          	or	a4,a7,a4
44001e1e:	4781                	li	a5,0
44001e20:	bef1                	j	440019fc <__divdf3+0x118>
44001e22:	889a                	mv	a7,t1
44001e24:	e8a81ee3          	bne	a6,a0,44001cc0 <__divdf3+0x3dc>
44001e28:	c6b70fe3          	beq	a4,a1,44001aa6 <__divdf3+0x1c2>
44001e2c:	0018e893          	or	a7,a7,1
44001e30:	b99d                	j	44001aa6 <__divdf3+0x1c2>
44001e32:	f0fef5e3          	bgeu	t4,a5,44001d3c <__divdf3+0x458>
44001e36:	9eae                	add	t4,t4,a1
44001e38:	00bebf33          	sltu	t5,t4,a1
44001e3c:	9f32                	add	t5,t5,a2
44001e3e:	1479                	add	s0,s0,-2
44001e40:	8b76                	mv	s6,t4
44001e42:	977a                	add	a4,a4,t5
44001e44:	b36d                	j	44001bee <__divdf3+0x30a>
44001e46:	c0200713          	li	a4,-1022
44001e4a:	3ff98793          	add	a5,s3,1023
44001e4e:	58fd                	li	a7,-1
44001e50:	e6e9cbe3          	blt	s3,a4,44001cc6 <__divdf3+0x3e2>
44001e54:	00488713          	add	a4,a7,4
44001e58:	011738b3          	sltu	a7,a4,a7
44001e5c:	9446                	add	s0,s0,a7
44001e5e:	88ba                	mv	a7,a4
44001e60:	b999                	j	44001ab6 <__divdf3+0x1d2>
44001e62:	00f8f713          	and	a4,a7,15
44001e66:	4611                	li	a2,4
44001e68:	c4c707e3          	beq	a4,a2,44001ab6 <__divdf3+0x1d2>
44001e6c:	b7e5                	j	44001e54 <__divdf3+0x570>
44001e6e:	8eba                	mv	t4,a4
44001e70:	b3f5                	j	44001c5c <__divdf3+0x378>
44001e72:	88f6                	mv	a7,t4
44001e74:	bb6d                	j	44001c2e <__divdf3+0x34a>
44001e76:	86ca                	mv	a3,s2
44001e78:	7ff00793          	li	a5,2047
44001e7c:	4601                	li	a2,0
44001e7e:	4701                	li	a4,0
44001e80:	beb5                	j	440019fc <__divdf3+0x118>
44001e82:	00159313          	sll	t1,a1,0x1
44001e86:	00b33833          	sltu	a6,t1,a1
44001e8a:	9832                	add	a6,a6,a2
44001e8c:	983e                	add	a6,a6,a5
44001e8e:	18f9                	add	a7,a7,-2
44001e90:	859a                	mv	a1,t1
44001e92:	f8a80be3          	beq	a6,a0,44001e28 <__divdf3+0x544>
44001e96:	b52d                	j	44001cc0 <__divdf3+0x3dc>
44001e98:	fee5e5e3          	bltu	a1,a4,44001e82 <__divdf3+0x59e>
44001e9c:	889a                	mv	a7,t1
44001e9e:	f8b717e3          	bne	a4,a1,44001e2c <__divdf3+0x548>
44001ea2:	b111                	j	44001aa6 <__divdf3+0x1c2>

44001ea4 <__eqdf2>:
44001ea4:	0145d713          	srl	a4,a1,0x14
44001ea8:	001007b7          	lui	a5,0x100
44001eac:	17fd                	add	a5,a5,-1 # fffff <input_img-0x41f00001>
44001eae:	0146d813          	srl	a6,a3,0x14
44001eb2:	7ff77713          	and	a4,a4,2047
44001eb6:	7ff00313          	li	t1,2047
44001eba:	00b7fe33          	and	t3,a5,a1
44001ebe:	88aa                	mv	a7,a0
44001ec0:	8ff5                	and	a5,a5,a3
44001ec2:	81fd                	srl	a1,a1,0x1f
44001ec4:	7ff87813          	and	a6,a6,2047
44001ec8:	82fd                	srl	a3,a3,0x1f
44001eca:	4505                	li	a0,1
44001ecc:	00670a63          	beq	a4,t1,44001ee0 <__eqdf2+0x3c>
44001ed0:	00680763          	beq	a6,t1,44001ede <__eqdf2+0x3a>
44001ed4:	01071463          	bne	a4,a6,44001edc <__eqdf2+0x38>
44001ed8:	02fe0063          	beq	t3,a5,44001ef8 <__eqdf2+0x54>
44001edc:	8082                	ret
44001ede:	8082                	ret
44001ee0:	fee81ee3          	bne	a6,a4,44001edc <__eqdf2+0x38>
44001ee4:	00fe67b3          	or	a5,t3,a5
44001ee8:	8fd1                	or	a5,a5,a2
44001eea:	0117e7b3          	or	a5,a5,a7
44001eee:	f7fd                	bnez	a5,44001edc <__eqdf2+0x38>
44001ef0:	8d95                	sub	a1,a1,a3
44001ef2:	00b03533          	snez	a0,a1
44001ef6:	8082                	ret
44001ef8:	fec892e3          	bne	a7,a2,44001edc <__eqdf2+0x38>
44001efc:	00d58863          	beq	a1,a3,44001f0c <__eqdf2+0x68>
44001f00:	ff71                	bnez	a4,44001edc <__eqdf2+0x38>
44001f02:	011e6e33          	or	t3,t3,a7
44001f06:	01c03533          	snez	a0,t3
44001f0a:	8082                	ret
44001f0c:	4501                	li	a0,0
44001f0e:	8082                	ret

44001f10 <__gedf2>:
44001f10:	0145d893          	srl	a7,a1,0x14
44001f14:	001007b7          	lui	a5,0x100
44001f18:	17fd                	add	a5,a5,-1 # fffff <input_img-0x41f00001>
44001f1a:	0146d713          	srl	a4,a3,0x14
44001f1e:	7ff8f893          	and	a7,a7,2047
44001f22:	7ff00e13          	li	t3,2047
44001f26:	00b7f333          	and	t1,a5,a1
44001f2a:	882a                	mv	a6,a0
44001f2c:	8eaa                	mv	t4,a0
44001f2e:	8ff5                	and	a5,a5,a3
44001f30:	81fd                	srl	a1,a1,0x1f
44001f32:	8f32                	mv	t5,a2
44001f34:	7ff77513          	and	a0,a4,2047
44001f38:	82fd                	srl	a3,a3,0x1f
44001f3a:	03c88d63          	beq	a7,t3,44001f74 <__gedf2+0x64>
44001f3e:	01c50e63          	beq	a0,t3,44001f5a <__gedf2+0x4a>
44001f42:	04089a63          	bnez	a7,44001f96 <__gedf2+0x86>
44001f46:	01036833          	or	a6,t1,a6
44001f4a:	e129                	bnez	a0,44001f8c <__gedf2+0x7c>
44001f4c:	8e5d                	or	a2,a2,a5
44001f4e:	ca25                	beqz	a2,44001fbe <__gedf2+0xae>
44001f50:	06081c63          	bnez	a6,44001fc8 <__gedf2+0xb8>
44001f54:	4505                	li	a0,1
44001f56:	c2b5                	beqz	a3,44001fba <__gedf2+0xaa>
44001f58:	8082                	ret
44001f5a:	8e5d                	or	a2,a2,a5
44001f5c:	e625                	bnez	a2,44001fc4 <__gedf2+0xb4>
44001f5e:	00089663          	bnez	a7,44001f6a <__gedf2+0x5a>
44001f62:	01036333          	or	t1,t1,a6
44001f66:	fe0307e3          	beqz	t1,44001f54 <__gedf2+0x44>
44001f6a:	04d58663          	beq	a1,a3,44001fb6 <__gedf2+0xa6>
44001f6e:	e5b1                	bnez	a1,44001fba <__gedf2+0xaa>
44001f70:	4505                	li	a0,1
44001f72:	8082                	ret
44001f74:	01036333          	or	t1,t1,a6
44001f78:	04031663          	bnez	t1,44001fc4 <__gedf2+0xb4>
44001f7c:	ff1519e3          	bne	a0,a7,44001f6e <__gedf2+0x5e>
44001f80:	8fd1                	or	a5,a5,a2
44001f82:	e3a9                	bnez	a5,44001fc4 <__gedf2+0xb4>
44001f84:	fed595e3          	bne	a1,a3,44001f6e <__gedf2+0x5e>
44001f88:	4501                	li	a0,0
44001f8a:	8082                	ret
44001f8c:	fc0804e3          	beqz	a6,44001f54 <__gedf2+0x44>
44001f90:	fcd59fe3          	bne	a1,a3,44001f6e <__gedf2+0x5e>
44001f94:	a00d                	j	44001fb6 <__gedf2+0xa6>
44001f96:	dd61                	beqz	a0,44001f6e <__gedf2+0x5e>
44001f98:	fcd59be3          	bne	a1,a3,44001f6e <__gedf2+0x5e>
44001f9c:	fd1549e3          	blt	a0,a7,44001f6e <__gedf2+0x5e>
44001fa0:	00a8cb63          	blt	a7,a0,44001fb6 <__gedf2+0xa6>
44001fa4:	fc67e5e3          	bltu	a5,t1,44001f6e <__gedf2+0x5e>
44001fa8:	00f31763          	bne	t1,a5,44001fb6 <__gedf2+0xa6>
44001fac:	fddf61e3          	bltu	t5,t4,44001f6e <__gedf2+0x5e>
44001fb0:	4501                	li	a0,0
44001fb2:	fbeef3e3          	bgeu	t4,t5,44001f58 <__gedf2+0x48>
44001fb6:	4505                	li	a0,1
44001fb8:	f1c5                	bnez	a1,44001f58 <__gedf2+0x48>
44001fba:	557d                	li	a0,-1
44001fbc:	8082                	ret
44001fbe:	fa0818e3          	bnez	a6,44001f6e <__gedf2+0x5e>
44001fc2:	8082                	ret
44001fc4:	5579                	li	a0,-2
44001fc6:	8082                	ret
44001fc8:	fcd58ee3          	beq	a1,a3,44001fa4 <__gedf2+0x94>
44001fcc:	b74d                	j	44001f6e <__gedf2+0x5e>

44001fce <__ledf2>:
44001fce:	0145d893          	srl	a7,a1,0x14
44001fd2:	001007b7          	lui	a5,0x100
44001fd6:	17fd                	add	a5,a5,-1 # fffff <input_img-0x41f00001>
44001fd8:	0146d713          	srl	a4,a3,0x14
44001fdc:	7ff8f893          	and	a7,a7,2047
44001fe0:	7ff00313          	li	t1,2047
44001fe4:	00b7fe33          	and	t3,a5,a1
44001fe8:	882a                	mv	a6,a0
44001fea:	8eaa                	mv	t4,a0
44001fec:	8ff5                	and	a5,a5,a3
44001fee:	81fd                	srl	a1,a1,0x1f
44001ff0:	8f32                	mv	t5,a2
44001ff2:	7ff77513          	and	a0,a4,2047
44001ff6:	82fd                	srl	a3,a3,0x1f
44001ff8:	02688e63          	beq	a7,t1,44002034 <__ledf2+0x66>
44001ffc:	00650e63          	beq	a0,t1,44002018 <__ledf2+0x4a>
44002000:	04089763          	bnez	a7,4400204e <__ledf2+0x80>
44002004:	010e6833          	or	a6,t3,a6
44002008:	e53d                	bnez	a0,44002076 <__ledf2+0xa8>
4400200a:	8e5d                	or	a2,a2,a5
4400200c:	ce25                	beqz	a2,44002084 <__ledf2+0xb6>
4400200e:	06081e63          	bnez	a6,4400208a <__ledf2+0xbc>
44002012:	4505                	li	a0,1
44002014:	ceb9                	beqz	a3,44002072 <__ledf2+0xa4>
44002016:	8082                	ret
44002018:	8e5d                	or	a2,a2,a5
4400201a:	4509                	li	a0,2
4400201c:	fe6d                	bnez	a2,44002016 <__ledf2+0x48>
4400201e:	00089663          	bnez	a7,4400202a <__ledf2+0x5c>
44002022:	010e6e33          	or	t3,t3,a6
44002026:	fe0e06e3          	beqz	t3,44002012 <__ledf2+0x44>
4400202a:	04d58263          	beq	a1,a3,4400206e <__ledf2+0xa0>
4400202e:	e1b1                	bnez	a1,44002072 <__ledf2+0xa4>
44002030:	4505                	li	a0,1
44002032:	8082                	ret
44002034:	010e6e33          	or	t3,t3,a6
44002038:	040e1463          	bnez	t3,44002080 <__ledf2+0xb2>
4400203c:	ff1519e3          	bne	a0,a7,4400202e <__ledf2+0x60>
44002040:	8fd1                	or	a5,a5,a2
44002042:	4509                	li	a0,2
44002044:	fbe9                	bnez	a5,44002016 <__ledf2+0x48>
44002046:	fed594e3          	bne	a1,a3,4400202e <__ledf2+0x60>
4400204a:	4501                	li	a0,0
4400204c:	8082                	ret
4400204e:	d165                	beqz	a0,4400202e <__ledf2+0x60>
44002050:	fcd59fe3          	bne	a1,a3,4400202e <__ledf2+0x60>
44002054:	fd154de3          	blt	a0,a7,4400202e <__ledf2+0x60>
44002058:	00a8cb63          	blt	a7,a0,4400206e <__ledf2+0xa0>
4400205c:	fdc7e9e3          	bltu	a5,t3,4400202e <__ledf2+0x60>
44002060:	00fe1763          	bne	t3,a5,4400206e <__ledf2+0xa0>
44002064:	fddf65e3          	bltu	t5,t4,4400202e <__ledf2+0x60>
44002068:	4501                	li	a0,0
4400206a:	fbeef6e3          	bgeu	t4,t5,44002016 <__ledf2+0x48>
4400206e:	4505                	li	a0,1
44002070:	f1dd                	bnez	a1,44002016 <__ledf2+0x48>
44002072:	557d                	li	a0,-1
44002074:	8082                	ret
44002076:	f8080ee3          	beqz	a6,44002012 <__ledf2+0x44>
4400207a:	fad59ae3          	bne	a1,a3,4400202e <__ledf2+0x60>
4400207e:	bfc5                	j	4400206e <__ledf2+0xa0>
44002080:	4509                	li	a0,2
44002082:	8082                	ret
44002084:	fa0815e3          	bnez	a6,4400202e <__ledf2+0x60>
44002088:	8082                	ret
4400208a:	fcd589e3          	beq	a1,a3,4400205c <__ledf2+0x8e>
4400208e:	b745                	j	4400202e <__ledf2+0x60>

44002090 <__muldf3>:
44002090:	7179                	add	sp,sp,-48
44002092:	0145d793          	srl	a5,a1,0x14
44002096:	d422                	sw	s0,40(sp)
44002098:	d226                	sw	s1,36(sp)
4400209a:	d04a                	sw	s2,32(sp)
4400209c:	ce4e                	sw	s3,28(sp)
4400209e:	ca56                	sw	s5,20(sp)
440020a0:	00c59493          	sll	s1,a1,0xc
440020a4:	d606                	sw	ra,44(sp)
440020a6:	cc52                	sw	s4,24(sp)
440020a8:	c85a                	sw	s6,16(sp)
440020aa:	c65e                	sw	s7,12(sp)
440020ac:	c462                	sw	s8,8(sp)
440020ae:	7ff7f793          	and	a5,a5,2047
440020b2:	842a                	mv	s0,a0
440020b4:	8ab2                	mv	s5,a2
440020b6:	89b6                	mv	s3,a3
440020b8:	80b1                	srl	s1,s1,0xc
440020ba:	01f5d913          	srl	s2,a1,0x1f
440020be:	32078f63          	beqz	a5,440023fc <__muldf3+0x36c>
440020c2:	7ff00713          	li	a4,2047
440020c6:	08e78663          	beq	a5,a4,44002152 <__muldf3+0xc2>
440020ca:	00349693          	sll	a3,s1,0x3
440020ce:	01d55713          	srl	a4,a0,0x1d
440020d2:	8f55                	or	a4,a4,a3
440020d4:	008006b7          	lui	a3,0x800
440020d8:	00d764b3          	or	s1,a4,a3
440020dc:	00351a13          	sll	s4,a0,0x3
440020e0:	c0178c13          	add	s8,a5,-1023
440020e4:	4b01                	li	s6,0
440020e6:	4b81                	li	s7,0
440020e8:	0149d793          	srl	a5,s3,0x14
440020ec:	00c99713          	sll	a4,s3,0xc
440020f0:	7ff7f793          	and	a5,a5,2047
440020f4:	8f56                	mv	t5,s5
440020f6:	00c75413          	srl	s0,a4,0xc
440020fa:	01f9d993          	srl	s3,s3,0x1f
440020fe:	cfbd                	beqz	a5,4400217c <__muldf3+0xec>
44002100:	7ff00713          	li	a4,2047
44002104:	0ee78f63          	beq	a5,a4,44002202 <__muldf3+0x172>
44002108:	00341713          	sll	a4,s0,0x3
4400210c:	01dad593          	srl	a1,s5,0x1d
44002110:	8dd9                	or	a1,a1,a4
44002112:	c0178793          	add	a5,a5,-1023
44002116:	00800737          	lui	a4,0x800
4400211a:	00e5e433          	or	s0,a1,a4
4400211e:	003a9f13          	sll	t5,s5,0x3
44002122:	018788b3          	add	a7,a5,s8
44002126:	4301                	li	t1,0
44002128:	4729                	li	a4,10
4400212a:	00188513          	add	a0,a7,1
4400212e:	09674963          	blt	a4,s6,440021c0 <__muldf3+0x130>
44002132:	013945b3          	xor	a1,s2,s3
44002136:	4789                	li	a5,2
44002138:	882e                	mv	a6,a1
4400213a:	0f67c863          	blt	a5,s6,4400222a <__muldf3+0x19a>
4400213e:	1b7d                	add	s6,s6,-1
44002140:	4705                	li	a4,1
44002142:	11676263          	bltu	a4,s6,44002246 <__muldf3+0x1b6>
44002146:	2ef30963          	beq	t1,a5,44002438 <__muldf3+0x3a8>
4400214a:	84a2                	mv	s1,s0
4400214c:	8a7a                	mv	s4,t5
4400214e:	8b9a                	mv	s7,t1
44002150:	a8bd                	j	440021ce <__muldf3+0x13e>
44002152:	00a4ea33          	or	s4,s1,a0
44002156:	2e0a1763          	bnez	s4,44002444 <__muldf3+0x3b4>
4400215a:	0149d793          	srl	a5,s3,0x14
4400215e:	00c99713          	sll	a4,s3,0xc
44002162:	7ff7f793          	and	a5,a5,2047
44002166:	4481                	li	s1,0
44002168:	4b21                	li	s6,8
4400216a:	7ff00c13          	li	s8,2047
4400216e:	4b89                	li	s7,2
44002170:	8f56                	mv	t5,s5
44002172:	00c75413          	srl	s0,a4,0xc
44002176:	01f9d993          	srl	s3,s3,0x1f
4400217a:	f3d9                	bnez	a5,44002100 <__muldf3+0x70>
4400217c:	015467b3          	or	a5,s0,s5
44002180:	2c078d63          	beqz	a5,4400245a <__muldf3+0x3ca>
44002184:	36040a63          	beqz	s0,440024f8 <__muldf3+0x468>
44002188:	8522                	mv	a0,s0
4400218a:	6ac010ef          	jal	44003836 <__clzsi2>
4400218e:	88aa                	mv	a7,a0
44002190:	ff550713          	add	a4,a0,-11
44002194:	47f5                	li	a5,29
44002196:	ff888f13          	add	t5,a7,-8
4400219a:	8f99                	sub	a5,a5,a4
4400219c:	00fad7b3          	srl	a5,s5,a5
440021a0:	01e41733          	sll	a4,s0,t5
440021a4:	00e7e433          	or	s0,a5,a4
440021a8:	01ea9f33          	sll	t5,s5,t5
440021ac:	411c08b3          	sub	a7,s8,a7
440021b0:	c0d88893          	add	a7,a7,-1011
440021b4:	4729                	li	a4,10
440021b6:	4301                	li	t1,0
440021b8:	00188513          	add	a0,a7,1
440021bc:	f7675be3          	bge	a4,s6,44002132 <__muldf3+0xa2>
440021c0:	85ca                	mv	a1,s2
440021c2:	4789                	li	a5,2
440021c4:	26fb8a63          	beq	s7,a5,44002438 <__muldf3+0x3a8>
440021c8:	478d                	li	a5,3
440021ca:	36fb8363          	beq	s7,a5,44002530 <__muldf3+0x4a0>
440021ce:	4785                	li	a5,1
440021d0:	882e                	mv	a6,a1
440021d2:	34fb9863          	bne	s7,a5,44002522 <__muldf3+0x492>
440021d6:	4781                	li	a5,0
440021d8:	4681                	li	a3,0
440021da:	4701                	li	a4,0
440021dc:	50b2                	lw	ra,44(sp)
440021de:	5422                	lw	s0,40(sp)
440021e0:	07d2                	sll	a5,a5,0x14
440021e2:	8fd5                	or	a5,a5,a3
440021e4:	01f81693          	sll	a3,a6,0x1f
440021e8:	8fd5                	or	a5,a5,a3
440021ea:	5492                	lw	s1,36(sp)
440021ec:	5902                	lw	s2,32(sp)
440021ee:	49f2                	lw	s3,28(sp)
440021f0:	4a62                	lw	s4,24(sp)
440021f2:	4ad2                	lw	s5,20(sp)
440021f4:	4b42                	lw	s6,16(sp)
440021f6:	4bb2                	lw	s7,12(sp)
440021f8:	4c22                	lw	s8,8(sp)
440021fa:	853a                	mv	a0,a4
440021fc:	85be                	mv	a1,a5
440021fe:	6145                	add	sp,sp,48
44002200:	8082                	ret
44002202:	01546733          	or	a4,s0,s5
44002206:	7ffc0893          	add	a7,s8,2047
4400220a:	24070f63          	beqz	a4,44002468 <__muldf3+0x3d8>
4400220e:	6705                	lui	a4,0x1
44002210:	01394833          	xor	a6,s2,s3
44002214:	80070713          	add	a4,a4,-2048 # 800 <input_img-0x41fff800>
44002218:	003b6b13          	or	s6,s6,3
4400221c:	46a9                	li	a3,10
4400221e:	85c2                	mv	a1,a6
44002220:	00ec0533          	add	a0,s8,a4
44002224:	2b66c463          	blt	a3,s6,440024cc <__muldf3+0x43c>
44002228:	430d                	li	t1,3
4400222a:	4605                	li	a2,1
4400222c:	01661633          	sll	a2,a2,s6
44002230:	53067713          	and	a4,a2,1328
44002234:	f759                	bnez	a4,440021c2 <__muldf3+0x132>
44002236:	24067793          	and	a5,a2,576
4400223a:	2c079e63          	bnez	a5,44002516 <__muldf3+0x486>
4400223e:	08867613          	and	a2,a2,136
44002242:	22061963          	bnez	a2,44002474 <__muldf3+0x3e4>
44002246:	6fc1                	lui	t6,0x10
44002248:	ffff8e93          	add	t4,t6,-1 # ffff <input_img-0x41ff0001>
4400224c:	01da77b3          	and	a5,s4,t4
44002250:	010a5693          	srl	a3,s4,0x10
44002254:	01df7eb3          	and	t4,t5,t4
44002258:	010f5e13          	srl	t3,t5,0x10
4400225c:	03d78733          	mul	a4,a5,t4
44002260:	03d68333          	mul	t1,a3,t4
44002264:	01075593          	srl	a1,a4,0x10
44002268:	02fe0633          	mul	a2,t3,a5
4400226c:	961a                	add	a2,a2,t1
4400226e:	95b2                	add	a1,a1,a2
44002270:	03c68f33          	mul	t5,a3,t3
44002274:	0065f363          	bgeu	a1,t1,4400227a <__muldf3+0x1ea>
44002278:	9f7e                	add	t5,t5,t6
4400227a:	63c1                	lui	t2,0x10
4400227c:	fff38613          	add	a2,t2,-1 # ffff <input_img-0x41ff0001>
44002280:	00c5f333          	and	t1,a1,a2
44002284:	01045f93          	srl	t6,s0,0x10
44002288:	8f71                	and	a4,a4,a2
4400228a:	8c71                	and	s0,s0,a2
4400228c:	0342                	sll	t1,t1,0x10
4400228e:	028782b3          	mul	t0,a5,s0
44002292:	933a                	add	t1,t1,a4
44002294:	81c1                	srl	a1,a1,0x10
44002296:	02868733          	mul	a4,a3,s0
4400229a:	0102d613          	srl	a2,t0,0x10
4400229e:	02ff87b3          	mul	a5,t6,a5
440022a2:	97ba                	add	a5,a5,a4
440022a4:	963e                	add	a2,a2,a5
440022a6:	03f687b3          	mul	a5,a3,t6
440022aa:	00e67363          	bgeu	a2,a4,440022b0 <__muldf3+0x220>
440022ae:	979e                	add	a5,a5,t2
440022b0:	6941                	lui	s2,0x10
440022b2:	fff90993          	add	s3,s2,-1 # ffff <input_img-0x41ff0001>
440022b6:	01367733          	and	a4,a2,s3
440022ba:	0104d393          	srl	t2,s1,0x10
440022be:	0134f6b3          	and	a3,s1,s3
440022c2:	0132f2b3          	and	t0,t0,s3
440022c6:	0742                	sll	a4,a4,0x10
440022c8:	02de84b3          	mul	s1,t4,a3
440022cc:	9716                	add	a4,a4,t0
440022ce:	8241                	srl	a2,a2,0x10
440022d0:	963e                	add	a2,a2,a5
440022d2:	95ba                	add	a1,a1,a4
440022d4:	02de02b3          	mul	t0,t3,a3
440022d8:	0104d793          	srl	a5,s1,0x10
440022dc:	03d38eb3          	mul	t4,t2,t4
440022e0:	92f6                	add	t0,t0,t4
440022e2:	9796                	add	a5,a5,t0
440022e4:	027e0e33          	mul	t3,t3,t2
440022e8:	01d7f363          	bgeu	a5,t4,440022ee <__muldf3+0x25e>
440022ec:	9e4a                	add	t3,t3,s2
440022ee:	69c1                	lui	s3,0x10
440022f0:	fff98e93          	add	t4,s3,-1 # ffff <input_img-0x41ff0001>
440022f4:	01d7f2b3          	and	t0,a5,t4
440022f8:	83c1                	srl	a5,a5,0x10
440022fa:	97f2                	add	a5,a5,t3
440022fc:	01d4feb3          	and	t4,s1,t4
44002300:	02c2                	sll	t0,t0,0x10
44002302:	02d40933          	mul	s2,s0,a3
44002306:	92f6                	add	t0,t0,t4
44002308:	02838433          	mul	s0,t2,s0
4400230c:	01095e13          	srl	t3,s2,0x10
44002310:	02df86b3          	mul	a3,t6,a3
44002314:	96a2                	add	a3,a3,s0
44002316:	9e36                	add	t3,t3,a3
44002318:	027f8eb3          	mul	t4,t6,t2
4400231c:	008e7363          	bgeu	t3,s0,44002322 <__muldf3+0x292>
44002320:	9ece                	add	t4,t4,s3
44002322:	6fc1                	lui	t6,0x10
44002324:	1ffd                	add	t6,t6,-1 # ffff <input_img-0x41ff0001>
44002326:	01fe76b3          	and	a3,t3,t6
4400232a:	06c2                	sll	a3,a3,0x10
4400232c:	01f97933          	and	s2,s2,t6
44002330:	95fa                	add	a1,a1,t5
44002332:	96ca                	add	a3,a3,s2
44002334:	9636                	add	a2,a2,a3
44002336:	00e5b733          	sltu	a4,a1,a4
4400233a:	9732                	add	a4,a4,a2
4400233c:	00558f33          	add	t5,a1,t0
44002340:	97ba                	add	a5,a5,a4
44002342:	00bf35b3          	sltu	a1,t5,a1
44002346:	95be                	add	a1,a1,a5
44002348:	00d636b3          	sltu	a3,a2,a3
4400234c:	00c73633          	sltu	a2,a4,a2
44002350:	8ed1                	or	a3,a3,a2
44002352:	00e7b733          	sltu	a4,a5,a4
44002356:	010e5e13          	srl	t3,t3,0x10
4400235a:	00f5b7b3          	sltu	a5,a1,a5
4400235e:	96f2                	add	a3,a3,t3
44002360:	8f5d                	or	a4,a4,a5
44002362:	009f1793          	sll	a5,t5,0x9
44002366:	9736                	add	a4,a4,a3
44002368:	0067e7b3          	or	a5,a5,t1
4400236c:	9776                	add	a4,a4,t4
4400236e:	00f037b3          	snez	a5,a5
44002372:	017f5613          	srl	a2,t5,0x17
44002376:	0726                	sll	a4,a4,0x9
44002378:	0175d693          	srl	a3,a1,0x17
4400237c:	8fd1                	or	a5,a5,a2
4400237e:	05a6                	sll	a1,a1,0x9
44002380:	00b7ea33          	or	s4,a5,a1
44002384:	00771793          	sll	a5,a4,0x7
44002388:	00d764b3          	or	s1,a4,a3
4400238c:	0007dd63          	bgez	a5,440023a6 <__muldf3+0x316>
44002390:	001a5713          	srl	a4,s4,0x1
44002394:	001a7793          	and	a5,s4,1
44002398:	01f49693          	sll	a3,s1,0x1f
4400239c:	8fd9                	or	a5,a5,a4
4400239e:	00d7ea33          	or	s4,a5,a3
440023a2:	8085                	srl	s1,s1,0x1
440023a4:	88aa                	mv	a7,a0
440023a6:	3ff88613          	add	a2,a7,1023
440023aa:	0cc05a63          	blez	a2,4400247e <__muldf3+0x3ee>
440023ae:	007a7793          	and	a5,s4,7
440023b2:	cf81                	beqz	a5,440023ca <__muldf3+0x33a>
440023b4:	00fa7793          	and	a5,s4,15
440023b8:	4711                	li	a4,4
440023ba:	00e78863          	beq	a5,a4,440023ca <__muldf3+0x33a>
440023be:	004a0713          	add	a4,s4,4
440023c2:	014737b3          	sltu	a5,a4,s4
440023c6:	94be                	add	s1,s1,a5
440023c8:	8a3a                	mv	s4,a4
440023ca:	00749793          	sll	a5,s1,0x7
440023ce:	0007d863          	bgez	a5,440023de <__muldf3+0x34e>
440023d2:	ff0007b7          	lui	a5,0xff000
440023d6:	17fd                	add	a5,a5,-1 # feffffff <_sidata+0xbafdcf0f>
440023d8:	8cfd                	and	s1,s1,a5
440023da:	40088613          	add	a2,a7,1024
440023de:	7fe00793          	li	a5,2046
440023e2:	14c7c263          	blt	a5,a2,44002526 <__muldf3+0x496>
440023e6:	003a5793          	srl	a5,s4,0x3
440023ea:	01d49713          	sll	a4,s1,0x1d
440023ee:	00949693          	sll	a3,s1,0x9
440023f2:	8f5d                	or	a4,a4,a5
440023f4:	82b1                	srl	a3,a3,0xc
440023f6:	7ff67793          	and	a5,a2,2047
440023fa:	b3cd                	j	440021dc <__muldf3+0x14c>
440023fc:	00a4ea33          	or	s4,s1,a0
44002400:	040a0863          	beqz	s4,44002450 <__muldf3+0x3c0>
44002404:	cce1                	beqz	s1,440024dc <__muldf3+0x44c>
44002406:	8526                	mv	a0,s1
44002408:	42e010ef          	jal	44003836 <__clzsi2>
4400240c:	862a                	mv	a2,a0
4400240e:	ff550693          	add	a3,a0,-11
44002412:	4775                	li	a4,29
44002414:	ff860793          	add	a5,a2,-8 # 7fff8 <input_img-0x41f80008>
44002418:	8f15                	sub	a4,a4,a3
4400241a:	00e45733          	srl	a4,s0,a4
4400241e:	00f496b3          	sll	a3,s1,a5
44002422:	00d764b3          	or	s1,a4,a3
44002426:	00f41a33          	sll	s4,s0,a5
4400242a:	c0d00793          	li	a5,-1011
4400242e:	40c78c33          	sub	s8,a5,a2
44002432:	4b01                	li	s6,0
44002434:	4b81                	li	s7,0
44002436:	b94d                	j	440020e8 <__muldf3+0x58>
44002438:	882e                	mv	a6,a1
4400243a:	7ff00793          	li	a5,2047
4400243e:	4681                	li	a3,0
44002440:	4701                	li	a4,0
44002442:	bb69                	j	440021dc <__muldf3+0x14c>
44002444:	8a2a                	mv	s4,a0
44002446:	4b31                	li	s6,12
44002448:	7ff00c13          	li	s8,2047
4400244c:	4b8d                	li	s7,3
4400244e:	b969                	j	440020e8 <__muldf3+0x58>
44002450:	4481                	li	s1,0
44002452:	4b11                	li	s6,4
44002454:	4c01                	li	s8,0
44002456:	4b85                	li	s7,1
44002458:	b941                	j	440020e8 <__muldf3+0x58>
4400245a:	001b6b13          	or	s6,s6,1
4400245e:	88e2                	mv	a7,s8
44002460:	4401                	li	s0,0
44002462:	4f01                	li	t5,0
44002464:	4305                	li	t1,1
44002466:	b1c9                	j	44002128 <__muldf3+0x98>
44002468:	002b6b13          	or	s6,s6,2
4400246c:	4401                	li	s0,0
4400246e:	4f01                	li	t5,0
44002470:	4309                	li	t1,2
44002472:	b95d                	j	44002128 <__muldf3+0x98>
44002474:	84a2                	mv	s1,s0
44002476:	8a7a                	mv	s4,t5
44002478:	8b9a                	mv	s7,t1
4400247a:	85ce                	mv	a1,s3
4400247c:	b399                	j	440021c2 <__muldf3+0x132>
4400247e:	4705                	li	a4,1
44002480:	ee5d                	bnez	a2,4400253e <__muldf3+0x4ae>
44002482:	41e88893          	add	a7,a7,1054
44002486:	011a1633          	sll	a2,s4,a7
4400248a:	00c03633          	snez	a2,a2
4400248e:	011498b3          	sll	a7,s1,a7
44002492:	00ea57b3          	srl	a5,s4,a4
44002496:	01166633          	or	a2,a2,a7
4400249a:	8e5d                	or	a2,a2,a5
4400249c:	00767793          	and	a5,a2,7
440024a0:	00e4d5b3          	srl	a1,s1,a4
440024a4:	cf81                	beqz	a5,440024bc <__muldf3+0x42c>
440024a6:	00f67793          	and	a5,a2,15
440024aa:	4711                	li	a4,4
440024ac:	00e78863          	beq	a5,a4,440024bc <__muldf3+0x42c>
440024b0:	00460793          	add	a5,a2,4
440024b4:	00c7b633          	sltu	a2,a5,a2
440024b8:	95b2                	add	a1,a1,a2
440024ba:	863e                	mv	a2,a5
440024bc:	00859513          	sll	a0,a1,0x8
440024c0:	4785                	li	a5,1
440024c2:	4681                	li	a3,0
440024c4:	4701                	li	a4,0
440024c6:	d0054be3          	bltz	a0,440021dc <__muldf3+0x14c>
440024ca:	a0e1                	j	44002592 <__muldf3+0x502>
440024cc:	473d                	li	a4,15
440024ce:	0ceb1b63          	bne	s6,a4,440025a4 <__muldf3+0x514>
440024d2:	4801                	li	a6,0
440024d4:	000806b7          	lui	a3,0x80
440024d8:	4701                	li	a4,0
440024da:	b309                	j	440021dc <__muldf3+0x14c>
440024dc:	35a010ef          	jal	44003836 <__clzsi2>
440024e0:	01550693          	add	a3,a0,21
440024e4:	47f1                	li	a5,28
440024e6:	02050613          	add	a2,a0,32
440024ea:	f2d7d4e3          	bge	a5,a3,44002412 <__muldf3+0x382>
440024ee:	1561                	add	a0,a0,-8
440024f0:	4a01                	li	s4,0
440024f2:	00a414b3          	sll	s1,s0,a0
440024f6:	bf15                	j	4400242a <__muldf3+0x39a>
440024f8:	8556                	mv	a0,s5
440024fa:	33c010ef          	jal	44003836 <__clzsi2>
440024fe:	01550713          	add	a4,a0,21
44002502:	47f1                	li	a5,28
44002504:	02050893          	add	a7,a0,32
44002508:	c8e7d6e3          	bge	a5,a4,44002194 <__muldf3+0x104>
4400250c:	1561                	add	a0,a0,-8
4400250e:	4f01                	li	t5,0
44002510:	00aa9433          	sll	s0,s5,a0
44002514:	b961                	j	440021ac <__muldf3+0x11c>
44002516:	4801                	li	a6,0
44002518:	7ff00793          	li	a5,2047
4400251c:	000806b7          	lui	a3,0x80
44002520:	b975                	j	440021dc <__muldf3+0x14c>
44002522:	88aa                	mv	a7,a0
44002524:	b549                	j	440023a6 <__muldf3+0x316>
44002526:	7ff00793          	li	a5,2047
4400252a:	4681                	li	a3,0
4400252c:	4701                	li	a4,0
4400252e:	b17d                	j	440021dc <__muldf3+0x14c>
44002530:	4801                	li	a6,0
44002532:	7ff00793          	li	a5,2047
44002536:	000806b7          	lui	a3,0x80
4400253a:	4701                	li	a4,0
4400253c:	b145                	j	440021dc <__muldf3+0x14c>
4400253e:	8f11                	sub	a4,a4,a2
44002540:	03800793          	li	a5,56
44002544:	c8e7c9e3          	blt	a5,a4,440021d6 <__muldf3+0x146>
44002548:	47fd                	li	a5,31
4400254a:	f2e7dce3          	bge	a5,a4,44002482 <__muldf3+0x3f2>
4400254e:	5785                	li	a5,-31
44002550:	8f91                	sub	a5,a5,a2
44002552:	02000693          	li	a3,32
44002556:	00f4d7b3          	srl	a5,s1,a5
4400255a:	00d70863          	beq	a4,a3,4400256a <__muldf3+0x4da>
4400255e:	43e88893          	add	a7,a7,1086
44002562:	011498b3          	sll	a7,s1,a7
44002566:	011a6a33          	or	s4,s4,a7
4400256a:	01403633          	snez	a2,s4
4400256e:	8e5d                	or	a2,a2,a5
44002570:	00767713          	and	a4,a2,7
44002574:	4681                	li	a3,0
44002576:	c31d                	beqz	a4,4400259c <__muldf3+0x50c>
44002578:	00f67793          	and	a5,a2,15
4400257c:	4711                	li	a4,4
4400257e:	4581                	li	a1,0
44002580:	00e78963          	beq	a5,a4,44002592 <__muldf3+0x502>
44002584:	00460793          	add	a5,a2,4
44002588:	00c7b633          	sltu	a2,a5,a2
4400258c:	00c035b3          	snez	a1,a2
44002590:	863e                	mv	a2,a5
44002592:	00959693          	sll	a3,a1,0x9
44002596:	01d59713          	sll	a4,a1,0x1d
4400259a:	82b1                	srl	a3,a3,0xc
4400259c:	820d                	srl	a2,a2,0x3
4400259e:	8f51                	or	a4,a4,a2
440025a0:	4781                	li	a5,0
440025a2:	b92d                	j	440021dc <__muldf3+0x14c>
440025a4:	84a2                	mv	s1,s0
440025a6:	8a56                	mv	s4,s5
440025a8:	4b8d                	li	s7,3
440025aa:	85ce                	mv	a1,s3
440025ac:	b919                	j	440021c2 <__muldf3+0x132>

440025ae <__subdf3>:
440025ae:	001007b7          	lui	a5,0x100
440025b2:	17fd                	add	a5,a5,-1 # fffff <input_img-0x41f00001>
440025b4:	1101                	add	sp,sp,-32
440025b6:	00b7f8b3          	and	a7,a5,a1
440025ba:	00d7f833          	and	a6,a5,a3
440025be:	0146d793          	srl	a5,a3,0x14
440025c2:	088e                	sll	a7,a7,0x3
440025c4:	cc22                	sw	s0,24(sp)
440025c6:	c64e                	sw	s3,12(sp)
440025c8:	01f5d413          	srl	s0,a1,0x1f
440025cc:	0145d993          	srl	s3,a1,0x14
440025d0:	01d55713          	srl	a4,a0,0x1d
440025d4:	080e                	sll	a6,a6,0x3
440025d6:	01d65593          	srl	a1,a2,0x1d
440025da:	ce06                	sw	ra,28(sp)
440025dc:	ca26                	sw	s1,20(sp)
440025de:	c84a                	sw	s2,16(sp)
440025e0:	7ff7ff13          	and	t5,a5,2047
440025e4:	7ff00313          	li	t1,2047
440025e8:	01176733          	or	a4,a4,a7
440025ec:	7ff9f993          	and	s3,s3,2047
440025f0:	8e22                	mv	t3,s0
440025f2:	00351893          	sll	a7,a0,0x3
440025f6:	82fd                	srl	a3,a3,0x1f
440025f8:	0105e5b3          	or	a1,a1,a6
440025fc:	00361e93          	sll	t4,a2,0x3
44002600:	1c6f0163          	beq	t5,t1,440027c2 <__subdf3+0x214>
44002604:	0016c693          	xor	a3,a3,1
44002608:	41e987b3          	sub	a5,s3,t5
4400260c:	12d40263          	beq	s0,a3,44002730 <__subdf3+0x182>
44002610:	68f05963          	blez	a5,44002ca2 <__subdf3+0x6f4>
44002614:	1e0f0763          	beqz	t5,44002802 <__subdf3+0x254>
44002618:	32698563          	beq	s3,t1,44002942 <__subdf3+0x394>
4400261c:	03800693          	li	a3,56
44002620:	4505                	li	a0,1
44002622:	02f6c863          	blt	a3,a5,44002652 <__subdf3+0xa4>
44002626:	008006b7          	lui	a3,0x800
4400262a:	8dd5                	or	a1,a1,a3
4400262c:	46fd                	li	a3,31
4400262e:	40f6cb63          	blt	a3,a5,44002a44 <__subdf3+0x496>
44002632:	02000693          	li	a3,32
44002636:	8e9d                	sub	a3,a3,a5
44002638:	00d59533          	sll	a0,a1,a3
4400263c:	00fed633          	srl	a2,t4,a5
44002640:	00de96b3          	sll	a3,t4,a3
44002644:	8d51                	or	a0,a0,a2
44002646:	00d036b3          	snez	a3,a3
4400264a:	00f5d7b3          	srl	a5,a1,a5
4400264e:	8d55                	or	a0,a0,a3
44002650:	8f1d                	sub	a4,a4,a5
44002652:	40a88533          	sub	a0,a7,a0
44002656:	00a8b633          	sltu	a2,a7,a0
4400265a:	84aa                	mv	s1,a0
4400265c:	40c70933          	sub	s2,a4,a2
44002660:	00891793          	sll	a5,s2,0x8
44002664:	2c07d463          	bgez	a5,4400292c <__subdf3+0x37e>
44002668:	008007b7          	lui	a5,0x800
4400266c:	17fd                	add	a5,a5,-1 # 7fffff <input_img-0x41800001>
4400266e:	00f97933          	and	s2,s2,a5
44002672:	26090863          	beqz	s2,440028e2 <__subdf3+0x334>
44002676:	854a                	mv	a0,s2
44002678:	1be010ef          	jal	44003836 <__clzsi2>
4400267c:	ff850793          	add	a5,a0,-8
44002680:	02000693          	li	a3,32
44002684:	40f68733          	sub	a4,a3,a5
44002688:	00e4d733          	srl	a4,s1,a4
4400268c:	00f91933          	sll	s2,s2,a5
44002690:	01276733          	or	a4,a4,s2
44002694:	00f494b3          	sll	s1,s1,a5
44002698:	3337cd63          	blt	a5,s3,440029d2 <__subdf3+0x424>
4400269c:	413787b3          	sub	a5,a5,s3
440026a0:	0785                	add	a5,a5,1
440026a2:	8e9d                	sub	a3,a3,a5
440026a4:	00d49633          	sll	a2,s1,a3
440026a8:	00f4d933          	srl	s2,s1,a5
440026ac:	00c03633          	snez	a2,a2
440026b0:	00c96633          	or	a2,s2,a2
440026b4:	00d716b3          	sll	a3,a4,a3
440026b8:	00c6e4b3          	or	s1,a3,a2
440026bc:	00f75933          	srl	s2,a4,a5
440026c0:	4981                	li	s3,0
440026c2:	0074f793          	and	a5,s1,7
440026c6:	cf81                	beqz	a5,440026de <__subdf3+0x130>
440026c8:	00f4f793          	and	a5,s1,15
440026cc:	4711                	li	a4,4
440026ce:	00e78863          	beq	a5,a4,440026de <__subdf3+0x130>
440026d2:	00448793          	add	a5,s1,4
440026d6:	0097b533          	sltu	a0,a5,s1
440026da:	992a                	add	s2,s2,a0
440026dc:	84be                	mv	s1,a5
440026de:	00891793          	sll	a5,s2,0x8
440026e2:	5607de63          	bgez	a5,44002c5e <__subdf3+0x6b0>
440026e6:	00198793          	add	a5,s3,1
440026ea:	7ff00713          	li	a4,2047
440026ee:	1ee78363          	beq	a5,a4,440028d4 <__subdf3+0x326>
440026f2:	ff800737          	lui	a4,0xff800
440026f6:	177d                	add	a4,a4,-1 # ff7fffff <_sidata+0xbb7dcf0f>
440026f8:	00e97733          	and	a4,s2,a4
440026fc:	7ff7f793          	and	a5,a5,2047
44002700:	01d71813          	sll	a6,a4,0x1d
44002704:	0034d513          	srl	a0,s1,0x3
44002708:	0726                	sll	a4,a4,0x9
4400270a:	00a86833          	or	a6,a6,a0
4400270e:	8331                	srl	a4,a4,0xc
44002710:	00147e13          	and	t3,s0,1
44002714:	40f2                	lw	ra,28(sp)
44002716:	4462                	lw	s0,24(sp)
44002718:	07d2                	sll	a5,a5,0x14
4400271a:	8fd9                	or	a5,a5,a4
4400271c:	01fe1713          	sll	a4,t3,0x1f
44002720:	8fd9                	or	a5,a5,a4
44002722:	44d2                	lw	s1,20(sp)
44002724:	4942                	lw	s2,16(sp)
44002726:	49b2                	lw	s3,12(sp)
44002728:	8542                	mv	a0,a6
4400272a:	85be                	mv	a1,a5
4400272c:	6105                	add	sp,sp,32
4400272e:	8082                	ret
44002730:	5af05563          	blez	a5,44002cda <__subdf3+0x72c>
44002734:	180f1563          	bnez	t5,440028be <__subdf3+0x310>
44002738:	01d5e6b3          	or	a3,a1,t4
4400273c:	20068b63          	beqz	a3,44002952 <__subdf3+0x3a4>
44002740:	fff78693          	add	a3,a5,-1
44002744:	3a068263          	beqz	a3,44002ae8 <__subdf3+0x53a>
44002748:	1e678d63          	beq	a5,t1,44002942 <__subdf3+0x394>
4400274c:	03800793          	li	a5,56
44002750:	4905                	li	s2,1
44002752:	02d7c863          	blt	a5,a3,44002782 <__subdf3+0x1d4>
44002756:	87b6                	mv	a5,a3
44002758:	46fd                	li	a3,31
4400275a:	3af6cf63          	blt	a3,a5,44002b18 <__subdf3+0x56a>
4400275e:	02000693          	li	a3,32
44002762:	8e9d                	sub	a3,a3,a5
44002764:	00d59933          	sll	s2,a1,a3
44002768:	00fed633          	srl	a2,t4,a5
4400276c:	00de96b3          	sll	a3,t4,a3
44002770:	00c96933          	or	s2,s2,a2
44002774:	00d036b3          	snez	a3,a3
44002778:	00f5d7b3          	srl	a5,a1,a5
4400277c:	00d96933          	or	s2,s2,a3
44002780:	973e                	add	a4,a4,a5
44002782:	01190633          	add	a2,s2,a7
44002786:	01263933          	sltu	s2,a2,s2
4400278a:	84b2                	mv	s1,a2
4400278c:	993a                	add	s2,s2,a4
4400278e:	00891793          	sll	a5,s2,0x8
44002792:	1807dd63          	bgez	a5,4400292c <__subdf3+0x37e>
44002796:	0985                	add	s3,s3,1
44002798:	7ff00793          	li	a5,2047
4400279c:	12f98c63          	beq	s3,a5,440028d4 <__subdf3+0x326>
440027a0:	ff8007b7          	lui	a5,0xff800
440027a4:	17fd                	add	a5,a5,-1 # ff7fffff <_sidata+0xbb7dcf0f>
440027a6:	0014f513          	and	a0,s1,1
440027aa:	00f977b3          	and	a5,s2,a5
440027ae:	0014d713          	srl	a4,s1,0x1
440027b2:	8f49                	or	a4,a4,a0
440027b4:	01f79513          	sll	a0,a5,0x1f
440027b8:	00e564b3          	or	s1,a0,a4
440027bc:	0017d913          	srl	s2,a5,0x1
440027c0:	b709                	j	440026c2 <__subdf3+0x114>
440027c2:	01d5e833          	or	a6,a1,t4
440027c6:	80198313          	add	t1,s3,-2047
440027ca:	04080d63          	beqz	a6,44002824 <__subdf3+0x276>
440027ce:	04d40f63          	beq	s0,a3,4400282c <__subdf3+0x27e>
440027d2:	0c030163          	beqz	t1,44002894 <__subdf3+0x2e6>
440027d6:	20098663          	beqz	s3,440029e2 <__subdf3+0x434>
440027da:	00361513          	sll	a0,a2,0x3
440027de:	810d                	srl	a0,a0,0x3
440027e0:	8436                	mv	s0,a3
440027e2:	872e                	mv	a4,a1
440027e4:	01d71813          	sll	a6,a4,0x1d
440027e8:	00a86833          	or	a6,a6,a0
440027ec:	830d                	srl	a4,a4,0x3
440027ee:	01076733          	or	a4,a4,a6
440027f2:	c36d                	beqz	a4,440028d4 <__subdf3+0x326>
440027f4:	4e01                	li	t3,0
440027f6:	7ff00793          	li	a5,2047
440027fa:	00080737          	lui	a4,0x80
440027fe:	4801                	li	a6,0
44002800:	bf11                	j	44002714 <__subdf3+0x166>
44002802:	01d5e6b3          	or	a3,a1,t4
44002806:	14068663          	beqz	a3,44002952 <__subdf3+0x3a4>
4400280a:	fff78693          	add	a3,a5,-1
4400280e:	2e068a63          	beqz	a3,44002b02 <__subdf3+0x554>
44002812:	12678863          	beq	a5,t1,44002942 <__subdf3+0x394>
44002816:	03800793          	li	a5,56
4400281a:	4505                	li	a0,1
4400281c:	e2d7cbe3          	blt	a5,a3,44002652 <__subdf3+0xa4>
44002820:	87b6                	mv	a5,a3
44002822:	b529                	j	4400262c <__subdf3+0x7e>
44002824:	0016c693          	xor	a3,a3,1
44002828:	fad415e3          	bne	s0,a3,440027d2 <__subdf3+0x224>
4400282c:	14030563          	beqz	t1,44002976 <__subdf3+0x3c8>
44002830:	24099563          	bnez	s3,44002a7a <__subdf3+0x4cc>
44002834:	7ff00793          	li	a5,2047
44002838:	011766b3          	or	a3,a4,a7
4400283c:	3a068863          	beqz	a3,44002bec <__subdf3+0x63e>
44002840:	fff78693          	add	a3,a5,-1
44002844:	2a068263          	beqz	a3,44002ae8 <__subdf3+0x53a>
44002848:	7ff00513          	li	a0,2047
4400284c:	22a78763          	beq	a5,a0,44002a7a <__subdf3+0x4cc>
44002850:	03800793          	li	a5,56
44002854:	4905                	li	s2,1
44002856:	02d7c763          	blt	a5,a3,44002884 <__subdf3+0x2d6>
4400285a:	47fd                	li	a5,31
4400285c:	3cd7cc63          	blt	a5,a3,44002c34 <__subdf3+0x686>
44002860:	02000793          	li	a5,32
44002864:	8f95                	sub	a5,a5,a3
44002866:	00f71933          	sll	s2,a4,a5
4400286a:	00d8d633          	srl	a2,a7,a3
4400286e:	00f897b3          	sll	a5,a7,a5
44002872:	00c96933          	or	s2,s2,a2
44002876:	00f037b3          	snez	a5,a5
4400287a:	00d756b3          	srl	a3,a4,a3
4400287e:	00f96933          	or	s2,s2,a5
44002882:	95b6                	add	a1,a1,a3
44002884:	01d90733          	add	a4,s2,t4
44002888:	01273933          	sltu	s2,a4,s2
4400288c:	84ba                	mv	s1,a4
4400288e:	992e                	add	s2,s2,a1
44002890:	89fa                	mv	s3,t5
44002892:	bdf5                	j	4400278e <__subdf3+0x1e0>
44002894:	00198793          	add	a5,s3,1
44002898:	7fe7f793          	and	a5,a5,2046
4400289c:	10079663          	bnez	a5,440029a8 <__subdf3+0x3fa>
440028a0:	01d5e833          	or	a6,a1,t4
440028a4:	011767b3          	or	a5,a4,a7
440028a8:	22099363          	bnez	s3,44002ace <__subdf3+0x520>
440028ac:	2e078263          	beqz	a5,44002b90 <__subdf3+0x5e2>
440028b0:	2e081f63          	bnez	a6,44002bae <__subdf3+0x600>
440028b4:	050e                	sll	a0,a0,0x3
440028b6:	00355913          	srl	s2,a0,0x3
440028ba:	4781                	li	a5,0
440028bc:	a0c5                	j	4400299c <__subdf3+0x3ee>
440028be:	08698263          	beq	s3,t1,44002942 <__subdf3+0x394>
440028c2:	03800693          	li	a3,56
440028c6:	4905                	li	s2,1
440028c8:	eaf6cde3          	blt	a3,a5,44002782 <__subdf3+0x1d4>
440028cc:	008006b7          	lui	a3,0x800
440028d0:	8dd5                	or	a1,a1,a3
440028d2:	b559                	j	44002758 <__subdf3+0x1aa>
440028d4:	00147e13          	and	t3,s0,1
440028d8:	7ff00793          	li	a5,2047
440028dc:	4701                	li	a4,0
440028de:	4801                	li	a6,0
440028e0:	bd15                	j	44002714 <__subdf3+0x166>
440028e2:	8526                	mv	a0,s1
440028e4:	753000ef          	jal	44003836 <__clzsi2>
440028e8:	01850793          	add	a5,a0,24
440028ec:	46fd                	li	a3,31
440028ee:	d8f6d9e3          	bge	a3,a5,44002680 <__subdf3+0xd2>
440028f2:	ff850713          	add	a4,a0,-8
440028f6:	00e49733          	sll	a4,s1,a4
440028fa:	1737c963          	blt	a5,s3,44002a6c <__subdf3+0x4be>
440028fe:	413789b3          	sub	s3,a5,s3
44002902:	00198793          	add	a5,s3,1
44002906:	36f6d163          	bge	a3,a5,44002c68 <__subdf3+0x6ba>
4400290a:	1985                	add	s3,s3,-31
4400290c:	02000693          	li	a3,32
44002910:	013754b3          	srl	s1,a4,s3
44002914:	00d78b63          	beq	a5,a3,4400292a <__subdf3+0x37c>
44002918:	04000693          	li	a3,64
4400291c:	40f687b3          	sub	a5,a3,a5
44002920:	00f71733          	sll	a4,a4,a5
44002924:	00e03733          	snez	a4,a4
44002928:	8cd9                	or	s1,s1,a4
4400292a:	4981                	li	s3,0
4400292c:	0074f793          	and	a5,s1,7
44002930:	d8079ce3          	bnez	a5,440026c8 <__subdf3+0x11a>
44002934:	87ce                	mv	a5,s3
44002936:	0034d513          	srl	a0,s1,0x3
4400293a:	874a                	mv	a4,s2
4400293c:	a829                	j	44002956 <__subdf3+0x3a8>
4400293e:	ea081be3          	bnez	a6,440027f4 <__subdf3+0x246>
44002942:	050e                	sll	a0,a0,0x3
44002944:	01d71813          	sll	a6,a4,0x1d
44002948:	810d                	srl	a0,a0,0x3
4400294a:	00a86833          	or	a6,a6,a0
4400294e:	830d                	srl	a4,a4,0x3
44002950:	bd79                	j	440027ee <__subdf3+0x240>
44002952:	050e                	sll	a0,a0,0x3
44002954:	810d                	srl	a0,a0,0x3
44002956:	01d71813          	sll	a6,a4,0x1d
4400295a:	7ff00693          	li	a3,2047
4400295e:	00a86833          	or	a6,a6,a0
44002962:	830d                	srl	a4,a4,0x3
44002964:	e8d785e3          	beq	a5,a3,440027ee <__subdf3+0x240>
44002968:	0732                	sll	a4,a4,0xc
4400296a:	8331                	srl	a4,a4,0xc
4400296c:	7ff7f793          	and	a5,a5,2047
44002970:	00147e13          	and	t3,s0,1
44002974:	b345                	j	44002714 <__subdf3+0x166>
44002976:	00198693          	add	a3,s3,1
4400297a:	7fe6f793          	and	a5,a3,2046
4400297e:	10079363          	bnez	a5,44002a84 <__subdf3+0x4d6>
44002982:	011767b3          	or	a5,a4,a7
44002986:	1e099263          	bnez	s3,44002b6a <__subdf3+0x5bc>
4400298a:	26078663          	beqz	a5,44002bf6 <__subdf3+0x648>
4400298e:	01d5e7b3          	or	a5,a1,t4
44002992:	26079763          	bnez	a5,44002c00 <__subdf3+0x652>
44002996:	050e                	sll	a0,a0,0x3
44002998:	00355913          	srl	s2,a0,0x3
4400299c:	01d71813          	sll	a6,a4,0x1d
440029a0:	01286833          	or	a6,a6,s2
440029a4:	830d                	srl	a4,a4,0x3
440029a6:	b7c9                	j	44002968 <__subdf3+0x3ba>
440029a8:	41d88833          	sub	a6,a7,t4
440029ac:	0108b7b3          	sltu	a5,a7,a6
440029b0:	40b70933          	sub	s2,a4,a1
440029b4:	40f90933          	sub	s2,s2,a5
440029b8:	00891793          	sll	a5,s2,0x8
440029bc:	84c2                	mv	s1,a6
440029be:	0e07c763          	bltz	a5,44002aac <__subdf3+0x4fe>
440029c2:	01286833          	or	a6,a6,s2
440029c6:	ca0816e3          	bnez	a6,44002672 <__subdf3+0xc4>
440029ca:	4e01                	li	t3,0
440029cc:	4781                	li	a5,0
440029ce:	4701                	li	a4,0
440029d0:	b391                	j	44002714 <__subdf3+0x166>
440029d2:	ff800937          	lui	s2,0xff800
440029d6:	197d                	add	s2,s2,-1 # ff7fffff <_sidata+0xbb7dcf0f>
440029d8:	40f989b3          	sub	s3,s3,a5
440029dc:	01277933          	and	s2,a4,s2
440029e0:	b1cd                	j	440026c2 <__subdf3+0x114>
440029e2:	7ff00793          	li	a5,2047
440029e6:	01176533          	or	a0,a4,a7
440029ea:	cd61                	beqz	a0,44002ac2 <__subdf3+0x514>
440029ec:	fff78813          	add	a6,a5,-1
440029f0:	18080363          	beqz	a6,44002b76 <__subdf3+0x5c8>
440029f4:	7ff00513          	li	a0,2047
440029f8:	dea781e3          	beq	a5,a0,440027da <__subdf3+0x22c>
440029fc:	03800793          	li	a5,56
44002a00:	8436                	mv	s0,a3
44002a02:	4505                	li	a0,1
44002a04:	0307c763          	blt	a5,a6,44002a32 <__subdf3+0x484>
44002a08:	47fd                	li	a5,31
44002a0a:	1307cc63          	blt	a5,a6,44002b42 <__subdf3+0x594>
44002a0e:	02000793          	li	a5,32
44002a12:	410787b3          	sub	a5,a5,a6
44002a16:	00f71533          	sll	a0,a4,a5
44002a1a:	0108d6b3          	srl	a3,a7,a6
44002a1e:	00f897b3          	sll	a5,a7,a5
44002a22:	8d55                	or	a0,a0,a3
44002a24:	00f037b3          	snez	a5,a5
44002a28:	01075833          	srl	a6,a4,a6
44002a2c:	8d5d                	or	a0,a0,a5
44002a2e:	410585b3          	sub	a1,a1,a6
44002a32:	40ae8533          	sub	a0,t4,a0
44002a36:	00aeb733          	sltu	a4,t4,a0
44002a3a:	84aa                	mv	s1,a0
44002a3c:	40e58933          	sub	s2,a1,a4
44002a40:	89fa                	mv	s3,t5
44002a42:	b939                	j	44002660 <__subdf3+0xb2>
44002a44:	fe078693          	add	a3,a5,-32
44002a48:	02000613          	li	a2,32
44002a4c:	00d5d6b3          	srl	a3,a1,a3
44002a50:	00c78a63          	beq	a5,a2,44002a64 <__subdf3+0x4b6>
44002a54:	04000613          	li	a2,64
44002a58:	40f607b3          	sub	a5,a2,a5
44002a5c:	00f597b3          	sll	a5,a1,a5
44002a60:	00feeeb3          	or	t4,t4,a5
44002a64:	01d03533          	snez	a0,t4
44002a68:	8d55                	or	a0,a0,a3
44002a6a:	b6e5                	j	44002652 <__subdf3+0xa4>
44002a6c:	ff8006b7          	lui	a3,0xff800
44002a70:	16fd                	add	a3,a3,-1 # ff7fffff <_sidata+0xbb7dcf0f>
44002a72:	40f987b3          	sub	a5,s3,a5
44002a76:	8f75                	and	a4,a4,a3
44002a78:	b715                	j	4400299c <__subdf3+0x3ee>
44002a7a:	00361513          	sll	a0,a2,0x3
44002a7e:	810d                	srl	a0,a0,0x3
44002a80:	872e                	mv	a4,a1
44002a82:	b38d                	j	440027e4 <__subdf3+0x236>
44002a84:	7ff00793          	li	a5,2047
44002a88:	e4f686e3          	beq	a3,a5,440028d4 <__subdf3+0x326>
44002a8c:	9ec6                	add	t4,t4,a7
44002a8e:	011eb633          	sltu	a2,t4,a7
44002a92:	00b707b3          	add	a5,a4,a1
44002a96:	97b2                	add	a5,a5,a2
44002a98:	01f79513          	sll	a0,a5,0x1f
44002a9c:	001ede93          	srl	t4,t4,0x1
44002aa0:	01d564b3          	or	s1,a0,t4
44002aa4:	0017d913          	srl	s2,a5,0x1
44002aa8:	89b6                	mv	s3,a3
44002aaa:	b921                	j	440026c2 <__subdf3+0x114>
44002aac:	411e8633          	sub	a2,t4,a7
44002ab0:	40e587b3          	sub	a5,a1,a4
44002ab4:	00ceb733          	sltu	a4,t4,a2
44002ab8:	84b2                	mv	s1,a2
44002aba:	40e78933          	sub	s2,a5,a4
44002abe:	8436                	mv	s0,a3
44002ac0:	be4d                	j	44002672 <__subdf3+0xc4>
44002ac2:	060e                	sll	a2,a2,0x3
44002ac4:	00365513          	srl	a0,a2,0x3
44002ac8:	8436                	mv	s0,a3
44002aca:	872e                	mv	a4,a1
44002acc:	b569                	j	44002956 <__subdf3+0x3a8>
44002ace:	e60798e3          	bnez	a5,4400293e <__subdf3+0x390>
44002ad2:	1a080963          	beqz	a6,44002c84 <__subdf3+0x6d6>
44002ad6:	0035d713          	srl	a4,a1,0x3
44002ada:	060e                	sll	a2,a2,0x3
44002adc:	05f6                	sll	a1,a1,0x1d
44002ade:	8f4d                	or	a4,a4,a1
44002ae0:	820d                	srl	a2,a2,0x3
44002ae2:	8f51                	or	a4,a4,a2
44002ae4:	8436                	mv	s0,a3
44002ae6:	b331                	j	440027f2 <__subdf3+0x244>
44002ae8:	9ec6                	add	t4,t4,a7
44002aea:	95ba                	add	a1,a1,a4
44002aec:	011eb633          	sltu	a2,t4,a7
44002af0:	00c58933          	add	s2,a1,a2
44002af4:	00891793          	sll	a5,s2,0x8
44002af8:	84f6                	mv	s1,t4
44002afa:	0807d963          	bgez	a5,44002b8c <__subdf3+0x5de>
44002afe:	4989                	li	s3,2
44002b00:	b145                	j	440027a0 <__subdf3+0x1f2>
44002b02:	41d88eb3          	sub	t4,a7,t4
44002b06:	40b705b3          	sub	a1,a4,a1
44002b0a:	01d8b633          	sltu	a2,a7,t4
44002b0e:	84f6                	mv	s1,t4
44002b10:	40c58933          	sub	s2,a1,a2
44002b14:	4985                	li	s3,1
44002b16:	b6a9                	j	44002660 <__subdf3+0xb2>
44002b18:	fe078693          	add	a3,a5,-32
44002b1c:	02000613          	li	a2,32
44002b20:	00d5d6b3          	srl	a3,a1,a3
44002b24:	00c78a63          	beq	a5,a2,44002b38 <__subdf3+0x58a>
44002b28:	04000613          	li	a2,64
44002b2c:	40f607b3          	sub	a5,a2,a5
44002b30:	00f597b3          	sll	a5,a1,a5
44002b34:	00feeeb3          	or	t4,t4,a5
44002b38:	01d03933          	snez	s2,t4
44002b3c:	00d96933          	or	s2,s2,a3
44002b40:	b189                	j	44002782 <__subdf3+0x1d4>
44002b42:	fe080793          	add	a5,a6,-32
44002b46:	02000693          	li	a3,32
44002b4a:	00f757b3          	srl	a5,a4,a5
44002b4e:	00d80a63          	beq	a6,a3,44002b62 <__subdf3+0x5b4>
44002b52:	04000693          	li	a3,64
44002b56:	410686b3          	sub	a3,a3,a6
44002b5a:	00d71733          	sll	a4,a4,a3
44002b5e:	00e8e8b3          	or	a7,a7,a4
44002b62:	01103533          	snez	a0,a7
44002b66:	8d5d                	or	a0,a0,a5
44002b68:	b5e9                	j	44002a32 <__subdf3+0x484>
44002b6a:	db81                	beqz	a5,44002a7a <__subdf3+0x4cc>
44002b6c:	01d5eeb3          	or	t4,a1,t4
44002b70:	c80e92e3          	bnez	t4,440027f4 <__subdf3+0x246>
44002b74:	b3f9                	j	44002942 <__subdf3+0x394>
44002b76:	411e8633          	sub	a2,t4,a7
44002b7a:	8d99                	sub	a1,a1,a4
44002b7c:	00ceb733          	sltu	a4,t4,a2
44002b80:	84b2                	mv	s1,a2
44002b82:	40e58933          	sub	s2,a1,a4
44002b86:	8436                	mv	s0,a3
44002b88:	4985                	li	s3,1
44002b8a:	bcd9                	j	44002660 <__subdf3+0xb2>
44002b8c:	4785                	li	a5,1
44002b8e:	b365                	j	44002936 <__subdf3+0x388>
44002b90:	e2080de3          	beqz	a6,440029ca <__subdf3+0x41c>
44002b94:	060e                	sll	a2,a2,0x3
44002b96:	00365793          	srl	a5,a2,0x3
44002b9a:	01d59813          	sll	a6,a1,0x1d
44002b9e:	00959713          	sll	a4,a1,0x9
44002ba2:	00f86833          	or	a6,a6,a5
44002ba6:	8331                	srl	a4,a4,0xc
44002ba8:	8e36                	mv	t3,a3
44002baa:	4781                	li	a5,0
44002bac:	b6a5                	j	44002714 <__subdf3+0x166>
44002bae:	41d88933          	sub	s2,a7,t4
44002bb2:	0128b7b3          	sltu	a5,a7,s2
44002bb6:	40b70633          	sub	a2,a4,a1
44002bba:	8e1d                	sub	a2,a2,a5
44002bbc:	00861793          	sll	a5,a2,0x8
44002bc0:	0a07d963          	bgez	a5,44002c72 <__subdf3+0x6c4>
44002bc4:	411e8633          	sub	a2,t4,a7
44002bc8:	40e58733          	sub	a4,a1,a4
44002bcc:	00cebeb3          	sltu	t4,t4,a2
44002bd0:	41d70733          	sub	a4,a4,t4
44002bd4:	00871793          	sll	a5,a4,0x8
44002bd8:	84b2                	mv	s1,a2
44002bda:	0e07d763          	bgez	a5,44002cc8 <__subdf3+0x71a>
44002bde:	ff8007b7          	lui	a5,0xff800
44002be2:	17fd                	add	a5,a5,-1 # ff7fffff <_sidata+0xbb7dcf0f>
44002be4:	8f7d                	and	a4,a4,a5
44002be6:	8436                	mv	s0,a3
44002be8:	4785                	li	a5,1
44002bea:	be19                	j	44002700 <__subdf3+0x152>
44002bec:	060e                	sll	a2,a2,0x3
44002bee:	00365513          	srl	a0,a2,0x3
44002bf2:	872e                	mv	a4,a1
44002bf4:	b38d                	j	44002956 <__subdf3+0x3a8>
44002bf6:	060e                	sll	a2,a2,0x3
44002bf8:	00365913          	srl	s2,a2,0x3
44002bfc:	872e                	mv	a4,a1
44002bfe:	bb79                	j	4400299c <__subdf3+0x3ee>
44002c00:	01d886b3          	add	a3,a7,t4
44002c04:	00b707b3          	add	a5,a4,a1
44002c08:	0116b633          	sltu	a2,a3,a7
44002c0c:	97b2                	add	a5,a5,a2
44002c0e:	00879713          	sll	a4,a5,0x8
44002c12:	0036d813          	srl	a6,a3,0x3
44002c16:	06075d63          	bgez	a4,44002c90 <__subdf3+0x6e2>
44002c1a:	ff800737          	lui	a4,0xff800
44002c1e:	177d                	add	a4,a4,-1 # ff7fffff <_sidata+0xbb7dcf0f>
44002c20:	8ff9                	and	a5,a5,a4
44002c22:	01d79713          	sll	a4,a5,0x1d
44002c26:	07a6                	sll	a5,a5,0x9
44002c28:	01076833          	or	a6,a4,a6
44002c2c:	00c7d713          	srl	a4,a5,0xc
44002c30:	4785                	li	a5,1
44002c32:	b4cd                	j	44002714 <__subdf3+0x166>
44002c34:	fe068793          	add	a5,a3,-32
44002c38:	02000613          	li	a2,32
44002c3c:	00f757b3          	srl	a5,a4,a5
44002c40:	00c68a63          	beq	a3,a2,44002c54 <__subdf3+0x6a6>
44002c44:	04000613          	li	a2,64
44002c48:	40d606b3          	sub	a3,a2,a3
44002c4c:	00d71733          	sll	a4,a4,a3
44002c50:	00e8e8b3          	or	a7,a7,a4
44002c54:	01103933          	snez	s2,a7
44002c58:	00f96933          	or	s2,s2,a5
44002c5c:	b125                	j	44002884 <__subdf3+0x2d6>
44002c5e:	0034d513          	srl	a0,s1,0x3
44002c62:	87ce                	mv	a5,s3
44002c64:	874a                	mv	a4,s2
44002c66:	b9c5                	j	44002956 <__subdf3+0x3a8>
44002c68:	02000693          	li	a3,32
44002c6c:	8e9d                	sub	a3,a3,a5
44002c6e:	4601                	li	a2,0
44002c70:	b481                	j	440026b0 <__subdf3+0x102>
44002c72:	00c96833          	or	a6,s2,a2
44002c76:	d4080ae3          	beqz	a6,440029ca <__subdf3+0x41c>
44002c7a:	00395913          	srl	s2,s2,0x3
44002c7e:	4781                	li	a5,0
44002c80:	8732                	mv	a4,a2
44002c82:	bb29                	j	4400299c <__subdf3+0x3ee>
44002c84:	4e01                	li	t3,0
44002c86:	7ff00793          	li	a5,2047
44002c8a:	00080737          	lui	a4,0x80
44002c8e:	b459                	j	44002714 <__subdf3+0x166>
44002c90:	01d79713          	sll	a4,a5,0x1d
44002c94:	07a6                	sll	a5,a5,0x9
44002c96:	01076833          	or	a6,a4,a6
44002c9a:	00c7d713          	srl	a4,a5,0xc
44002c9e:	4781                	li	a5,0
44002ca0:	bc95                	j	44002714 <__subdf3+0x166>
44002ca2:	be0789e3          	beqz	a5,44002894 <__subdf3+0x2e6>
44002ca6:	413f0833          	sub	a6,t5,s3
44002caa:	87c2                	mv	a5,a6
44002cac:	d2098de3          	beqz	s3,440029e6 <__subdf3+0x438>
44002cb0:	03800793          	li	a5,56
44002cb4:	0107c763          	blt	a5,a6,44002cc2 <__subdf3+0x714>
44002cb8:	008007b7          	lui	a5,0x800
44002cbc:	8f5d                	or	a4,a4,a5
44002cbe:	8436                	mv	s0,a3
44002cc0:	b3a1                	j	44002a08 <__subdf3+0x45a>
44002cc2:	8436                	mv	s0,a3
44002cc4:	4505                	li	a0,1
44002cc6:	b3b5                	j	44002a32 <__subdf3+0x484>
44002cc8:	01d71813          	sll	a6,a4,0x1d
44002ccc:	820d                	srl	a2,a2,0x3
44002cce:	00c86833          	or	a6,a6,a2
44002cd2:	830d                	srl	a4,a4,0x3
44002cd4:	4781                	li	a5,0
44002cd6:	8436                	mv	s0,a3
44002cd8:	b941                	j	44002968 <__subdf3+0x3ba>
44002cda:	c8078ee3          	beqz	a5,44002976 <__subdf3+0x3c8>
44002cde:	413f06b3          	sub	a3,t5,s3
44002ce2:	00099463          	bnez	s3,44002cea <__subdf3+0x73c>
44002ce6:	87b6                	mv	a5,a3
44002ce8:	be81                	j	44002838 <__subdf3+0x28a>
44002cea:	03800793          	li	a5,56
44002cee:	4905                	li	s2,1
44002cf0:	b8d7cae3          	blt	a5,a3,44002884 <__subdf3+0x2d6>
44002cf4:	008007b7          	lui	a5,0x800
44002cf8:	8f5d                	or	a4,a4,a5
44002cfa:	b685                	j	4400285a <__subdf3+0x2ac>

44002cfc <__unorddf2>:
44002cfc:	0145d713          	srl	a4,a1,0x14
44002d00:	001007b7          	lui	a5,0x100
44002d04:	17fd                	add	a5,a5,-1 # fffff <input_img-0x41f00001>
44002d06:	fff74713          	not	a4,a4
44002d0a:	0146d813          	srl	a6,a3,0x14
44002d0e:	8dfd                	and	a1,a1,a5
44002d10:	8ff5                	and	a5,a5,a3
44002d12:	01571693          	sll	a3,a4,0x15
44002d16:	7ff87813          	and	a6,a6,2047
44002d1a:	ca99                	beqz	a3,44002d30 <__unorddf2+0x34>
44002d1c:	7ff00713          	li	a4,2047
44002d20:	4501                	li	a0,0
44002d22:	00e80363          	beq	a6,a4,44002d28 <__unorddf2+0x2c>
44002d26:	8082                	ret
44002d28:	8fd1                	or	a5,a5,a2
44002d2a:	00f03533          	snez	a0,a5
44002d2e:	8082                	ret
44002d30:	8dc9                	or	a1,a1,a0
44002d32:	4505                	li	a0,1
44002d34:	d5e5                	beqz	a1,44002d1c <__unorddf2+0x20>
44002d36:	8082                	ret

44002d38 <__fixdfsi>:
44002d38:	0145d793          	srl	a5,a1,0x14
44002d3c:	001006b7          	lui	a3,0x100
44002d40:	fff68713          	add	a4,a3,-1 # fffff <input_img-0x41f00001>
44002d44:	7ff7f793          	and	a5,a5,2047
44002d48:	3fe00613          	li	a2,1022
44002d4c:	8f6d                	and	a4,a4,a1
44002d4e:	81fd                	srl	a1,a1,0x1f
44002d50:	00f65b63          	bge	a2,a5,44002d66 <__fixdfsi+0x2e>
44002d54:	41d00613          	li	a2,1053
44002d58:	00f65963          	bge	a2,a5,44002d6a <__fixdfsi+0x32>
44002d5c:	80000537          	lui	a0,0x80000
44002d60:	157d                	add	a0,a0,-1 # 7fffffff <_sidata+0x3bfdcf0f>
44002d62:	952e                	add	a0,a0,a1
44002d64:	8082                	ret
44002d66:	4501                	li	a0,0
44002d68:	8082                	ret
44002d6a:	43300613          	li	a2,1075
44002d6e:	8e1d                	sub	a2,a2,a5
44002d70:	487d                	li	a6,31
44002d72:	8f55                	or	a4,a4,a3
44002d74:	00c85d63          	bge	a6,a2,44002d8e <__fixdfsi+0x56>
44002d78:	41300693          	li	a3,1043
44002d7c:	40f687b3          	sub	a5,a3,a5
44002d80:	00f75733          	srl	a4,a4,a5
44002d84:	40e00533          	neg	a0,a4
44002d88:	f1e5                	bnez	a1,44002d68 <__fixdfsi+0x30>
44002d8a:	853a                	mv	a0,a4
44002d8c:	8082                	ret
44002d8e:	bed78793          	add	a5,a5,-1043
44002d92:	00f71733          	sll	a4,a4,a5
44002d96:	00c55533          	srl	a0,a0,a2
44002d9a:	8f49                	or	a4,a4,a0
44002d9c:	b7e5                	j	44002d84 <__fixdfsi+0x4c>

44002d9e <__floatsidf>:
44002d9e:	1141                	add	sp,sp,-16
44002da0:	c606                	sw	ra,12(sp)
44002da2:	c422                	sw	s0,8(sp)
44002da4:	c226                	sw	s1,4(sp)
44002da6:	cd15                	beqz	a0,44002de2 <__floatsidf+0x44>
44002da8:	41f55713          	sra	a4,a0,0x1f
44002dac:	00a744b3          	xor	s1,a4,a0
44002db0:	8c99                	sub	s1,s1,a4
44002db2:	87aa                	mv	a5,a0
44002db4:	8526                	mv	a0,s1
44002db6:	01f7d413          	srl	s0,a5,0x1f
44002dba:	27d000ef          	jal	44003836 <__clzsi2>
44002dbe:	41e00793          	li	a5,1054
44002dc2:	8f89                	sub	a5,a5,a0
44002dc4:	4729                	li	a4,10
44002dc6:	7ff7f793          	and	a5,a5,2047
44002dca:	02a74b63          	blt	a4,a0,44002e00 <__floatsidf+0x62>
44002dce:	472d                	li	a4,11
44002dd0:	8f09                	sub	a4,a4,a0
44002dd2:	00e4d733          	srl	a4,s1,a4
44002dd6:	0555                	add	a0,a0,21
44002dd8:	0732                	sll	a4,a4,0xc
44002dda:	00a494b3          	sll	s1,s1,a0
44002dde:	8331                	srl	a4,a4,0xc
44002de0:	a029                	j	44002dea <__floatsidf+0x4c>
44002de2:	4401                	li	s0,0
44002de4:	4781                	li	a5,0
44002de6:	4701                	li	a4,0
44002de8:	4481                	li	s1,0
44002dea:	07d2                	sll	a5,a5,0x14
44002dec:	047e                	sll	s0,s0,0x1f
44002dee:	8fd9                	or	a5,a5,a4
44002df0:	40b2                	lw	ra,12(sp)
44002df2:	8fc1                	or	a5,a5,s0
44002df4:	4422                	lw	s0,8(sp)
44002df6:	8526                	mv	a0,s1
44002df8:	85be                	mv	a1,a5
44002dfa:	4492                	lw	s1,4(sp)
44002dfc:	0141                	add	sp,sp,16
44002dfe:	8082                	ret
44002e00:	1555                	add	a0,a0,-11
44002e02:	00a49733          	sll	a4,s1,a0
44002e06:	0732                	sll	a4,a4,0xc
44002e08:	8331                	srl	a4,a4,0xc
44002e0a:	4481                	li	s1,0
44002e0c:	bff9                	j	44002dea <__floatsidf+0x4c>

44002e0e <__addsf3>:
44002e0e:	008007b7          	lui	a5,0x800
44002e12:	1141                	add	sp,sp,-16
44002e14:	01755693          	srl	a3,a0,0x17
44002e18:	0175d713          	srl	a4,a1,0x17
44002e1c:	17fd                	add	a5,a5,-1 # 7fffff <input_img-0x41800001>
44002e1e:	00a7f633          	and	a2,a5,a0
44002e22:	0ff77813          	zext.b	a6,a4
44002e26:	c422                	sw	s0,8(sp)
44002e28:	c04a                	sw	s2,0(sp)
44002e2a:	01f55413          	srl	s0,a0,0x1f
44002e2e:	0ff6f913          	zext.b	s2,a3
44002e32:	00b7f533          	and	a0,a5,a1
44002e36:	c606                	sw	ra,12(sp)
44002e38:	81fd                	srl	a1,a1,0x1f
44002e3a:	86b2                	mv	a3,a2
44002e3c:	88a2                	mv	a7,s0
44002e3e:	00361713          	sll	a4,a2,0x3
44002e42:	00351e13          	sll	t3,a0,0x3
44002e46:	41090333          	sub	t1,s2,a6
44002e4a:	04b40463          	beq	s0,a1,44002e92 <__addsf3+0x84>
44002e4e:	02605063          	blez	t1,44002e6e <__addsf3+0x60>
44002e52:	06081163          	bnez	a6,44002eb4 <__addsf3+0xa6>
44002e56:	180e0363          	beqz	t3,44002fdc <__addsf3+0x1ce>
44002e5a:	fff30793          	add	a5,t1,-1
44002e5e:	2e078e63          	beqz	a5,4400315a <__addsf3+0x34c>
44002e62:	0ff00693          	li	a3,255
44002e66:	18d30263          	beq	t1,a3,44002fea <__addsf3+0x1dc>
44002e6a:	833e                	mv	t1,a5
44002e6c:	a8a1                	j	44002ec4 <__addsf3+0xb6>
44002e6e:	10030163          	beqz	t1,44002f70 <__addsf3+0x162>
44002e72:	41280333          	sub	t1,a6,s2
44002e76:	1e091b63          	bnez	s2,4400306c <__addsf3+0x25e>
44002e7a:	14070f63          	beqz	a4,44002fd8 <__addsf3+0x1ca>
44002e7e:	fff30793          	add	a5,t1,-1
44002e82:	30078063          	beqz	a5,44003182 <__addsf3+0x374>
44002e86:	0ff00693          	li	a3,255
44002e8a:	2cd30563          	beq	t1,a3,44003154 <__addsf3+0x346>
44002e8e:	833e                	mv	t1,a5
44002e90:	a2ed                	j	4400307a <__addsf3+0x26c>
44002e92:	16605a63          	blez	t1,44003006 <__addsf3+0x1f8>
44002e96:	10080d63          	beqz	a6,44002fb0 <__addsf3+0x1a2>
44002e9a:	0ff00793          	li	a5,255
44002e9e:	14f90663          	beq	s2,a5,44002fea <__addsf3+0x1dc>
44002ea2:	040007b7          	lui	a5,0x4000
44002ea6:	00fe6e33          	or	t3,t3,a5
44002eaa:	47ed                	li	a5,27
44002eac:	2067d963          	bge	a5,t1,440030be <__addsf3+0x2b0>
44002eb0:	0705                	add	a4,a4,1 # 80001 <input_img-0x41f7ffff>
44002eb2:	a88d                	j	44002f24 <__addsf3+0x116>
44002eb4:	0ff00793          	li	a5,255
44002eb8:	12f90963          	beq	s2,a5,44002fea <__addsf3+0x1dc>
44002ebc:	040007b7          	lui	a5,0x4000
44002ec0:	00fe6e33          	or	t3,t3,a5
44002ec4:	46ed                	li	a3,27
44002ec6:	4785                	li	a5,1
44002ec8:	0066cd63          	blt	a3,t1,44002ee2 <__addsf3+0xd4>
44002ecc:	02000793          	li	a5,32
44002ed0:	406787b3          	sub	a5,a5,t1
44002ed4:	00fe17b3          	sll	a5,t3,a5
44002ed8:	006e56b3          	srl	a3,t3,t1
44002edc:	00f037b3          	snez	a5,a5
44002ee0:	8fd5                	or	a5,a5,a3
44002ee2:	8f1d                	sub	a4,a4,a5
44002ee4:	00571793          	sll	a5,a4,0x5
44002ee8:	1007db63          	bgez	a5,44002ffe <__addsf3+0x1f0>
44002eec:	c226                	sw	s1,4(sp)
44002eee:	040004b7          	lui	s1,0x4000
44002ef2:	14fd                	add	s1,s1,-1 # 3ffffff <input_img-0x3e000001>
44002ef4:	8cf9                	and	s1,s1,a4
44002ef6:	8526                	mv	a0,s1
44002ef8:	13f000ef          	jal	44003836 <__clzsi2>
44002efc:	156d                	add	a0,a0,-5
44002efe:	00a494b3          	sll	s1,s1,a0
44002f02:	13254363          	blt	a0,s2,44003028 <__addsf3+0x21a>
44002f06:	41250533          	sub	a0,a0,s2
44002f0a:	0505                	add	a0,a0,1
44002f0c:	02000713          	li	a4,32
44002f10:	8f09                	sub	a4,a4,a0
44002f12:	00e49733          	sll	a4,s1,a4
44002f16:	00e03733          	snez	a4,a4
44002f1a:	00a4d4b3          	srl	s1,s1,a0
44002f1e:	8f45                	or	a4,a4,s1
44002f20:	4492                	lw	s1,4(sp)
44002f22:	4901                	li	s2,0
44002f24:	00777793          	and	a5,a4,7
44002f28:	c799                	beqz	a5,44002f36 <__addsf3+0x128>
44002f2a:	00f77793          	and	a5,a4,15
44002f2e:	4611                	li	a2,4
44002f30:	00c78363          	beq	a5,a2,44002f36 <__addsf3+0x128>
44002f34:	0711                	add	a4,a4,4
44002f36:	00571793          	sll	a5,a4,0x5
44002f3a:	0a07d263          	bgez	a5,44002fde <__addsf3+0x1d0>
44002f3e:	00190793          	add	a5,s2,1
44002f42:	0ff00693          	li	a3,255
44002f46:	88a2                	mv	a7,s0
44002f48:	0ad78763          	beq	a5,a3,44002ff6 <__addsf3+0x1e8>
44002f4c:	fc0006b7          	lui	a3,0xfc000
44002f50:	16fd                	add	a3,a3,-1 # fbffffff <_sidata+0xb7fdcf0f>
44002f52:	8ef9                	and	a3,a3,a4
44002f54:	0ff7f513          	zext.b	a0,a5
44002f58:	069a                	sll	a3,a3,0x6
44002f5a:	82a5                	srl	a3,a3,0x9
44002f5c:	40b2                	lw	ra,12(sp)
44002f5e:	4422                	lw	s0,8(sp)
44002f60:	055e                	sll	a0,a0,0x17
44002f62:	8d55                	or	a0,a0,a3
44002f64:	01f89793          	sll	a5,a7,0x1f
44002f68:	4902                	lw	s2,0(sp)
44002f6a:	8d5d                	or	a0,a0,a5
44002f6c:	0141                	add	sp,sp,16
44002f6e:	8082                	ret
44002f70:	00190613          	add	a2,s2,1
44002f74:	0fe67613          	and	a2,a2,254
44002f78:	12061563          	bnez	a2,440030a2 <__addsf3+0x294>
44002f7c:	04091863          	bnez	s2,44002fcc <__addsf3+0x1be>
44002f80:	20070663          	beqz	a4,4400318c <__addsf3+0x37e>
44002f84:	4501                	li	a0,0
44002f86:	fc0e0be3          	beqz	t3,44002f5c <__addsf3+0x14e>
44002f8a:	41c706b3          	sub	a3,a4,t3
44002f8e:	00569613          	sll	a2,a3,0x5
44002f92:	20065663          	bgez	a2,4400319e <__addsf3+0x390>
44002f96:	40ee06b3          	sub	a3,t3,a4
44002f9a:	00569713          	sll	a4,a3,0x5
44002f9e:	20075863          	bgez	a4,440031ae <__addsf3+0x3a0>
44002fa2:	fc0007b7          	lui	a5,0xfc000
44002fa6:	17fd                	add	a5,a5,-1 # fbffffff <_sidata+0xb7fdcf0f>
44002fa8:	8efd                	and	a3,a3,a5
44002faa:	88ae                	mv	a7,a1
44002fac:	4505                	li	a0,1
44002fae:	b76d                	j	44002f58 <__addsf3+0x14a>
44002fb0:	020e0663          	beqz	t3,44002fdc <__addsf3+0x1ce>
44002fb4:	fff30793          	add	a5,t1,-1
44002fb8:	16078e63          	beqz	a5,44003134 <__addsf3+0x326>
44002fbc:	0ff00693          	li	a3,255
44002fc0:	02d30563          	beq	t1,a3,44002fea <__addsf3+0x1dc>
44002fc4:	833e                	mv	t1,a5
44002fc6:	b5d5                	j	44002eaa <__addsf3+0x9c>
44002fc8:	18070763          	beqz	a4,44003156 <__addsf3+0x348>
44002fcc:	4881                	li	a7,0
44002fce:	0ff00513          	li	a0,255
44002fd2:	004006b7          	lui	a3,0x400
44002fd6:	b759                	j	44002f5c <__addsf3+0x14e>
44002fd8:	842e                	mv	s0,a1
44002fda:	8772                	mv	a4,t3
44002fdc:	891a                	mv	s2,t1
44002fde:	0ff00793          	li	a5,255
44002fe2:	00375613          	srl	a2,a4,0x3
44002fe6:	16f91063          	bne	s2,a5,44003146 <__addsf3+0x338>
44002fea:	f26d                	bnez	a2,44002fcc <__addsf3+0x1be>
44002fec:	88a2                	mv	a7,s0
44002fee:	0ff00513          	li	a0,255
44002ff2:	4681                	li	a3,0
44002ff4:	b7a5                	j	44002f5c <__addsf3+0x14e>
44002ff6:	0ff00513          	li	a0,255
44002ffa:	4681                	li	a3,0
44002ffc:	b785                	j	44002f5c <__addsf3+0x14e>
44002ffe:	00777793          	and	a5,a4,7
44003002:	f785                	bnez	a5,44002f2a <__addsf3+0x11c>
44003004:	bfe9                	j	44002fde <__addsf3+0x1d0>
44003006:	02030963          	beqz	t1,44003038 <__addsf3+0x22a>
4400300a:	41280333          	sub	t1,a6,s2
4400300e:	0e091863          	bnez	s2,440030fe <__addsf3+0x2f0>
44003012:	d761                	beqz	a4,44002fda <__addsf3+0x1cc>
44003014:	fff30793          	add	a5,t1,-1
44003018:	10078e63          	beqz	a5,44003134 <__addsf3+0x326>
4400301c:	0ff00693          	li	a3,255
44003020:	12d30b63          	beq	t1,a3,44003156 <__addsf3+0x348>
44003024:	833e                	mv	t1,a5
44003026:	a0dd                	j	4400310c <__addsf3+0x2fe>
44003028:	fc000737          	lui	a4,0xfc000
4400302c:	177d                	add	a4,a4,-1 # fbffffff <_sidata+0xb7fdcf0f>
4400302e:	8f65                	and	a4,a4,s1
44003030:	40a90933          	sub	s2,s2,a0
44003034:	4492                	lw	s1,4(sp)
44003036:	b5fd                	j	44002f24 <__addsf3+0x116>
44003038:	00190613          	add	a2,s2,1
4400303c:	0fe67593          	and	a1,a2,254
44003040:	ede9                	bnez	a1,4400311a <__addsf3+0x30c>
44003042:	f80913e3          	bnez	s2,44002fc8 <__addsf3+0x1ba>
44003046:	14070963          	beqz	a4,44003198 <__addsf3+0x38a>
4400304a:	4501                	li	a0,0
4400304c:	f00e08e3          	beqz	t3,44002f5c <__addsf3+0x14e>
44003050:	9e3a                	add	t3,t3,a4
44003052:	005e1713          	sll	a4,t3,0x5
44003056:	003e5693          	srl	a3,t3,0x3
4400305a:	14075463          	bgez	a4,440031a2 <__addsf3+0x394>
4400305e:	1f800737          	lui	a4,0x1f800
44003062:	177d                	add	a4,a4,-1 # 1f7fffff <input_img-0x22800001>
44003064:	8ef9                	and	a3,a3,a4
44003066:	8efd                	and	a3,a3,a5
44003068:	4505                	li	a0,1
4400306a:	bdcd                	j	44002f5c <__addsf3+0x14e>
4400306c:	0ff00793          	li	a5,255
44003070:	0ef80263          	beq	a6,a5,44003154 <__addsf3+0x346>
44003074:	040007b7          	lui	a5,0x4000
44003078:	8f5d                	or	a4,a4,a5
4400307a:	46ed                	li	a3,27
4400307c:	4785                	li	a5,1
4400307e:	0066cd63          	blt	a3,t1,44003098 <__addsf3+0x28a>
44003082:	02000793          	li	a5,32
44003086:	406787b3          	sub	a5,a5,t1
4400308a:	00f717b3          	sll	a5,a4,a5
4400308e:	00f037b3          	snez	a5,a5
44003092:	00675733          	srl	a4,a4,t1
44003096:	8fd9                	or	a5,a5,a4
44003098:	40fe0733          	sub	a4,t3,a5
4400309c:	8942                	mv	s2,a6
4400309e:	842e                	mv	s0,a1
440030a0:	b591                	j	44002ee4 <__addsf3+0xd6>
440030a2:	c226                	sw	s1,4(sp)
440030a4:	41c704b3          	sub	s1,a4,t3
440030a8:	00549793          	sll	a5,s1,0x5
440030ac:	0807c063          	bltz	a5,4400312c <__addsf3+0x31e>
440030b0:	e40493e3          	bnez	s1,44002ef6 <__addsf3+0xe8>
440030b4:	4492                	lw	s1,4(sp)
440030b6:	4881                	li	a7,0
440030b8:	4501                	li	a0,0
440030ba:	4681                	li	a3,0
440030bc:	b545                	j	44002f5c <__addsf3+0x14e>
440030be:	02000793          	li	a5,32
440030c2:	406787b3          	sub	a5,a5,t1
440030c6:	00fe17b3          	sll	a5,t3,a5
440030ca:	006e5333          	srl	t1,t3,t1
440030ce:	00f037b3          	snez	a5,a5
440030d2:	00f36333          	or	t1,t1,a5
440030d6:	971a                	add	a4,a4,t1
440030d8:	00571793          	sll	a5,a4,0x5
440030dc:	f207d1e3          	bgez	a5,44002ffe <__addsf3+0x1f0>
440030e0:	0905                	add	s2,s2,1
440030e2:	0ff00513          	li	a0,255
440030e6:	4681                	li	a3,0
440030e8:	e6a90ae3          	beq	s2,a0,44002f5c <__addsf3+0x14e>
440030ec:	7e0006b7          	lui	a3,0x7e000
440030f0:	00175793          	srl	a5,a4,0x1
440030f4:	16fd                	add	a3,a3,-1 # 7dffffff <_sidata+0x39fdcf0f>
440030f6:	8b05                	and	a4,a4,1
440030f8:	8ff5                	and	a5,a5,a3
440030fa:	8f5d                	or	a4,a4,a5
440030fc:	b525                	j	44002f24 <__addsf3+0x116>
440030fe:	0ff00793          	li	a5,255
44003102:	04f80a63          	beq	a6,a5,44003156 <__addsf3+0x348>
44003106:	040007b7          	lui	a5,0x4000
4400310a:	8f5d                	or	a4,a4,a5
4400310c:	47ed                	li	a5,27
4400310e:	0467da63          	bge	a5,t1,44003162 <__addsf3+0x354>
44003112:	001e0713          	add	a4,t3,1
44003116:	8942                	mv	s2,a6
44003118:	b531                	j	44002f24 <__addsf3+0x116>
4400311a:	0ff00793          	li	a5,255
4400311e:	ecf60ce3          	beq	a2,a5,44002ff6 <__addsf3+0x1e8>
44003122:	9e3a                	add	t3,t3,a4
44003124:	001e5713          	srl	a4,t3,0x1
44003128:	8932                	mv	s2,a2
4400312a:	bbed                	j	44002f24 <__addsf3+0x116>
4400312c:	40ee04b3          	sub	s1,t3,a4
44003130:	842e                	mv	s0,a1
44003132:	b3d1                	j	44002ef6 <__addsf3+0xe8>
44003134:	9772                	add	a4,a4,t3
44003136:	00571793          	sll	a5,a4,0x5
4400313a:	4909                	li	s2,2
4400313c:	fa07c8e3          	bltz	a5,440030ec <__addsf3+0x2de>
44003140:	00375613          	srl	a2,a4,0x3
44003144:	4905                	li	s2,1
44003146:	0626                	sll	a2,a2,0x9
44003148:	00965693          	srl	a3,a2,0x9
4400314c:	0ff97513          	zext.b	a0,s2
44003150:	88a2                	mv	a7,s0
44003152:	b529                	j	44002f5c <__addsf3+0x14e>
44003154:	842e                	mv	s0,a1
44003156:	862a                	mv	a2,a0
44003158:	bd49                	j	44002fea <__addsf3+0x1dc>
4400315a:	41c70733          	sub	a4,a4,t3
4400315e:	4905                	li	s2,1
44003160:	b351                	j	44002ee4 <__addsf3+0xd6>
44003162:	02000793          	li	a5,32
44003166:	406787b3          	sub	a5,a5,t1
4400316a:	00f717b3          	sll	a5,a4,a5
4400316e:	00675333          	srl	t1,a4,t1
44003172:	00f037b3          	snez	a5,a5
44003176:	00f36333          	or	t1,t1,a5
4400317a:	01c30733          	add	a4,t1,t3
4400317e:	8942                	mv	s2,a6
44003180:	bfa1                	j	440030d8 <__addsf3+0x2ca>
44003182:	40ee0733          	sub	a4,t3,a4
44003186:	842e                	mv	s0,a1
44003188:	4905                	li	s2,1
4400318a:	bba9                	j	44002ee4 <__addsf3+0xd6>
4400318c:	000e0d63          	beqz	t3,440031a6 <__addsf3+0x398>
44003190:	86aa                	mv	a3,a0
44003192:	88ae                	mv	a7,a1
44003194:	4501                	li	a0,0
44003196:	b3d9                	j	44002f5c <__addsf3+0x14e>
44003198:	86aa                	mv	a3,a0
4400319a:	4501                	li	a0,0
4400319c:	b3c1                	j	44002f5c <__addsf3+0x14e>
4400319e:	ce81                	beqz	a3,440031b6 <__addsf3+0x3a8>
440031a0:	828d                	srl	a3,a3,0x3
440031a2:	8efd                	and	a3,a3,a5
440031a4:	bb65                	j	44002f5c <__addsf3+0x14e>
440031a6:	4881                	li	a7,0
440031a8:	4501                	li	a0,0
440031aa:	4681                	li	a3,0
440031ac:	bb45                	j	44002f5c <__addsf3+0x14e>
440031ae:	828d                	srl	a3,a3,0x3
440031b0:	8efd                	and	a3,a3,a5
440031b2:	88ae                	mv	a7,a1
440031b4:	b365                	j	44002f5c <__addsf3+0x14e>
440031b6:	4881                	li	a7,0
440031b8:	4681                	li	a3,0
440031ba:	b34d                	j	44002f5c <__addsf3+0x14e>

440031bc <__gesf2>:
440031bc:	01755613          	srl	a2,a0,0x17
440031c0:	00800737          	lui	a4,0x800
440031c4:	177d                	add	a4,a4,-1 # 7fffff <input_img-0x41800001>
440031c6:	0175d693          	srl	a3,a1,0x17
440031ca:	0ff67613          	zext.b	a2,a2
440031ce:	0ff00813          	li	a6,255
440031d2:	00a778b3          	and	a7,a4,a0
440031d6:	01f55793          	srl	a5,a0,0x1f
440031da:	8f6d                	and	a4,a4,a1
440031dc:	0ff6f513          	zext.b	a0,a3
440031e0:	81fd                	srl	a1,a1,0x1f
440031e2:	03060563          	beq	a2,a6,4400320c <__gesf2+0x50>
440031e6:	01050a63          	beq	a0,a6,440031fa <__gesf2+0x3e>
440031ea:	ea15                	bnez	a2,4400321e <__gesf2+0x62>
440031ec:	e909                	bnez	a0,440031fe <__gesf2+0x42>
440031ee:	cb21                	beqz	a4,4400323e <__gesf2+0x82>
440031f0:	04089c63          	bnez	a7,44003248 <__gesf2+0x8c>
440031f4:	4505                	li	a0,1
440031f6:	c1b1                	beqz	a1,4400323a <__gesf2+0x7e>
440031f8:	8082                	ret
440031fa:	e729                	bnez	a4,44003244 <__gesf2+0x88>
440031fc:	e219                	bnez	a2,44003202 <__gesf2+0x46>
440031fe:	fe088be3          	beqz	a7,440031f4 <__gesf2+0x38>
44003202:	02b78a63          	beq	a5,a1,44003236 <__gesf2+0x7a>
44003206:	eb95                	bnez	a5,4400323a <__gesf2+0x7e>
44003208:	4505                	li	a0,1
4400320a:	8082                	ret
4400320c:	02089c63          	bnez	a7,44003244 <__gesf2+0x88>
44003210:	fec51be3          	bne	a0,a2,44003206 <__gesf2+0x4a>
44003214:	eb05                	bnez	a4,44003244 <__gesf2+0x88>
44003216:	feb798e3          	bne	a5,a1,44003206 <__gesf2+0x4a>
4400321a:	4501                	li	a0,0
4400321c:	8082                	ret
4400321e:	d565                	beqz	a0,44003206 <__gesf2+0x4a>
44003220:	feb793e3          	bne	a5,a1,44003206 <__gesf2+0x4a>
44003224:	fec541e3          	blt	a0,a2,44003206 <__gesf2+0x4a>
44003228:	00a64763          	blt	a2,a0,44003236 <__gesf2+0x7a>
4400322c:	fd176de3          	bltu	a4,a7,44003206 <__gesf2+0x4a>
44003230:	4501                	li	a0,0
44003232:	fce8f3e3          	bgeu	a7,a4,440031f8 <__gesf2+0x3c>
44003236:	4505                	li	a0,1
44003238:	f3e1                	bnez	a5,440031f8 <__gesf2+0x3c>
4400323a:	557d                	li	a0,-1
4400323c:	8082                	ret
4400323e:	fc0894e3          	bnez	a7,44003206 <__gesf2+0x4a>
44003242:	8082                	ret
44003244:	5579                	li	a0,-2
44003246:	8082                	ret
44003248:	feb782e3          	beq	a5,a1,4400322c <__gesf2+0x70>
4400324c:	bf6d                	j	44003206 <__gesf2+0x4a>

4400324e <__lesf2>:
4400324e:	01755613          	srl	a2,a0,0x17
44003252:	00800737          	lui	a4,0x800
44003256:	177d                	add	a4,a4,-1 # 7fffff <input_img-0x41800001>
44003258:	0175d693          	srl	a3,a1,0x17
4400325c:	0ff67613          	zext.b	a2,a2
44003260:	0ff00813          	li	a6,255
44003264:	00a778b3          	and	a7,a4,a0
44003268:	01f55793          	srl	a5,a0,0x1f
4400326c:	8f6d                	and	a4,a4,a1
4400326e:	0ff6f513          	zext.b	a0,a3
44003272:	81fd                	srl	a1,a1,0x1f
44003274:	03060663          	beq	a2,a6,440032a0 <__lesf2+0x52>
44003278:	01050a63          	beq	a0,a6,4400328c <__lesf2+0x3e>
4400327c:	ee05                	bnez	a2,440032b4 <__lesf2+0x66>
4400327e:	e911                	bnez	a0,44003292 <__lesf2+0x44>
44003280:	cb31                	beqz	a4,440032d4 <__lesf2+0x86>
44003282:	04089e63          	bnez	a7,440032de <__lesf2+0x90>
44003286:	4505                	li	a0,1
44003288:	c5a1                	beqz	a1,440032d0 <__lesf2+0x82>
4400328a:	8082                	ret
4400328c:	4509                	li	a0,2
4400328e:	ff75                	bnez	a4,4400328a <__lesf2+0x3c>
44003290:	e219                	bnez	a2,44003296 <__lesf2+0x48>
44003292:	fe088ae3          	beqz	a7,44003286 <__lesf2+0x38>
44003296:	02b78b63          	beq	a5,a1,440032cc <__lesf2+0x7e>
4400329a:	eb9d                	bnez	a5,440032d0 <__lesf2+0x82>
4400329c:	4505                	li	a0,1
4400329e:	8082                	ret
440032a0:	02089d63          	bnez	a7,440032da <__lesf2+0x8c>
440032a4:	fec51be3          	bne	a0,a2,4400329a <__lesf2+0x4c>
440032a8:	4509                	li	a0,2
440032aa:	f365                	bnez	a4,4400328a <__lesf2+0x3c>
440032ac:	feb797e3          	bne	a5,a1,4400329a <__lesf2+0x4c>
440032b0:	4501                	li	a0,0
440032b2:	8082                	ret
440032b4:	d17d                	beqz	a0,4400329a <__lesf2+0x4c>
440032b6:	feb792e3          	bne	a5,a1,4400329a <__lesf2+0x4c>
440032ba:	fec540e3          	blt	a0,a2,4400329a <__lesf2+0x4c>
440032be:	00a64763          	blt	a2,a0,440032cc <__lesf2+0x7e>
440032c2:	fd176ce3          	bltu	a4,a7,4400329a <__lesf2+0x4c>
440032c6:	4501                	li	a0,0
440032c8:	fce8f1e3          	bgeu	a7,a4,4400328a <__lesf2+0x3c>
440032cc:	4505                	li	a0,1
440032ce:	ffd5                	bnez	a5,4400328a <__lesf2+0x3c>
440032d0:	557d                	li	a0,-1
440032d2:	8082                	ret
440032d4:	fc0893e3          	bnez	a7,4400329a <__lesf2+0x4c>
440032d8:	8082                	ret
440032da:	4509                	li	a0,2
440032dc:	8082                	ret
440032de:	feb782e3          	beq	a5,a1,440032c2 <__lesf2+0x74>
440032e2:	bf65                	j	4400329a <__lesf2+0x4c>

440032e4 <__mulsf3>:
440032e4:	7179                	add	sp,sp,-48
440032e6:	01755793          	srl	a5,a0,0x17
440032ea:	d04a                	sw	s2,32(sp)
440032ec:	cc52                	sw	s4,24(sp)
440032ee:	d606                	sw	ra,44(sp)
440032f0:	00951a13          	sll	s4,a0,0x9
440032f4:	d422                	sw	s0,40(sp)
440032f6:	d226                	sw	s1,36(sp)
440032f8:	ce4e                	sw	s3,28(sp)
440032fa:	ca56                	sw	s5,20(sp)
440032fc:	c85a                	sw	s6,16(sp)
440032fe:	0ff7f793          	zext.b	a5,a5
44003302:	009a5a13          	srl	s4,s4,0x9
44003306:	01f55913          	srl	s2,a0,0x1f
4400330a:	1c078763          	beqz	a5,440034d8 <__mulsf3+0x1f4>
4400330e:	0ff00713          	li	a4,255
44003312:	12e78963          	beq	a5,a4,44003444 <__mulsf3+0x160>
44003316:	0a0e                	sll	s4,s4,0x3
44003318:	04000737          	lui	a4,0x4000
4400331c:	00ea6a33          	or	s4,s4,a4
44003320:	f8178993          	add	s3,a5,-127 # 3ffff81 <input_img-0x3e00007f>
44003324:	4481                	li	s1,0
44003326:	4b01                	li	s6,0
44003328:	0175d793          	srl	a5,a1,0x17
4400332c:	00959a93          	sll	s5,a1,0x9
44003330:	0ff7f793          	zext.b	a5,a5
44003334:	009ada93          	srl	s5,s5,0x9
44003338:	01f5d413          	srl	s0,a1,0x1f
4400333c:	12078663          	beqz	a5,44003468 <__mulsf3+0x184>
44003340:	0ff00713          	li	a4,255
44003344:	16e78963          	beq	a5,a4,440034b6 <__mulsf3+0x1d2>
44003348:	0a8e                	sll	s5,s5,0x3
4400334a:	f8178793          	add	a5,a5,-127
4400334e:	04000737          	lui	a4,0x4000
44003352:	00eaeab3          	or	s5,s5,a4
44003356:	99be                	add	s3,s3,a5
44003358:	4581                	li	a1,0
4400335a:	47a9                	li	a5,10
4400335c:	00198613          	add	a2,s3,1
44003360:	1097ce63          	blt	a5,s1,4400347c <__mulsf3+0x198>
44003364:	00894533          	xor	a0,s2,s0
44003368:	4789                	li	a5,2
4400336a:	86aa                	mv	a3,a0
4400336c:	1897d163          	bge	a5,s1,440034ee <__mulsf3+0x20a>
44003370:	4705                	li	a4,1
44003372:	00971733          	sll	a4,a4,s1
44003376:	53077793          	and	a5,a4,1328
4400337a:	10079263          	bnez	a5,4400347e <__mulsf3+0x19a>
4400337e:	24077793          	and	a5,a4,576
44003382:	1c079863          	bnez	a5,44003552 <__mulsf3+0x26e>
44003386:	08877713          	and	a4,a4,136
4400338a:	1c071063          	bnez	a4,4400354a <__mulsf3+0x266>
4400338e:	68c1                	lui	a7,0x10
44003390:	fff88793          	add	a5,a7,-1 # ffff <input_img-0x41ff0001>
44003394:	010a5593          	srl	a1,s4,0x10
44003398:	010ad813          	srl	a6,s5,0x10
4400339c:	00fa7a33          	and	s4,s4,a5
440033a0:	00faf7b3          	and	a5,s5,a5
440033a4:	03478533          	mul	a0,a5,s4
440033a8:	02f587b3          	mul	a5,a1,a5
440033ac:	01055713          	srl	a4,a0,0x10
440033b0:	03480a33          	mul	s4,a6,s4
440033b4:	9a3e                	add	s4,s4,a5
440033b6:	9752                	add	a4,a4,s4
440033b8:	030585b3          	mul	a1,a1,a6
440033bc:	00f77363          	bgeu	a4,a5,440033c2 <__mulsf3+0xde>
440033c0:	95c6                	add	a1,a1,a7
440033c2:	6841                	lui	a6,0x10
440033c4:	187d                	add	a6,a6,-1 # ffff <input_img-0x41ff0001>
440033c6:	010777b3          	and	a5,a4,a6
440033ca:	07c2                	sll	a5,a5,0x10
440033cc:	01057533          	and	a0,a0,a6
440033d0:	97aa                	add	a5,a5,a0
440033d2:	8341                	srl	a4,a4,0x10
440033d4:	00679a13          	sll	s4,a5,0x6
440033d8:	972e                	add	a4,a4,a1
440033da:	83e9                	srl	a5,a5,0x1a
440033dc:	071a                	sll	a4,a4,0x6
440033de:	01403a33          	snez	s4,s4
440033e2:	00fa6a33          	or	s4,s4,a5
440033e6:	00471793          	sll	a5,a4,0x4
440033ea:	01476a33          	or	s4,a4,s4
440033ee:	0007d963          	bgez	a5,44003400 <__mulsf3+0x11c>
440033f2:	001a5793          	srl	a5,s4,0x1
440033f6:	001a7a13          	and	s4,s4,1
440033fa:	0147ea33          	or	s4,a5,s4
440033fe:	89b2                	mv	s3,a2
44003400:	07f98793          	add	a5,s3,127
44003404:	14f05d63          	blez	a5,4400355e <__mulsf3+0x27a>
44003408:	007a7713          	and	a4,s4,7
4400340c:	c719                	beqz	a4,4400341a <__mulsf3+0x136>
4400340e:	00fa7713          	and	a4,s4,15
44003412:	4611                	li	a2,4
44003414:	00c70363          	beq	a4,a2,4400341a <__mulsf3+0x136>
44003418:	0a11                	add	s4,s4,4
4400341a:	004a1713          	sll	a4,s4,0x4
4400341e:	00075963          	bgez	a4,44003430 <__mulsf3+0x14c>
44003422:	f80007b7          	lui	a5,0xf8000
44003426:	17fd                	add	a5,a5,-1 # f7ffffff <_sidata+0xb3fdcf0f>
44003428:	00fa7a33          	and	s4,s4,a5
4400342c:	08098793          	add	a5,s3,128
44003430:	0fe00713          	li	a4,254
44003434:	18f74163          	blt	a4,a5,440035b6 <__mulsf3+0x2d2>
44003438:	006a1713          	sll	a4,s4,0x6
4400343c:	8325                	srl	a4,a4,0x9
4400343e:	0ff7f793          	zext.b	a5,a5
44003442:	a891                	j	44003496 <__mulsf3+0x1b2>
44003444:	0e0a1e63          	bnez	s4,44003540 <__mulsf3+0x25c>
44003448:	0175d793          	srl	a5,a1,0x17
4400344c:	00959a93          	sll	s5,a1,0x9
44003450:	0ff7f793          	zext.b	a5,a5
44003454:	44a1                	li	s1,8
44003456:	0ff00993          	li	s3,255
4400345a:	4b09                	li	s6,2
4400345c:	009ada93          	srl	s5,s5,0x9
44003460:	01f5d413          	srl	s0,a1,0x1f
44003464:	ec079ee3          	bnez	a5,44003340 <__mulsf3+0x5c>
44003468:	0a0a9b63          	bnez	s5,4400351e <__mulsf3+0x23a>
4400346c:	0014e493          	or	s1,s1,1
44003470:	47a9                	li	a5,10
44003472:	4585                	li	a1,1
44003474:	00198613          	add	a2,s3,1
44003478:	ee97d6e3          	bge	a5,s1,44003364 <__mulsf3+0x80>
4400347c:	854a                	mv	a0,s2
4400347e:	4789                	li	a5,2
44003480:	06fb0263          	beq	s6,a5,440034e4 <__mulsf3+0x200>
44003484:	478d                	li	a5,3
44003486:	0cfb0663          	beq	s6,a5,44003552 <__mulsf3+0x26e>
4400348a:	4785                	li	a5,1
4400348c:	86aa                	mv	a3,a0
4400348e:	12fb1263          	bne	s6,a5,440035b2 <__mulsf3+0x2ce>
44003492:	4781                	li	a5,0
44003494:	4701                	li	a4,0
44003496:	50b2                	lw	ra,44(sp)
44003498:	5422                	lw	s0,40(sp)
4400349a:	01779513          	sll	a0,a5,0x17
4400349e:	8d59                	or	a0,a0,a4
440034a0:	01f69793          	sll	a5,a3,0x1f
440034a4:	5492                	lw	s1,36(sp)
440034a6:	5902                	lw	s2,32(sp)
440034a8:	49f2                	lw	s3,28(sp)
440034aa:	4a62                	lw	s4,24(sp)
440034ac:	4ad2                	lw	s5,20(sp)
440034ae:	4b42                	lw	s6,16(sp)
440034b0:	8d5d                	or	a0,a0,a5
440034b2:	6145                	add	sp,sp,48
440034b4:	8082                	ret
440034b6:	0ff98713          	add	a4,s3,255
440034ba:	060a8e63          	beqz	s5,44003536 <__mulsf3+0x252>
440034be:	0034e493          	or	s1,s1,3
440034c2:	46a9                	li	a3,10
440034c4:	10098613          	add	a2,s3,256
440034c8:	0c96cc63          	blt	a3,s1,440035a0 <__mulsf3+0x2bc>
440034cc:	008946b3          	xor	a3,s2,s0
440034d0:	8536                	mv	a0,a3
440034d2:	89ba                	mv	s3,a4
440034d4:	458d                	li	a1,3
440034d6:	bd69                	j	44003370 <__mulsf3+0x8c>
440034d8:	020a1463          	bnez	s4,44003500 <__mulsf3+0x21c>
440034dc:	4491                	li	s1,4
440034de:	4981                	li	s3,0
440034e0:	4b05                	li	s6,1
440034e2:	b599                	j	44003328 <__mulsf3+0x44>
440034e4:	86aa                	mv	a3,a0
440034e6:	0ff00793          	li	a5,255
440034ea:	4701                	li	a4,0
440034ec:	b76d                	j	44003496 <__mulsf3+0x1b2>
440034ee:	14fd                	add	s1,s1,-1
440034f0:	4705                	li	a4,1
440034f2:	e8976ee3          	bltu	a4,s1,4400338e <__mulsf3+0xaa>
440034f6:	fef587e3          	beq	a1,a5,440034e4 <__mulsf3+0x200>
440034fa:	8a56                	mv	s4,s5
440034fc:	8b2e                	mv	s6,a1
440034fe:	b771                	j	4400348a <__mulsf3+0x1a6>
44003500:	8552                	mv	a0,s4
44003502:	c62e                	sw	a1,12(sp)
44003504:	2e0d                	jal	44003836 <__clzsi2>
44003506:	ffb50793          	add	a5,a0,-5
4400350a:	00fa1a33          	sll	s4,s4,a5
4400350e:	f8a00793          	li	a5,-118
44003512:	45b2                	lw	a1,12(sp)
44003514:	40a789b3          	sub	s3,a5,a0
44003518:	4481                	li	s1,0
4400351a:	4b01                	li	s6,0
4400351c:	b531                	j	44003328 <__mulsf3+0x44>
4400351e:	8556                	mv	a0,s5
44003520:	2e19                	jal	44003836 <__clzsi2>
44003522:	ffb50793          	add	a5,a0,-5
44003526:	40a98533          	sub	a0,s3,a0
4400352a:	00fa9ab3          	sll	s5,s5,a5
4400352e:	f8a50993          	add	s3,a0,-118
44003532:	4581                	li	a1,0
44003534:	b51d                	j	4400335a <__mulsf3+0x76>
44003536:	0024e493          	or	s1,s1,2
4400353a:	89ba                	mv	s3,a4
4400353c:	4589                	li	a1,2
4400353e:	bd31                	j	4400335a <__mulsf3+0x76>
44003540:	44b1                	li	s1,12
44003542:	0ff00993          	li	s3,255
44003546:	4b0d                	li	s6,3
44003548:	b3c5                	j	44003328 <__mulsf3+0x44>
4400354a:	8a56                	mv	s4,s5
4400354c:	8b2e                	mv	s6,a1
4400354e:	8522                	mv	a0,s0
44003550:	b73d                	j	4400347e <__mulsf3+0x19a>
44003552:	4681                	li	a3,0
44003554:	0ff00793          	li	a5,255
44003558:	00400737          	lui	a4,0x400
4400355c:	bf2d                	j	44003496 <__mulsf3+0x1b2>
4400355e:	4605                	li	a2,1
44003560:	c799                	beqz	a5,4400356e <__mulsf3+0x28a>
44003562:	8e1d                	sub	a2,a2,a5
44003564:	45ed                	li	a1,27
44003566:	4781                	li	a5,0
44003568:	4701                	li	a4,0
4400356a:	f2c5c6e3          	blt	a1,a2,44003496 <__mulsf3+0x1b2>
4400356e:	09e98713          	add	a4,s3,158
44003572:	00ea1733          	sll	a4,s4,a4
44003576:	00e03733          	snez	a4,a4
4400357a:	00ca57b3          	srl	a5,s4,a2
4400357e:	8fd9                	or	a5,a5,a4
44003580:	0077f713          	and	a4,a5,7
44003584:	c719                	beqz	a4,44003592 <__mulsf3+0x2ae>
44003586:	00f7f713          	and	a4,a5,15
4400358a:	4611                	li	a2,4
4400358c:	00c70363          	beq	a4,a2,44003592 <__mulsf3+0x2ae>
44003590:	0791                	add	a5,a5,4
44003592:	00579713          	sll	a4,a5,0x5
44003596:	02075463          	bgez	a4,440035be <__mulsf3+0x2da>
4400359a:	4785                	li	a5,1
4400359c:	4701                	li	a4,0
4400359e:	bde5                	j	44003496 <__mulsf3+0x1b2>
440035a0:	45bd                	li	a1,15
440035a2:	4681                	li	a3,0
440035a4:	00400737          	lui	a4,0x400
440035a8:	8a56                	mv	s4,s5
440035aa:	4b0d                	li	s6,3
440035ac:	eeb485e3          	beq	s1,a1,44003496 <__mulsf3+0x1b2>
440035b0:	bf79                	j	4400354e <__mulsf3+0x26a>
440035b2:	89b2                	mv	s3,a2
440035b4:	b5b1                	j	44003400 <__mulsf3+0x11c>
440035b6:	0ff00793          	li	a5,255
440035ba:	4701                	li	a4,0
440035bc:	bde9                	j	44003496 <__mulsf3+0x1b2>
440035be:	079a                	sll	a5,a5,0x6
440035c0:	0097d713          	srl	a4,a5,0x9
440035c4:	4781                	li	a5,0
440035c6:	bdc1                	j	44003496 <__mulsf3+0x1b2>

440035c8 <__extendsfdf2>:
440035c8:	01755793          	srl	a5,a0,0x17
440035cc:	0ff7f793          	zext.b	a5,a5
440035d0:	1141                	add	sp,sp,-16
440035d2:	00178713          	add	a4,a5,1
440035d6:	c422                	sw	s0,8(sp)
440035d8:	c226                	sw	s1,4(sp)
440035da:	c606                	sw	ra,12(sp)
440035dc:	00951493          	sll	s1,a0,0x9
440035e0:	0fe77713          	and	a4,a4,254
440035e4:	80a5                	srl	s1,s1,0x9
440035e6:	01f55413          	srl	s0,a0,0x1f
440035ea:	c315                	beqz	a4,4400360e <__extendsfdf2+0x46>
440035ec:	0034d713          	srl	a4,s1,0x3
440035f0:	38078793          	add	a5,a5,896
440035f4:	04f6                	sll	s1,s1,0x1d
440035f6:	01f41513          	sll	a0,s0,0x1f
440035fa:	40b2                	lw	ra,12(sp)
440035fc:	4422                	lw	s0,8(sp)
440035fe:	07d2                	sll	a5,a5,0x14
44003600:	8fd9                	or	a5,a5,a4
44003602:	8fc9                	or	a5,a5,a0
44003604:	85be                	mv	a1,a5
44003606:	8526                	mv	a0,s1
44003608:	4492                	lw	s1,4(sp)
4400360a:	0141                	add	sp,sp,16
4400360c:	8082                	ret
4400360e:	e79d                	bnez	a5,4400363c <__extendsfdf2+0x74>
44003610:	c0b1                	beqz	s1,44003654 <__extendsfdf2+0x8c>
44003612:	8526                	mv	a0,s1
44003614:	240d                	jal	44003836 <__clzsi2>
44003616:	47a9                	li	a5,10
44003618:	04a7c563          	blt	a5,a0,44003662 <__extendsfdf2+0x9a>
4400361c:	472d                	li	a4,11
4400361e:	8f09                	sub	a4,a4,a0
44003620:	01550793          	add	a5,a0,21
44003624:	00e4d733          	srl	a4,s1,a4
44003628:	00f494b3          	sll	s1,s1,a5
4400362c:	38900793          	li	a5,905
44003630:	0732                	sll	a4,a4,0xc
44003632:	8f89                	sub	a5,a5,a0
44003634:	8331                	srl	a4,a4,0xc
44003636:	7ff7f793          	and	a5,a5,2047
4400363a:	bf75                	j	440035f6 <__extendsfdf2+0x2e>
4400363c:	cc99                	beqz	s1,4400365a <__extendsfdf2+0x92>
4400363e:	0034d713          	srl	a4,s1,0x3
44003642:	000807b7          	lui	a5,0x80
44003646:	8f5d                	or	a4,a4,a5
44003648:	0732                	sll	a4,a4,0xc
4400364a:	04f6                	sll	s1,s1,0x1d
4400364c:	8331                	srl	a4,a4,0xc
4400364e:	7ff00793          	li	a5,2047
44003652:	b755                	j	440035f6 <__extendsfdf2+0x2e>
44003654:	4781                	li	a5,0
44003656:	4701                	li	a4,0
44003658:	bf79                	j	440035f6 <__extendsfdf2+0x2e>
4400365a:	7ff00793          	li	a5,2047
4400365e:	4701                	li	a4,0
44003660:	bf59                	j	440035f6 <__extendsfdf2+0x2e>
44003662:	ff550713          	add	a4,a0,-11
44003666:	00e49733          	sll	a4,s1,a4
4400366a:	4481                	li	s1,0
4400366c:	b7c1                	j	4400362c <__extendsfdf2+0x64>

4400366e <__extendhfsf2>:
4400366e:	01051713          	sll	a4,a0,0x10
44003672:	8341                	srl	a4,a4,0x10
44003674:	00a75793          	srl	a5,a4,0xa
44003678:	8bfd                	and	a5,a5,31
4400367a:	1141                	add	sp,sp,-16
4400367c:	00178693          	add	a3,a5,1 # 80001 <input_img-0x41f7ffff>
44003680:	c422                	sw	s0,8(sp)
44003682:	c226                	sw	s1,4(sp)
44003684:	c606                	sw	ra,12(sp)
44003686:	8af9                	and	a3,a3,30
44003688:	3ff57413          	and	s0,a0,1023
4400368c:	00f75493          	srl	s1,a4,0xf
44003690:	ce91                	beqz	a3,440036ac <__extendhfsf2+0x3e>
44003692:	0436                	sll	s0,s0,0xd
44003694:	07078793          	add	a5,a5,112
44003698:	07de                	sll	a5,a5,0x17
4400369a:	40b2                	lw	ra,12(sp)
4400369c:	8fc1                	or	a5,a5,s0
4400369e:	4422                	lw	s0,8(sp)
440036a0:	01f49513          	sll	a0,s1,0x1f
440036a4:	8d5d                	or	a0,a0,a5
440036a6:	4492                	lw	s1,4(sp)
440036a8:	0141                	add	sp,sp,16
440036aa:	8082                	ret
440036ac:	e789                	bnez	a5,440036b6 <__extendhfsf2+0x48>
440036ae:	ec01                	bnez	s0,440036c6 <__extendhfsf2+0x58>
440036b0:	4781                	li	a5,0
440036b2:	4401                	li	s0,0
440036b4:	b7d5                	j	44003698 <__extendhfsf2+0x2a>
440036b6:	c415                	beqz	s0,440036e2 <__extendhfsf2+0x74>
440036b8:	004007b7          	lui	a5,0x400
440036bc:	0436                	sll	s0,s0,0xd
440036be:	8c5d                	or	s0,s0,a5
440036c0:	0ff00793          	li	a5,255
440036c4:	bfd1                	j	44003698 <__extendhfsf2+0x2a>
440036c6:	8522                	mv	a0,s0
440036c8:	22bd                	jal	44003836 <__clzsi2>
440036ca:	ff850793          	add	a5,a0,-8
440036ce:	00f41433          	sll	s0,s0,a5
440036d2:	08600793          	li	a5,134
440036d6:	0426                	sll	s0,s0,0x9
440036d8:	8f89                	sub	a5,a5,a0
440036da:	8025                	srl	s0,s0,0x9
440036dc:	0ff7f793          	zext.b	a5,a5
440036e0:	bf65                	j	44003698 <__extendhfsf2+0x2a>
440036e2:	0ff00793          	li	a5,255
440036e6:	4401                	li	s0,0
440036e8:	bf45                	j	44003698 <__extendhfsf2+0x2a>

440036ea <__truncdfsf2>:
440036ea:	0145d693          	srl	a3,a1,0x14
440036ee:	7ff6f693          	and	a3,a3,2047
440036f2:	00c59613          	sll	a2,a1,0xc
440036f6:	00168713          	add	a4,a3,1
440036fa:	8225                	srl	a2,a2,0x9
440036fc:	01d55793          	srl	a5,a0,0x1d
44003700:	7fe77713          	and	a4,a4,2046
44003704:	81fd                	srl	a1,a1,0x1f
44003706:	8e5d                	or	a2,a2,a5
44003708:	00351813          	sll	a6,a0,0x3
4400370c:	c305                	beqz	a4,4400372c <__truncdfsf2+0x42>
4400370e:	c8068713          	add	a4,a3,-896
44003712:	0fe00793          	li	a5,254
44003716:	02e7d663          	bge	a5,a4,44003742 <__truncdfsf2+0x58>
4400371a:	0ff00713          	li	a4,255
4400371e:	4781                	li	a5,0
44003720:	075e                	sll	a4,a4,0x17
44003722:	8f5d                	or	a4,a4,a5
44003724:	05fe                	sll	a1,a1,0x1f
44003726:	00b76533          	or	a0,a4,a1
4400372a:	8082                	ret
4400372c:	010667b3          	or	a5,a2,a6
44003730:	e2b1                	bnez	a3,44003774 <__truncdfsf2+0x8a>
44003732:	4701                	li	a4,0
44003734:	4781                	li	a5,0
44003736:	075e                	sll	a4,a4,0x17
44003738:	8f5d                	or	a4,a4,a5
4400373a:	05fe                	sll	a1,a1,0x1f
4400373c:	00b76533          	or	a0,a4,a1
44003740:	8082                	ret
44003742:	04e05763          	blez	a4,44003790 <__truncdfsf2+0xa6>
44003746:	00651793          	sll	a5,a0,0x6
4400374a:	00f037b3          	snez	a5,a5
4400374e:	060e                	sll	a2,a2,0x3
44003750:	01d85813          	srl	a6,a6,0x1d
44003754:	8fd1                	or	a5,a5,a2
44003756:	0107e7b3          	or	a5,a5,a6
4400375a:	0077f693          	and	a3,a5,7
4400375e:	c691                	beqz	a3,4400376a <__truncdfsf2+0x80>
44003760:	00f7f693          	and	a3,a5,15
44003764:	4611                	li	a2,4
44003766:	06c69e63          	bne	a3,a2,440037e2 <__truncdfsf2+0xf8>
4400376a:	079a                	sll	a5,a5,0x6
4400376c:	83a5                	srl	a5,a5,0x9
4400376e:	0ff77713          	zext.b	a4,a4
44003772:	b7d1                	j	44003736 <__truncdfsf2+0x4c>
44003774:	0ff00713          	li	a4,255
44003778:	dfdd                	beqz	a5,44003736 <__truncdfsf2+0x4c>
4400377a:	0ff00713          	li	a4,255
4400377e:	004007b7          	lui	a5,0x400
44003782:	4581                	li	a1,0
44003784:	075e                	sll	a4,a4,0x17
44003786:	8f5d                	or	a4,a4,a5
44003788:	05fe                	sll	a1,a1,0x1f
4400378a:	00b76533          	or	a0,a4,a1
4400378e:	8082                	ret
44003790:	57a5                	li	a5,-23
44003792:	faf740e3          	blt	a4,a5,44003732 <__truncdfsf2+0x48>
44003796:	4579                	li	a0,30
44003798:	008008b7          	lui	a7,0x800
4400379c:	8d19                	sub	a0,a0,a4
4400379e:	47fd                	li	a5,31
440037a0:	01166633          	or	a2,a2,a7
440037a4:	04a7de63          	bge	a5,a0,44003800 <__truncdfsf2+0x116>
440037a8:	57f9                	li	a5,-2
440037aa:	8f99                	sub	a5,a5,a4
440037ac:	02000713          	li	a4,32
440037b0:	00f657b3          	srl	a5,a2,a5
440037b4:	00e50863          	beq	a0,a4,440037c4 <__truncdfsf2+0xda>
440037b8:	ca268693          	add	a3,a3,-862
440037bc:	00d61633          	sll	a2,a2,a3
440037c0:	00c86833          	or	a6,a6,a2
440037c4:	01003833          	snez	a6,a6
440037c8:	00f867b3          	or	a5,a6,a5
440037cc:	0077f713          	and	a4,a5,7
440037d0:	cf39                	beqz	a4,4400382e <__truncdfsf2+0x144>
440037d2:	00f7f693          	and	a3,a5,15
440037d6:	4611                	li	a2,4
440037d8:	4701                	li	a4,0
440037da:	f8c688e3          	beq	a3,a2,4400376a <__truncdfsf2+0x80>
440037de:	0791                	add	a5,a5,4 # 400004 <input_img-0x41bffffc>
440037e0:	b769                	j	4400376a <__truncdfsf2+0x80>
440037e2:	0791                	add	a5,a5,4
440037e4:	00579693          	sll	a3,a5,0x5
440037e8:	f806d1e3          	bgez	a3,4400376a <__truncdfsf2+0x80>
440037ec:	0705                	add	a4,a4,1 # 400001 <input_img-0x41bfffff>
440037ee:	0ff77713          	zext.b	a4,a4
440037f2:	4781                	li	a5,0
440037f4:	075e                	sll	a4,a4,0x17
440037f6:	8f5d                	or	a4,a4,a5
440037f8:	05fe                	sll	a1,a1,0x1f
440037fa:	00b76533          	or	a0,a4,a1
440037fe:	8082                	ret
44003800:	c8268693          	add	a3,a3,-894
44003804:	00d817b3          	sll	a5,a6,a3
44003808:	00d61633          	sll	a2,a2,a3
4400380c:	00f037b3          	snez	a5,a5
44003810:	00a85833          	srl	a6,a6,a0
44003814:	8fd1                	or	a5,a5,a2
44003816:	00f867b3          	or	a5,a6,a5
4400381a:	0077f693          	and	a3,a5,7
4400381e:	4701                	li	a4,0
44003820:	f2a1                	bnez	a3,44003760 <__truncdfsf2+0x76>
44003822:	838d                	srl	a5,a5,0x3
44003824:	18fd                	add	a7,a7,-1 # 7fffff <input_img-0x41800001>
44003826:	0117f7b3          	and	a5,a5,a7
4400382a:	4701                	li	a4,0
4400382c:	b729                	j	44003736 <__truncdfsf2+0x4c>
4400382e:	079a                	sll	a5,a5,0x6
44003830:	83a5                	srl	a5,a5,0x9
44003832:	4701                	li	a4,0
44003834:	b709                	j	44003736 <__truncdfsf2+0x4c>

44003836 <__clzsi2>:
44003836:	67c1                	lui	a5,0x10
44003838:	02f57663          	bgeu	a0,a5,44003864 <__clzsi2+0x2e>
4400383c:	10053793          	sltiu	a5,a0,256
44003840:	0017b793          	seqz	a5,a5
44003844:	078e                	sll	a5,a5,0x3
44003846:	02000713          	li	a4,32
4400384a:	8f1d                	sub	a4,a4,a5
4400384c:	00f55533          	srl	a0,a0,a5
44003850:	0001f797          	auipc	a5,0x1f
44003854:	70078793          	add	a5,a5,1792 # 44022f50 <__clz_tab>
44003858:	97aa                	add	a5,a5,a0
4400385a:	0007c503          	lbu	a0,0(a5)
4400385e:	40a70533          	sub	a0,a4,a0
44003862:	8082                	ret
44003864:	010007b7          	lui	a5,0x1000
44003868:	02f57063          	bgeu	a0,a5,44003888 <__clzsi2+0x52>
4400386c:	47c1                	li	a5,16
4400386e:	00f55533          	srl	a0,a0,a5
44003872:	0001f797          	auipc	a5,0x1f
44003876:	6de78793          	add	a5,a5,1758 # 44022f50 <__clz_tab>
4400387a:	97aa                	add	a5,a5,a0
4400387c:	0007c503          	lbu	a0,0(a5)
44003880:	4741                	li	a4,16
44003882:	40a70533          	sub	a0,a4,a0
44003886:	8082                	ret
44003888:	47e1                	li	a5,24
4400388a:	00f55533          	srl	a0,a0,a5
4400388e:	0001f797          	auipc	a5,0x1f
44003892:	6c278793          	add	a5,a5,1730 # 44022f50 <__clz_tab>
44003896:	97aa                	add	a5,a5,a0
44003898:	0007c503          	lbu	a0,0(a5)
4400389c:	4721                	li	a4,8
4400389e:	40a70533          	sub	a0,a4,a0
440038a2:	8082                	ret

440038a4 <__errno>:
440038a4:	fdffe517          	auipc	a0,0xfdffe
440038a8:	c9052503          	lw	a0,-880(a0) # 42001534 <_impure_ptr>
440038ac:	8082                	ret

440038ae <stdio_exit_handler>:
440038ae:	fdffe617          	auipc	a2,0xfdffe
440038b2:	87260613          	add	a2,a2,-1934 # 42001120 <__sglue>
440038b6:	00001597          	auipc	a1,0x1
440038ba:	f4858593          	add	a1,a1,-184 # 440047fe <_fclose_r>
440038be:	fdffd517          	auipc	a0,0xfdffd
440038c2:	74250513          	add	a0,a0,1858 # 42001000 <_impure_data>
440038c6:	ae41                	j	44003c56 <_fwalk_sglue>

440038c8 <cleanup_stdio>:
440038c8:	414c                	lw	a1,4(a0)
440038ca:	1141                	add	sp,sp,-16
440038cc:	c422                	sw	s0,8(sp)
440038ce:	c606                	sw	ra,12(sp)
440038d0:	fe005797          	auipc	a5,0xfe005
440038d4:	4d078793          	add	a5,a5,1232 # 42008da0 <__sf>
440038d8:	842a                	mv	s0,a0
440038da:	00f58463          	beq	a1,a5,440038e2 <cleanup_stdio+0x1a>
440038de:	721000ef          	jal	440047fe <_fclose_r>
440038e2:	440c                	lw	a1,8(s0)
440038e4:	fe005797          	auipc	a5,0xfe005
440038e8:	52478793          	add	a5,a5,1316 # 42008e08 <__sf+0x68>
440038ec:	00f58563          	beq	a1,a5,440038f6 <cleanup_stdio+0x2e>
440038f0:	8522                	mv	a0,s0
440038f2:	70d000ef          	jal	440047fe <_fclose_r>
440038f6:	444c                	lw	a1,12(s0)
440038f8:	fe005797          	auipc	a5,0xfe005
440038fc:	57878793          	add	a5,a5,1400 # 42008e70 <__sf+0xd0>
44003900:	00f58863          	beq	a1,a5,44003910 <cleanup_stdio+0x48>
44003904:	8522                	mv	a0,s0
44003906:	4422                	lw	s0,8(sp)
44003908:	40b2                	lw	ra,12(sp)
4400390a:	0141                	add	sp,sp,16
4400390c:	6f30006f          	j	440047fe <_fclose_r>
44003910:	40b2                	lw	ra,12(sp)
44003912:	4422                	lw	s0,8(sp)
44003914:	0141                	add	sp,sp,16
44003916:	8082                	ret

44003918 <__fp_lock>:
44003918:	51fc                	lw	a5,100(a1)
4400391a:	8b85                	and	a5,a5,1
4400391c:	e791                	bnez	a5,44003928 <__fp_lock+0x10>
4400391e:	00c5d783          	lhu	a5,12(a1)
44003922:	2007f793          	and	a5,a5,512
44003926:	c399                	beqz	a5,4400392c <__fp_lock+0x14>
44003928:	4501                	li	a0,0
4400392a:	8082                	ret
4400392c:	4da8                	lw	a0,88(a1)
4400392e:	1141                	add	sp,sp,-16
44003930:	c606                	sw	ra,12(sp)
44003932:	2be9                	jal	44003f0c <__retarget_lock_acquire_recursive>
44003934:	40b2                	lw	ra,12(sp)
44003936:	4501                	li	a0,0
44003938:	0141                	add	sp,sp,16
4400393a:	8082                	ret

4400393c <__fp_unlock>:
4400393c:	51fc                	lw	a5,100(a1)
4400393e:	8b85                	and	a5,a5,1
44003940:	e791                	bnez	a5,4400394c <__fp_unlock+0x10>
44003942:	00c5d783          	lhu	a5,12(a1)
44003946:	2007f793          	and	a5,a5,512
4400394a:	c399                	beqz	a5,44003950 <__fp_unlock+0x14>
4400394c:	4501                	li	a0,0
4400394e:	8082                	ret
44003950:	4da8                	lw	a0,88(a1)
44003952:	1141                	add	sp,sp,-16
44003954:	c606                	sw	ra,12(sp)
44003956:	23c9                	jal	44003f18 <__retarget_lock_release_recursive>
44003958:	40b2                	lw	ra,12(sp)
4400395a:	4501                	li	a0,0
4400395c:	0141                	add	sp,sp,16
4400395e:	8082                	ret

44003960 <global_stdio_init.part.0>:
44003960:	1101                	add	sp,sp,-32
44003962:	00000797          	auipc	a5,0x0
44003966:	f4c78793          	add	a5,a5,-180 # 440038ae <stdio_exit_handler>
4400396a:	ce06                	sw	ra,28(sp)
4400396c:	cc22                	sw	s0,24(sp)
4400396e:	ca26                	sw	s1,20(sp)
44003970:	fe005417          	auipc	s0,0xfe005
44003974:	43040413          	add	s0,s0,1072 # 42008da0 <__sf>
44003978:	c84a                	sw	s2,16(sp)
4400397a:	c64e                	sw	s3,12(sp)
4400397c:	c452                	sw	s4,8(sp)
4400397e:	4621                	li	a2,8
44003980:	4581                	li	a1,0
44003982:	fe005717          	auipc	a4,0xfe005
44003986:	58f72d23          	sw	a5,1434(a4) # 42008f1c <__stdio_exit_handler>
4400398a:	fe005517          	auipc	a0,0xfe005
4400398e:	47250513          	add	a0,a0,1138 # 42008dfc <__sf+0x5c>
44003992:	4791                	li	a5,4
44003994:	c45c                	sw	a5,12(s0)
44003996:	00042023          	sw	zero,0(s0)
4400399a:	00042223          	sw	zero,4(s0)
4400399e:	00042423          	sw	zero,8(s0)
440039a2:	06042223          	sw	zero,100(s0)
440039a6:	00042823          	sw	zero,16(s0)
440039aa:	00042a23          	sw	zero,20(s0)
440039ae:	00042c23          	sw	zero,24(s0)
440039b2:	92cfd0ef          	jal	44000ade <memset>
440039b6:	00000a17          	auipc	s4,0x0
440039ba:	312a0a13          	add	s4,s4,786 # 44003cc8 <__sread>
440039be:	00000997          	auipc	s3,0x0
440039c2:	34498993          	add	s3,s3,836 # 44003d02 <__swrite>
440039c6:	00000917          	auipc	s2,0x0
440039ca:	38c90913          	add	s2,s2,908 # 44003d52 <__sseek>
440039ce:	00000497          	auipc	s1,0x0
440039d2:	3cc48493          	add	s1,s1,972 # 44003d9a <__sclose>
440039d6:	fe005517          	auipc	a0,0xfe005
440039da:	42250513          	add	a0,a0,1058 # 42008df8 <__sf+0x58>
440039de:	03442023          	sw	s4,32(s0)
440039e2:	03342223          	sw	s3,36(s0)
440039e6:	03242423          	sw	s2,40(s0)
440039ea:	d444                	sw	s1,44(s0)
440039ec:	cc40                	sw	s0,28(s0)
440039ee:	2b19                	jal	44003f04 <__retarget_lock_init_recursive>
440039f0:	67c1                	lui	a5,0x10
440039f2:	07a5                	add	a5,a5,9 # 10009 <input_img-0x41fefff7>
440039f4:	4621                	li	a2,8
440039f6:	4581                	li	a1,0
440039f8:	fe005517          	auipc	a0,0xfe005
440039fc:	46c50513          	add	a0,a0,1132 # 42008e64 <__sf+0xc4>
44003a00:	d87c                	sw	a5,116(s0)
44003a02:	06042423          	sw	zero,104(s0)
44003a06:	06042623          	sw	zero,108(s0)
44003a0a:	06042823          	sw	zero,112(s0)
44003a0e:	0c042623          	sw	zero,204(s0)
44003a12:	06042c23          	sw	zero,120(s0)
44003a16:	06042e23          	sw	zero,124(s0)
44003a1a:	08042023          	sw	zero,128(s0)
44003a1e:	8c0fd0ef          	jal	44000ade <memset>
44003a22:	fe005797          	auipc	a5,0xfe005
44003a26:	3e678793          	add	a5,a5,998 # 42008e08 <__sf+0x68>
44003a2a:	fe005517          	auipc	a0,0xfe005
44003a2e:	43650513          	add	a0,a0,1078 # 42008e60 <__sf+0xc0>
44003a32:	08f42223          	sw	a5,132(s0)
44003a36:	09442423          	sw	s4,136(s0)
44003a3a:	09342623          	sw	s3,140(s0)
44003a3e:	09242823          	sw	s2,144(s0)
44003a42:	08942a23          	sw	s1,148(s0)
44003a46:	297d                	jal	44003f04 <__retarget_lock_init_recursive>
44003a48:	000207b7          	lui	a5,0x20
44003a4c:	07c9                	add	a5,a5,18 # 20012 <input_img-0x41fdffee>
44003a4e:	4621                	li	a2,8
44003a50:	4581                	li	a1,0
44003a52:	fe005517          	auipc	a0,0xfe005
44003a56:	47a50513          	add	a0,a0,1146 # 42008ecc <__sf+0x12c>
44003a5a:	0cf42e23          	sw	a5,220(s0)
44003a5e:	0c042823          	sw	zero,208(s0)
44003a62:	0c042a23          	sw	zero,212(s0)
44003a66:	0c042c23          	sw	zero,216(s0)
44003a6a:	12042a23          	sw	zero,308(s0)
44003a6e:	0e042023          	sw	zero,224(s0)
44003a72:	0e042223          	sw	zero,228(s0)
44003a76:	0e042423          	sw	zero,232(s0)
44003a7a:	864fd0ef          	jal	44000ade <memset>
44003a7e:	fe005797          	auipc	a5,0xfe005
44003a82:	3f278793          	add	a5,a5,1010 # 42008e70 <__sf+0xd0>
44003a86:	0f442823          	sw	s4,240(s0)
44003a8a:	0f342a23          	sw	s3,244(s0)
44003a8e:	0f242c23          	sw	s2,248(s0)
44003a92:	0e942e23          	sw	s1,252(s0)
44003a96:	0ef42623          	sw	a5,236(s0)
44003a9a:	4462                	lw	s0,24(sp)
44003a9c:	40f2                	lw	ra,28(sp)
44003a9e:	44d2                	lw	s1,20(sp)
44003aa0:	4942                	lw	s2,16(sp)
44003aa2:	49b2                	lw	s3,12(sp)
44003aa4:	4a22                	lw	s4,8(sp)
44003aa6:	fe005517          	auipc	a0,0xfe005
44003aaa:	42250513          	add	a0,a0,1058 # 42008ec8 <__sf+0x128>
44003aae:	6105                	add	sp,sp,32
44003ab0:	a991                	j	44003f04 <__retarget_lock_init_recursive>

44003ab2 <__sfp>:
44003ab2:	1101                	add	sp,sp,-32
44003ab4:	c64e                	sw	s3,12(sp)
44003ab6:	89aa                	mv	s3,a0
44003ab8:	fe005517          	auipc	a0,0xfe005
44003abc:	48850513          	add	a0,a0,1160 # 42008f40 <__lock___sfp_recursive_mutex>
44003ac0:	ce06                	sw	ra,28(sp)
44003ac2:	cc22                	sw	s0,24(sp)
44003ac4:	ca26                	sw	s1,20(sp)
44003ac6:	c84a                	sw	s2,16(sp)
44003ac8:	2191                	jal	44003f0c <__retarget_lock_acquire_recursive>
44003aca:	fe005797          	auipc	a5,0xfe005
44003ace:	4527a783          	lw	a5,1106(a5) # 42008f1c <__stdio_exit_handler>
44003ad2:	cfdd                	beqz	a5,44003b90 <__sfp+0xde>
44003ad4:	fdffd917          	auipc	s2,0xfdffd
44003ad8:	64c90913          	add	s2,s2,1612 # 42001120 <__sglue>
44003adc:	54fd                	li	s1,-1
44003ade:	00492783          	lw	a5,4(s2)
44003ae2:	00892403          	lw	s0,8(s2)
44003ae6:	17fd                	add	a5,a5,-1
44003ae8:	0007d763          	bgez	a5,44003af6 <__sfp+0x44>
44003aec:	a885                	j	44003b5c <__sfp+0xaa>
44003aee:	06840413          	add	s0,s0,104
44003af2:	06978563          	beq	a5,s1,44003b5c <__sfp+0xaa>
44003af6:	00c41703          	lh	a4,12(s0)
44003afa:	17fd                	add	a5,a5,-1
44003afc:	fb6d                	bnez	a4,44003aee <__sfp+0x3c>
44003afe:	77c1                	lui	a5,0xffff0
44003b00:	0785                	add	a5,a5,1 # ffff0001 <_sidata+0xbbfccf11>
44003b02:	c45c                	sw	a5,12(s0)
44003b04:	05840513          	add	a0,s0,88
44003b08:	06042223          	sw	zero,100(s0)
44003b0c:	2ee5                	jal	44003f04 <__retarget_lock_init_recursive>
44003b0e:	fe005517          	auipc	a0,0xfe005
44003b12:	43250513          	add	a0,a0,1074 # 42008f40 <__lock___sfp_recursive_mutex>
44003b16:	2109                	jal	44003f18 <__retarget_lock_release_recursive>
44003b18:	4621                	li	a2,8
44003b1a:	00042023          	sw	zero,0(s0)
44003b1e:	00042423          	sw	zero,8(s0)
44003b22:	00042223          	sw	zero,4(s0)
44003b26:	00042823          	sw	zero,16(s0)
44003b2a:	00042a23          	sw	zero,20(s0)
44003b2e:	00042c23          	sw	zero,24(s0)
44003b32:	4581                	li	a1,0
44003b34:	05c40513          	add	a0,s0,92
44003b38:	fa7fc0ef          	jal	44000ade <memset>
44003b3c:	02042823          	sw	zero,48(s0)
44003b40:	02042a23          	sw	zero,52(s0)
44003b44:	04042223          	sw	zero,68(s0)
44003b48:	04042423          	sw	zero,72(s0)
44003b4c:	40f2                	lw	ra,28(sp)
44003b4e:	8522                	mv	a0,s0
44003b50:	4462                	lw	s0,24(sp)
44003b52:	44d2                	lw	s1,20(sp)
44003b54:	4942                	lw	s2,16(sp)
44003b56:	49b2                	lw	s3,12(sp)
44003b58:	6105                	add	sp,sp,32
44003b5a:	8082                	ret
44003b5c:	00092403          	lw	s0,0(s2)
44003b60:	c019                	beqz	s0,44003b66 <__sfp+0xb4>
44003b62:	8922                	mv	s2,s0
44003b64:	bfad                	j	44003ade <__sfp+0x2c>
44003b66:	1ac00593          	li	a1,428
44003b6a:	854e                	mv	a0,s3
44003b6c:	2d65                	jal	44004224 <_malloc_r>
44003b6e:	842a                	mv	s0,a0
44003b70:	c115                	beqz	a0,44003b94 <__sfp+0xe2>
44003b72:	0531                	add	a0,a0,12
44003b74:	4791                	li	a5,4
44003b76:	00042023          	sw	zero,0(s0)
44003b7a:	c05c                	sw	a5,4(s0)
44003b7c:	c408                	sw	a0,8(s0)
44003b7e:	1a000613          	li	a2,416
44003b82:	4581                	li	a1,0
44003b84:	f5bfc0ef          	jal	44000ade <memset>
44003b88:	00892023          	sw	s0,0(s2)
44003b8c:	8922                	mv	s2,s0
44003b8e:	bf81                	j	44003ade <__sfp+0x2c>
44003b90:	3bc1                	jal	44003960 <global_stdio_init.part.0>
44003b92:	b789                	j	44003ad4 <__sfp+0x22>
44003b94:	00092023          	sw	zero,0(s2)
44003b98:	fe005517          	auipc	a0,0xfe005
44003b9c:	3a850513          	add	a0,a0,936 # 42008f40 <__lock___sfp_recursive_mutex>
44003ba0:	2ea5                	jal	44003f18 <__retarget_lock_release_recursive>
44003ba2:	47b1                	li	a5,12
44003ba4:	00f9a023          	sw	a5,0(s3)
44003ba8:	b755                	j	44003b4c <__sfp+0x9a>

44003baa <__sinit>:
44003baa:	1141                	add	sp,sp,-16
44003bac:	c422                	sw	s0,8(sp)
44003bae:	842a                	mv	s0,a0
44003bb0:	fe005517          	auipc	a0,0xfe005
44003bb4:	39050513          	add	a0,a0,912 # 42008f40 <__lock___sfp_recursive_mutex>
44003bb8:	c606                	sw	ra,12(sp)
44003bba:	2e89                	jal	44003f0c <__retarget_lock_acquire_recursive>
44003bbc:	585c                	lw	a5,52(s0)
44003bbe:	eb99                	bnez	a5,44003bd4 <__sinit+0x2a>
44003bc0:	00000797          	auipc	a5,0x0
44003bc4:	d0878793          	add	a5,a5,-760 # 440038c8 <cleanup_stdio>
44003bc8:	d85c                	sw	a5,52(s0)
44003bca:	fe005797          	auipc	a5,0xfe005
44003bce:	3527a783          	lw	a5,850(a5) # 42008f1c <__stdio_exit_handler>
44003bd2:	cb89                	beqz	a5,44003be4 <__sinit+0x3a>
44003bd4:	4422                	lw	s0,8(sp)
44003bd6:	40b2                	lw	ra,12(sp)
44003bd8:	fe005517          	auipc	a0,0xfe005
44003bdc:	36850513          	add	a0,a0,872 # 42008f40 <__lock___sfp_recursive_mutex>
44003be0:	0141                	add	sp,sp,16
44003be2:	ae1d                	j	44003f18 <__retarget_lock_release_recursive>
44003be4:	3bb5                	jal	44003960 <global_stdio_init.part.0>
44003be6:	4422                	lw	s0,8(sp)
44003be8:	40b2                	lw	ra,12(sp)
44003bea:	fe005517          	auipc	a0,0xfe005
44003bee:	35650513          	add	a0,a0,854 # 42008f40 <__lock___sfp_recursive_mutex>
44003bf2:	0141                	add	sp,sp,16
44003bf4:	a615                	j	44003f18 <__retarget_lock_release_recursive>

44003bf6 <__sfp_lock_acquire>:
44003bf6:	fe005517          	auipc	a0,0xfe005
44003bfa:	34a50513          	add	a0,a0,842 # 42008f40 <__lock___sfp_recursive_mutex>
44003bfe:	a639                	j	44003f0c <__retarget_lock_acquire_recursive>

44003c00 <__sfp_lock_release>:
44003c00:	fe005517          	auipc	a0,0xfe005
44003c04:	34050513          	add	a0,a0,832 # 42008f40 <__lock___sfp_recursive_mutex>
44003c08:	ae01                	j	44003f18 <__retarget_lock_release_recursive>

44003c0a <__fp_lock_all>:
44003c0a:	1141                	add	sp,sp,-16
44003c0c:	fe005517          	auipc	a0,0xfe005
44003c10:	33450513          	add	a0,a0,820 # 42008f40 <__lock___sfp_recursive_mutex>
44003c14:	c606                	sw	ra,12(sp)
44003c16:	2cdd                	jal	44003f0c <__retarget_lock_acquire_recursive>
44003c18:	40b2                	lw	ra,12(sp)
44003c1a:	fdffd617          	auipc	a2,0xfdffd
44003c1e:	50660613          	add	a2,a2,1286 # 42001120 <__sglue>
44003c22:	00000597          	auipc	a1,0x0
44003c26:	cf658593          	add	a1,a1,-778 # 44003918 <__fp_lock>
44003c2a:	4501                	li	a0,0
44003c2c:	0141                	add	sp,sp,16
44003c2e:	a025                	j	44003c56 <_fwalk_sglue>

44003c30 <__fp_unlock_all>:
44003c30:	1141                	add	sp,sp,-16
44003c32:	fdffd617          	auipc	a2,0xfdffd
44003c36:	4ee60613          	add	a2,a2,1262 # 42001120 <__sglue>
44003c3a:	00000597          	auipc	a1,0x0
44003c3e:	d0258593          	add	a1,a1,-766 # 4400393c <__fp_unlock>
44003c42:	4501                	li	a0,0
44003c44:	c606                	sw	ra,12(sp)
44003c46:	2801                	jal	44003c56 <_fwalk_sglue>
44003c48:	40b2                	lw	ra,12(sp)
44003c4a:	fe005517          	auipc	a0,0xfe005
44003c4e:	2f650513          	add	a0,a0,758 # 42008f40 <__lock___sfp_recursive_mutex>
44003c52:	0141                	add	sp,sp,16
44003c54:	a4d1                	j	44003f18 <__retarget_lock_release_recursive>

44003c56 <_fwalk_sglue>:
44003c56:	7179                	add	sp,sp,-48
44003c58:	d04a                	sw	s2,32(sp)
44003c5a:	ce4e                	sw	s3,28(sp)
44003c5c:	cc52                	sw	s4,24(sp)
44003c5e:	ca56                	sw	s5,20(sp)
44003c60:	c85a                	sw	s6,16(sp)
44003c62:	c65e                	sw	s7,12(sp)
44003c64:	d606                	sw	ra,44(sp)
44003c66:	d422                	sw	s0,40(sp)
44003c68:	d226                	sw	s1,36(sp)
44003c6a:	8b2a                	mv	s6,a0
44003c6c:	8bae                	mv	s7,a1
44003c6e:	8ab2                	mv	s5,a2
44003c70:	4a01                	li	s4,0
44003c72:	4985                	li	s3,1
44003c74:	597d                	li	s2,-1
44003c76:	004aa483          	lw	s1,4(s5)
44003c7a:	008aa403          	lw	s0,8(s5)
44003c7e:	14fd                	add	s1,s1,-1
44003c80:	0204c463          	bltz	s1,44003ca8 <_fwalk_sglue+0x52>
44003c84:	00c45783          	lhu	a5,12(s0)
44003c88:	00f9fb63          	bgeu	s3,a5,44003c9e <_fwalk_sglue+0x48>
44003c8c:	00e41783          	lh	a5,14(s0)
44003c90:	85a2                	mv	a1,s0
44003c92:	855a                	mv	a0,s6
44003c94:	01278563          	beq	a5,s2,44003c9e <_fwalk_sglue+0x48>
44003c98:	9b82                	jalr	s7
44003c9a:	00aa6a33          	or	s4,s4,a0
44003c9e:	14fd                	add	s1,s1,-1
44003ca0:	06840413          	add	s0,s0,104
44003ca4:	ff2490e3          	bne	s1,s2,44003c84 <_fwalk_sglue+0x2e>
44003ca8:	000aaa83          	lw	s5,0(s5)
44003cac:	fc0a95e3          	bnez	s5,44003c76 <_fwalk_sglue+0x20>
44003cb0:	50b2                	lw	ra,44(sp)
44003cb2:	5422                	lw	s0,40(sp)
44003cb4:	5492                	lw	s1,36(sp)
44003cb6:	5902                	lw	s2,32(sp)
44003cb8:	49f2                	lw	s3,28(sp)
44003cba:	4ad2                	lw	s5,20(sp)
44003cbc:	4b42                	lw	s6,16(sp)
44003cbe:	4bb2                	lw	s7,12(sp)
44003cc0:	8552                	mv	a0,s4
44003cc2:	4a62                	lw	s4,24(sp)
44003cc4:	6145                	add	sp,sp,48
44003cc6:	8082                	ret

44003cc8 <__sread>:
44003cc8:	1141                	add	sp,sp,-16
44003cca:	c422                	sw	s0,8(sp)
44003ccc:	842e                	mv	s0,a1
44003cce:	00e59583          	lh	a1,14(a1)
44003cd2:	c606                	sw	ra,12(sp)
44003cd4:	2a4d                	jal	44003e86 <_read_r>
44003cd6:	00054963          	bltz	a0,44003ce8 <__sread+0x20>
44003cda:	483c                	lw	a5,80(s0)
44003cdc:	40b2                	lw	ra,12(sp)
44003cde:	97aa                	add	a5,a5,a0
44003ce0:	c83c                	sw	a5,80(s0)
44003ce2:	4422                	lw	s0,8(sp)
44003ce4:	0141                	add	sp,sp,16
44003ce6:	8082                	ret
44003ce8:	00c45783          	lhu	a5,12(s0)
44003cec:	777d                	lui	a4,0xfffff
44003cee:	177d                	add	a4,a4,-1 # ffffefff <_sidata+0xbbfdbf0f>
44003cf0:	8ff9                	and	a5,a5,a4
44003cf2:	40b2                	lw	ra,12(sp)
44003cf4:	00f41623          	sh	a5,12(s0)
44003cf8:	4422                	lw	s0,8(sp)
44003cfa:	0141                	add	sp,sp,16
44003cfc:	8082                	ret

44003cfe <__seofread>:
44003cfe:	4501                	li	a0,0
44003d00:	8082                	ret

44003d02 <__swrite>:
44003d02:	00c59783          	lh	a5,12(a1)
44003d06:	1101                	add	sp,sp,-32
44003d08:	cc22                	sw	s0,24(sp)
44003d0a:	ca26                	sw	s1,20(sp)
44003d0c:	c84a                	sw	s2,16(sp)
44003d0e:	c64e                	sw	s3,12(sp)
44003d10:	ce06                	sw	ra,28(sp)
44003d12:	1007f713          	and	a4,a5,256
44003d16:	842e                	mv	s0,a1
44003d18:	84aa                	mv	s1,a0
44003d1a:	8932                	mv	s2,a2
44003d1c:	89b6                	mv	s3,a3
44003d1e:	e315                	bnez	a4,44003d42 <__swrite+0x40>
44003d20:	777d                	lui	a4,0xfffff
44003d22:	177d                	add	a4,a4,-1 # ffffefff <_sidata+0xbbfdbf0f>
44003d24:	8ff9                	and	a5,a5,a4
44003d26:	00e41583          	lh	a1,14(s0)
44003d2a:	00f41623          	sh	a5,12(s0)
44003d2e:	4462                	lw	s0,24(sp)
44003d30:	40f2                	lw	ra,28(sp)
44003d32:	86ce                	mv	a3,s3
44003d34:	864a                	mv	a2,s2
44003d36:	49b2                	lw	s3,12(sp)
44003d38:	4942                	lw	s2,16(sp)
44003d3a:	8526                	mv	a0,s1
44003d3c:	44d2                	lw	s1,20(sp)
44003d3e:	6105                	add	sp,sp,32
44003d40:	a251                	j	44003ec4 <_write_r>
44003d42:	00e59583          	lh	a1,14(a1)
44003d46:	4689                	li	a3,2
44003d48:	4601                	li	a2,0
44003d4a:	28fd                	jal	44003e48 <_lseek_r>
44003d4c:	00c41783          	lh	a5,12(s0)
44003d50:	bfc1                	j	44003d20 <__swrite+0x1e>

44003d52 <__sseek>:
44003d52:	1141                	add	sp,sp,-16
44003d54:	c422                	sw	s0,8(sp)
44003d56:	842e                	mv	s0,a1
44003d58:	00e59583          	lh	a1,14(a1)
44003d5c:	c606                	sw	ra,12(sp)
44003d5e:	20ed                	jal	44003e48 <_lseek_r>
44003d60:	57fd                	li	a5,-1
44003d62:	00f50f63          	beq	a0,a5,44003d80 <__sseek+0x2e>
44003d66:	00c45783          	lhu	a5,12(s0)
44003d6a:	6705                	lui	a4,0x1
44003d6c:	40b2                	lw	ra,12(sp)
44003d6e:	8fd9                	or	a5,a5,a4
44003d70:	07c2                	sll	a5,a5,0x10
44003d72:	87c1                	sra	a5,a5,0x10
44003d74:	c828                	sw	a0,80(s0)
44003d76:	00f41623          	sh	a5,12(s0)
44003d7a:	4422                	lw	s0,8(sp)
44003d7c:	0141                	add	sp,sp,16
44003d7e:	8082                	ret
44003d80:	00c45783          	lhu	a5,12(s0)
44003d84:	777d                	lui	a4,0xfffff
44003d86:	177d                	add	a4,a4,-1 # ffffefff <_sidata+0xbbfdbf0f>
44003d88:	8ff9                	and	a5,a5,a4
44003d8a:	07c2                	sll	a5,a5,0x10
44003d8c:	87c1                	sra	a5,a5,0x10
44003d8e:	40b2                	lw	ra,12(sp)
44003d90:	00f41623          	sh	a5,12(s0)
44003d94:	4422                	lw	s0,8(sp)
44003d96:	0141                	add	sp,sp,16
44003d98:	8082                	ret

44003d9a <__sclose>:
44003d9a:	00e59583          	lh	a1,14(a1)
44003d9e:	a009                	j	44003da0 <_close_r>

44003da0 <_close_r>:
44003da0:	1141                	add	sp,sp,-16
44003da2:	c422                	sw	s0,8(sp)
44003da4:	842a                	mv	s0,a0
44003da6:	852e                	mv	a0,a1
44003da8:	fe005797          	auipc	a5,0xfe005
44003dac:	1607ac23          	sw	zero,376(a5) # 42008f20 <errno>
44003db0:	c606                	sw	ra,12(sp)
44003db2:	615000ef          	jal	44004bc6 <_close>
44003db6:	57fd                	li	a5,-1
44003db8:	00f50663          	beq	a0,a5,44003dc4 <_close_r+0x24>
44003dbc:	40b2                	lw	ra,12(sp)
44003dbe:	4422                	lw	s0,8(sp)
44003dc0:	0141                	add	sp,sp,16
44003dc2:	8082                	ret
44003dc4:	fe005797          	auipc	a5,0xfe005
44003dc8:	15c7a783          	lw	a5,348(a5) # 42008f20 <errno>
44003dcc:	dbe5                	beqz	a5,44003dbc <_close_r+0x1c>
44003dce:	40b2                	lw	ra,12(sp)
44003dd0:	c01c                	sw	a5,0(s0)
44003dd2:	4422                	lw	s0,8(sp)
44003dd4:	0141                	add	sp,sp,16
44003dd6:	8082                	ret

44003dd8 <_reclaim_reent>:
44003dd8:	fdffd797          	auipc	a5,0xfdffd
44003ddc:	75c7a783          	lw	a5,1884(a5) # 42001534 <_impure_ptr>
44003de0:	06a78363          	beq	a5,a0,44003e46 <_reclaim_reent+0x6e>
44003de4:	416c                	lw	a1,68(a0)
44003de6:	1101                	add	sp,sp,-32
44003de8:	ca26                	sw	s1,20(sp)
44003dea:	ce06                	sw	ra,28(sp)
44003dec:	84aa                	mv	s1,a0
44003dee:	c98d                	beqz	a1,44003e20 <_reclaim_reent+0x48>
44003df0:	c84a                	sw	s2,16(sp)
44003df2:	c64e                	sw	s3,12(sp)
44003df4:	cc22                	sw	s0,24(sp)
44003df6:	4901                	li	s2,0
44003df8:	08000993          	li	s3,128
44003dfc:	012587b3          	add	a5,a1,s2
44003e00:	4380                	lw	s0,0(a5)
44003e02:	c419                	beqz	s0,44003e10 <_reclaim_reent+0x38>
44003e04:	85a2                	mv	a1,s0
44003e06:	4000                	lw	s0,0(s0)
44003e08:	8526                	mv	a0,s1
44003e0a:	22ed                	jal	44003ff4 <_free_r>
44003e0c:	fc65                	bnez	s0,44003e04 <_reclaim_reent+0x2c>
44003e0e:	40ec                	lw	a1,68(s1)
44003e10:	0911                	add	s2,s2,4
44003e12:	ff3915e3          	bne	s2,s3,44003dfc <_reclaim_reent+0x24>
44003e16:	8526                	mv	a0,s1
44003e18:	2af1                	jal	44003ff4 <_free_r>
44003e1a:	4462                	lw	s0,24(sp)
44003e1c:	4942                	lw	s2,16(sp)
44003e1e:	49b2                	lw	s3,12(sp)
44003e20:	5c8c                	lw	a1,56(s1)
44003e22:	c199                	beqz	a1,44003e28 <_reclaim_reent+0x50>
44003e24:	8526                	mv	a0,s1
44003e26:	22f9                	jal	44003ff4 <_free_r>
44003e28:	44ec                	lw	a1,76(s1)
44003e2a:	c199                	beqz	a1,44003e30 <_reclaim_reent+0x58>
44003e2c:	8526                	mv	a0,s1
44003e2e:	22d9                	jal	44003ff4 <_free_r>
44003e30:	58dc                	lw	a5,52(s1)
44003e32:	c791                	beqz	a5,44003e3e <_reclaim_reent+0x66>
44003e34:	40f2                	lw	ra,28(sp)
44003e36:	8526                	mv	a0,s1
44003e38:	44d2                	lw	s1,20(sp)
44003e3a:	6105                	add	sp,sp,32
44003e3c:	8782                	jr	a5
44003e3e:	40f2                	lw	ra,28(sp)
44003e40:	44d2                	lw	s1,20(sp)
44003e42:	6105                	add	sp,sp,32
44003e44:	8082                	ret
44003e46:	8082                	ret

44003e48 <_lseek_r>:
44003e48:	1141                	add	sp,sp,-16
44003e4a:	872e                	mv	a4,a1
44003e4c:	c422                	sw	s0,8(sp)
44003e4e:	85b2                	mv	a1,a2
44003e50:	842a                	mv	s0,a0
44003e52:	8636                	mv	a2,a3
44003e54:	853a                	mv	a0,a4
44003e56:	fe005797          	auipc	a5,0xfe005
44003e5a:	0c07a523          	sw	zero,202(a5) # 42008f20 <errno>
44003e5e:	c606                	sw	ra,12(sp)
44003e60:	593000ef          	jal	44004bf2 <_lseek>
44003e64:	57fd                	li	a5,-1
44003e66:	00f50663          	beq	a0,a5,44003e72 <_lseek_r+0x2a>
44003e6a:	40b2                	lw	ra,12(sp)
44003e6c:	4422                	lw	s0,8(sp)
44003e6e:	0141                	add	sp,sp,16
44003e70:	8082                	ret
44003e72:	fe005797          	auipc	a5,0xfe005
44003e76:	0ae7a783          	lw	a5,174(a5) # 42008f20 <errno>
44003e7a:	dbe5                	beqz	a5,44003e6a <_lseek_r+0x22>
44003e7c:	40b2                	lw	ra,12(sp)
44003e7e:	c01c                	sw	a5,0(s0)
44003e80:	4422                	lw	s0,8(sp)
44003e82:	0141                	add	sp,sp,16
44003e84:	8082                	ret

44003e86 <_read_r>:
44003e86:	1141                	add	sp,sp,-16
44003e88:	872e                	mv	a4,a1
44003e8a:	c422                	sw	s0,8(sp)
44003e8c:	85b2                	mv	a1,a2
44003e8e:	842a                	mv	s0,a0
44003e90:	8636                	mv	a2,a3
44003e92:	853a                	mv	a0,a4
44003e94:	fe005797          	auipc	a5,0xfe005
44003e98:	0807a623          	sw	zero,140(a5) # 42008f20 <errno>
44003e9c:	c606                	sw	ra,12(sp)
44003e9e:	581000ef          	jal	44004c1e <_read>
44003ea2:	57fd                	li	a5,-1
44003ea4:	00f50663          	beq	a0,a5,44003eb0 <_read_r+0x2a>
44003ea8:	40b2                	lw	ra,12(sp)
44003eaa:	4422                	lw	s0,8(sp)
44003eac:	0141                	add	sp,sp,16
44003eae:	8082                	ret
44003eb0:	fe005797          	auipc	a5,0xfe005
44003eb4:	0707a783          	lw	a5,112(a5) # 42008f20 <errno>
44003eb8:	dbe5                	beqz	a5,44003ea8 <_read_r+0x22>
44003eba:	40b2                	lw	ra,12(sp)
44003ebc:	c01c                	sw	a5,0(s0)
44003ebe:	4422                	lw	s0,8(sp)
44003ec0:	0141                	add	sp,sp,16
44003ec2:	8082                	ret

44003ec4 <_write_r>:
44003ec4:	1141                	add	sp,sp,-16
44003ec6:	872e                	mv	a4,a1
44003ec8:	c422                	sw	s0,8(sp)
44003eca:	85b2                	mv	a1,a2
44003ecc:	842a                	mv	s0,a0
44003ece:	8636                	mv	a2,a3
44003ed0:	853a                	mv	a0,a4
44003ed2:	fe005797          	auipc	a5,0xfe005
44003ed6:	0407a723          	sw	zero,78(a5) # 42008f20 <errno>
44003eda:	c606                	sw	ra,12(sp)
44003edc:	5c3000ef          	jal	44004c9e <_write>
44003ee0:	57fd                	li	a5,-1
44003ee2:	00f50663          	beq	a0,a5,44003eee <_write_r+0x2a>
44003ee6:	40b2                	lw	ra,12(sp)
44003ee8:	4422                	lw	s0,8(sp)
44003eea:	0141                	add	sp,sp,16
44003eec:	8082                	ret
44003eee:	fe005797          	auipc	a5,0xfe005
44003ef2:	0327a783          	lw	a5,50(a5) # 42008f20 <errno>
44003ef6:	dbe5                	beqz	a5,44003ee6 <_write_r+0x22>
44003ef8:	40b2                	lw	ra,12(sp)
44003efa:	c01c                	sw	a5,0(s0)
44003efc:	4422                	lw	s0,8(sp)
44003efe:	0141                	add	sp,sp,16
44003f00:	8082                	ret

44003f02 <__retarget_lock_init>:
44003f02:	8082                	ret

44003f04 <__retarget_lock_init_recursive>:
44003f04:	8082                	ret

44003f06 <__retarget_lock_close>:
44003f06:	8082                	ret

44003f08 <__retarget_lock_close_recursive>:
44003f08:	8082                	ret

44003f0a <__retarget_lock_acquire>:
44003f0a:	8082                	ret

44003f0c <__retarget_lock_acquire_recursive>:
44003f0c:	8082                	ret

44003f0e <__retarget_lock_try_acquire>:
44003f0e:	4505                	li	a0,1
44003f10:	8082                	ret

44003f12 <__retarget_lock_try_acquire_recursive>:
44003f12:	4505                	li	a0,1
44003f14:	8082                	ret

44003f16 <__retarget_lock_release>:
44003f16:	8082                	ret

44003f18 <__retarget_lock_release_recursive>:
44003f18:	8082                	ret

44003f1a <_malloc_trim_r>:
44003f1a:	1101                	add	sp,sp,-32
44003f1c:	cc22                	sw	s0,24(sp)
44003f1e:	ca26                	sw	s1,20(sp)
44003f20:	c84a                	sw	s2,16(sp)
44003f22:	c64e                	sw	s3,12(sp)
44003f24:	c452                	sw	s4,8(sp)
44003f26:	89ae                	mv	s3,a1
44003f28:	ce06                	sw	ra,28(sp)
44003f2a:	892a                	mv	s2,a0
44003f2c:	fdffda17          	auipc	s4,0xfdffd
44003f30:	200a0a13          	add	s4,s4,512 # 4200112c <__malloc_av_>
44003f34:	0b3000ef          	jal	440047e6 <__malloc_lock>
44003f38:	008a2703          	lw	a4,8(s4)
44003f3c:	6785                	lui	a5,0x1
44003f3e:	17bd                	add	a5,a5,-17 # fef <input_img-0x41fff011>
44003f40:	4344                	lw	s1,4(a4)
44003f42:	6705                	lui	a4,0x1
44003f44:	98f1                	and	s1,s1,-4
44003f46:	00f48433          	add	s0,s1,a5
44003f4a:	41340433          	sub	s0,s0,s3
44003f4e:	8031                	srl	s0,s0,0xc
44003f50:	147d                	add	s0,s0,-1
44003f52:	0432                	sll	s0,s0,0xc
44003f54:	00e44b63          	blt	s0,a4,44003f6a <_malloc_trim_r+0x50>
44003f58:	4581                	li	a1,0
44003f5a:	854a                	mv	a0,s2
44003f5c:	435000ef          	jal	44004b90 <_sbrk_r>
44003f60:	008a2783          	lw	a5,8(s4)
44003f64:	97a6                	add	a5,a5,s1
44003f66:	00f50e63          	beq	a0,a5,44003f82 <_malloc_trim_r+0x68>
44003f6a:	854a                	mv	a0,s2
44003f6c:	087000ef          	jal	440047f2 <__malloc_unlock>
44003f70:	40f2                	lw	ra,28(sp)
44003f72:	4462                	lw	s0,24(sp)
44003f74:	44d2                	lw	s1,20(sp)
44003f76:	4942                	lw	s2,16(sp)
44003f78:	49b2                	lw	s3,12(sp)
44003f7a:	4a22                	lw	s4,8(sp)
44003f7c:	4501                	li	a0,0
44003f7e:	6105                	add	sp,sp,32
44003f80:	8082                	ret
44003f82:	408005b3          	neg	a1,s0
44003f86:	854a                	mv	a0,s2
44003f88:	409000ef          	jal	44004b90 <_sbrk_r>
44003f8c:	57fd                	li	a5,-1
44003f8e:	02f50b63          	beq	a0,a5,44003fc4 <_malloc_trim_r+0xaa>
44003f92:	fe005717          	auipc	a4,0xfe005
44003f96:	f4670713          	add	a4,a4,-186 # 42008ed8 <__malloc_current_mallinfo>
44003f9a:	431c                	lw	a5,0(a4)
44003f9c:	008a2683          	lw	a3,8(s4)
44003fa0:	8c81                	sub	s1,s1,s0
44003fa2:	0014e493          	or	s1,s1,1
44003fa6:	8f81                	sub	a5,a5,s0
44003fa8:	854a                	mv	a0,s2
44003faa:	c2c4                	sw	s1,4(a3)
44003fac:	c31c                	sw	a5,0(a4)
44003fae:	045000ef          	jal	440047f2 <__malloc_unlock>
44003fb2:	40f2                	lw	ra,28(sp)
44003fb4:	4462                	lw	s0,24(sp)
44003fb6:	44d2                	lw	s1,20(sp)
44003fb8:	4942                	lw	s2,16(sp)
44003fba:	49b2                	lw	s3,12(sp)
44003fbc:	4a22                	lw	s4,8(sp)
44003fbe:	4505                	li	a0,1
44003fc0:	6105                	add	sp,sp,32
44003fc2:	8082                	ret
44003fc4:	4581                	li	a1,0
44003fc6:	854a                	mv	a0,s2
44003fc8:	3c9000ef          	jal	44004b90 <_sbrk_r>
44003fcc:	008a2703          	lw	a4,8(s4)
44003fd0:	46bd                	li	a3,15
44003fd2:	40e507b3          	sub	a5,a0,a4
44003fd6:	f8f6dae3          	bge	a3,a5,44003f6a <_malloc_trim_r+0x50>
44003fda:	fdffd697          	auipc	a3,0xfdffd
44003fde:	55e6a683          	lw	a3,1374(a3) # 42001538 <__malloc_sbrk_base>
44003fe2:	8d15                	sub	a0,a0,a3
44003fe4:	0017e793          	or	a5,a5,1
44003fe8:	fe005697          	auipc	a3,0xfe005
44003fec:	eea6a823          	sw	a0,-272(a3) # 42008ed8 <__malloc_current_mallinfo>
44003ff0:	c35c                	sw	a5,4(a4)
44003ff2:	bfa5                	j	44003f6a <_malloc_trim_r+0x50>

44003ff4 <_free_r>:
44003ff4:	10058b63          	beqz	a1,4400410a <_free_r+0x116>
44003ff8:	1141                	add	sp,sp,-16
44003ffa:	c422                	sw	s0,8(sp)
44003ffc:	c226                	sw	s1,4(sp)
44003ffe:	842e                	mv	s0,a1
44004000:	84aa                	mv	s1,a0
44004002:	c606                	sw	ra,12(sp)
44004004:	7e2000ef          	jal	440047e6 <__malloc_lock>
44004008:	ffc42583          	lw	a1,-4(s0)
4400400c:	ff840713          	add	a4,s0,-8
44004010:	fdffd517          	auipc	a0,0xfdffd
44004014:	11c50513          	add	a0,a0,284 # 4200112c <__malloc_av_>
44004018:	ffe5f793          	and	a5,a1,-2
4400401c:	00f70633          	add	a2,a4,a5
44004020:	4254                	lw	a3,4(a2)
44004022:	00852803          	lw	a6,8(a0)
44004026:	9af1                	and	a3,a3,-4
44004028:	12c80363          	beq	a6,a2,4400414e <_free_r+0x15a>
4400402c:	c254                	sw	a3,4(a2)
4400402e:	8985                	and	a1,a1,1
44004030:	00d60833          	add	a6,a2,a3
44004034:	e9b5                	bnez	a1,440040a8 <_free_r+0xb4>
44004036:	ff842303          	lw	t1,-8(s0)
4400403a:	00482583          	lw	a1,4(a6)
4400403e:	fdffd897          	auipc	a7,0xfdffd
44004042:	0f688893          	add	a7,a7,246 # 42001134 <__malloc_av_+0x8>
44004046:	40670733          	sub	a4,a4,t1
4400404a:	00872803          	lw	a6,8(a4)
4400404e:	979a                	add	a5,a5,t1
44004050:	8985                	and	a1,a1,1
44004052:	0f180263          	beq	a6,a7,44004136 <_free_r+0x142>
44004056:	00c72303          	lw	t1,12(a4)
4400405a:	00682623          	sw	t1,12(a6)
4400405e:	01032423          	sw	a6,8(t1)
44004062:	12058263          	beqz	a1,44004186 <_free_r+0x192>
44004066:	0017e693          	or	a3,a5,1
4400406a:	c354                	sw	a3,4(a4)
4400406c:	c21c                	sw	a5,0(a2)
4400406e:	1ff00693          	li	a3,511
44004072:	04f6e863          	bltu	a3,a5,440040c2 <_free_r+0xce>
44004076:	ff87f693          	and	a3,a5,-8
4400407a:	06a1                	add	a3,a3,8
4400407c:	414c                	lw	a1,4(a0)
4400407e:	96aa                	add	a3,a3,a0
44004080:	4290                	lw	a2,0(a3)
44004082:	0057d813          	srl	a6,a5,0x5
44004086:	4785                	li	a5,1
44004088:	010797b3          	sll	a5,a5,a6
4400408c:	8fcd                	or	a5,a5,a1
4400408e:	ff868593          	add	a1,a3,-8
44004092:	c74c                	sw	a1,12(a4)
44004094:	c710                	sw	a2,8(a4)
44004096:	c15c                	sw	a5,4(a0)
44004098:	c298                	sw	a4,0(a3)
4400409a:	c658                	sw	a4,12(a2)
4400409c:	4422                	lw	s0,8(sp)
4400409e:	40b2                	lw	ra,12(sp)
440040a0:	8526                	mv	a0,s1
440040a2:	4492                	lw	s1,4(sp)
440040a4:	0141                	add	sp,sp,16
440040a6:	a7b1                	j	440047f2 <__malloc_unlock>
440040a8:	00482583          	lw	a1,4(a6)
440040ac:	8985                	and	a1,a1,1
440040ae:	cdb9                	beqz	a1,4400410c <_free_r+0x118>
440040b0:	0017e693          	or	a3,a5,1
440040b4:	fed42e23          	sw	a3,-4(s0)
440040b8:	c21c                	sw	a5,0(a2)
440040ba:	1ff00693          	li	a3,511
440040be:	faf6fce3          	bgeu	a3,a5,44004076 <_free_r+0x82>
440040c2:	0097d693          	srl	a3,a5,0x9
440040c6:	4611                	li	a2,4
440040c8:	0cd66163          	bltu	a2,a3,4400418a <_free_r+0x196>
440040cc:	0067d693          	srl	a3,a5,0x6
440040d0:	03968593          	add	a1,a3,57
440040d4:	03868613          	add	a2,a3,56
440040d8:	058e                	sll	a1,a1,0x3
440040da:	95aa                	add	a1,a1,a0
440040dc:	4194                	lw	a3,0(a1)
440040de:	15e1                	add	a1,a1,-8
440040e0:	00d59663          	bne	a1,a3,440040ec <_free_r+0xf8>
440040e4:	a0e5                	j	440041cc <_free_r+0x1d8>
440040e6:	4694                	lw	a3,8(a3)
440040e8:	00d58663          	beq	a1,a3,440040f4 <_free_r+0x100>
440040ec:	42d0                	lw	a2,4(a3)
440040ee:	9a71                	and	a2,a2,-4
440040f0:	fec7ebe3          	bltu	a5,a2,440040e6 <_free_r+0xf2>
440040f4:	46cc                	lw	a1,12(a3)
440040f6:	c74c                	sw	a1,12(a4)
440040f8:	c714                	sw	a3,8(a4)
440040fa:	4422                	lw	s0,8(sp)
440040fc:	40b2                	lw	ra,12(sp)
440040fe:	c598                	sw	a4,8(a1)
44004100:	8526                	mv	a0,s1
44004102:	4492                	lw	s1,4(sp)
44004104:	c6d8                	sw	a4,12(a3)
44004106:	0141                	add	sp,sp,16
44004108:	a5ed                	j	440047f2 <__malloc_unlock>
4400410a:	8082                	ret
4400410c:	97b6                	add	a5,a5,a3
4400410e:	fdffd897          	auipc	a7,0xfdffd
44004112:	02688893          	add	a7,a7,38 # 42001134 <__malloc_av_+0x8>
44004116:	4614                	lw	a3,8(a2)
44004118:	09168e63          	beq	a3,a7,440041b4 <_free_r+0x1c0>
4400411c:	00c62803          	lw	a6,12(a2)
44004120:	0017e593          	or	a1,a5,1
44004124:	00f70633          	add	a2,a4,a5
44004128:	0106a623          	sw	a6,12(a3)
4400412c:	00d82423          	sw	a3,8(a6)
44004130:	c34c                	sw	a1,4(a4)
44004132:	c21c                	sw	a5,0(a2)
44004134:	bf2d                	j	4400406e <_free_r+0x7a>
44004136:	e1f5                	bnez	a1,4400421a <_free_r+0x226>
44004138:	460c                	lw	a1,8(a2)
4400413a:	4650                	lw	a2,12(a2)
4400413c:	96be                	add	a3,a3,a5
4400413e:	0016e793          	or	a5,a3,1
44004142:	c5d0                	sw	a2,12(a1)
44004144:	c60c                	sw	a1,8(a2)
44004146:	c35c                	sw	a5,4(a4)
44004148:	9736                	add	a4,a4,a3
4400414a:	c314                	sw	a3,0(a4)
4400414c:	bf81                	j	4400409c <_free_r+0xa8>
4400414e:	8985                	and	a1,a1,1
44004150:	96be                	add	a3,a3,a5
44004152:	e989                	bnez	a1,44004164 <_free_r+0x170>
44004154:	ff842583          	lw	a1,-8(s0)
44004158:	8f0d                	sub	a4,a4,a1
4400415a:	475c                	lw	a5,12(a4)
4400415c:	4710                	lw	a2,8(a4)
4400415e:	96ae                	add	a3,a3,a1
44004160:	c65c                	sw	a5,12(a2)
44004162:	c790                	sw	a2,8(a5)
44004164:	0016e793          	or	a5,a3,1
44004168:	c35c                	sw	a5,4(a4)
4400416a:	c518                	sw	a4,8(a0)
4400416c:	fdffd797          	auipc	a5,0xfdffd
44004170:	3d07a783          	lw	a5,976(a5) # 4200153c <__malloc_trim_threshold>
44004174:	f2f6e4e3          	bltu	a3,a5,4400409c <_free_r+0xa8>
44004178:	fe005597          	auipc	a1,0xfe005
4400417c:	dd45a583          	lw	a1,-556(a1) # 42008f4c <__malloc_top_pad>
44004180:	8526                	mv	a0,s1
44004182:	3b61                	jal	44003f1a <_malloc_trim_r>
44004184:	bf21                	j	4400409c <_free_r+0xa8>
44004186:	97b6                	add	a5,a5,a3
44004188:	b779                	j	44004116 <_free_r+0x122>
4400418a:	4651                	li	a2,20
4400418c:	00d67e63          	bgeu	a2,a3,440041a8 <_free_r+0x1b4>
44004190:	05400613          	li	a2,84
44004194:	04d66663          	bltu	a2,a3,440041e0 <_free_r+0x1ec>
44004198:	00c7d693          	srl	a3,a5,0xc
4400419c:	06f68593          	add	a1,a3,111
440041a0:	06e68613          	add	a2,a3,110
440041a4:	058e                	sll	a1,a1,0x3
440041a6:	bf15                	j	440040da <_free_r+0xe6>
440041a8:	05c68593          	add	a1,a3,92
440041ac:	05b68613          	add	a2,a3,91
440041b0:	058e                	sll	a1,a1,0x3
440041b2:	b725                	j	440040da <_free_r+0xe6>
440041b4:	c958                	sw	a4,20(a0)
440041b6:	c918                	sw	a4,16(a0)
440041b8:	0017e693          	or	a3,a5,1
440041bc:	01172623          	sw	a7,12(a4)
440041c0:	01172423          	sw	a7,8(a4)
440041c4:	c354                	sw	a3,4(a4)
440041c6:	973e                	add	a4,a4,a5
440041c8:	c31c                	sw	a5,0(a4)
440041ca:	bdc9                	j	4400409c <_free_r+0xa8>
440041cc:	00452803          	lw	a6,4(a0)
440041d0:	8609                	sra	a2,a2,0x2
440041d2:	4785                	li	a5,1
440041d4:	00c797b3          	sll	a5,a5,a2
440041d8:	0107e7b3          	or	a5,a5,a6
440041dc:	c15c                	sw	a5,4(a0)
440041de:	bf21                	j	440040f6 <_free_r+0x102>
440041e0:	15400613          	li	a2,340
440041e4:	00d66a63          	bltu	a2,a3,440041f8 <_free_r+0x204>
440041e8:	00f7d693          	srl	a3,a5,0xf
440041ec:	07868593          	add	a1,a3,120
440041f0:	07768613          	add	a2,a3,119
440041f4:	058e                	sll	a1,a1,0x3
440041f6:	b5d5                	j	440040da <_free_r+0xe6>
440041f8:	55400613          	li	a2,1364
440041fc:	00d66a63          	bltu	a2,a3,44004210 <_free_r+0x21c>
44004200:	0127d693          	srl	a3,a5,0x12
44004204:	07d68593          	add	a1,a3,125
44004208:	07c68613          	add	a2,a3,124
4400420c:	058e                	sll	a1,a1,0x3
4400420e:	b5f1                	j	440040da <_free_r+0xe6>
44004210:	3f800593          	li	a1,1016
44004214:	07e00613          	li	a2,126
44004218:	b5c9                	j	440040da <_free_r+0xe6>
4400421a:	0017e693          	or	a3,a5,1
4400421e:	c354                	sw	a3,4(a4)
44004220:	c21c                	sw	a5,0(a2)
44004222:	bdad                	j	4400409c <_free_r+0xa8>

44004224 <_malloc_r>:
44004224:	7179                	add	sp,sp,-48
44004226:	d04a                	sw	s2,32(sp)
44004228:	d606                	sw	ra,44(sp)
4400422a:	d422                	sw	s0,40(sp)
4400422c:	d226                	sw	s1,36(sp)
4400422e:	ce4e                	sw	s3,28(sp)
44004230:	00b58793          	add	a5,a1,11
44004234:	4759                	li	a4,22
44004236:	892a                	mv	s2,a0
44004238:	04f76963          	bltu	a4,a5,4400428a <_malloc_r+0x66>
4400423c:	47c1                	li	a5,16
4400423e:	16b7eb63          	bltu	a5,a1,440043b4 <_malloc_r+0x190>
44004242:	2355                	jal	440047e6 <__malloc_lock>
44004244:	47e1                	li	a5,24
44004246:	4589                	li	a1,2
44004248:	44c1                	li	s1,16
4400424a:	fdffd997          	auipc	s3,0xfdffd
4400424e:	ee298993          	add	s3,s3,-286 # 4200112c <__malloc_av_>
44004252:	97ce                	add	a5,a5,s3
44004254:	43c0                	lw	s0,4(a5)
44004256:	ff878713          	add	a4,a5,-8
4400425a:	26e40b63          	beq	s0,a4,440044d0 <_malloc_r+0x2ac>
4400425e:	405c                	lw	a5,4(s0)
44004260:	4454                	lw	a3,12(s0)
44004262:	4410                	lw	a2,8(s0)
44004264:	9bf1                	and	a5,a5,-4
44004266:	97a2                	add	a5,a5,s0
44004268:	43d8                	lw	a4,4(a5)
4400426a:	c654                	sw	a3,12(a2)
4400426c:	c690                	sw	a2,8(a3)
4400426e:	00176713          	or	a4,a4,1
44004272:	854a                	mv	a0,s2
44004274:	c3d8                	sw	a4,4(a5)
44004276:	2bb5                	jal	440047f2 <__malloc_unlock>
44004278:	00840513          	add	a0,s0,8
4400427c:	50b2                	lw	ra,44(sp)
4400427e:	5422                	lw	s0,40(sp)
44004280:	5492                	lw	s1,36(sp)
44004282:	5902                	lw	s2,32(sp)
44004284:	49f2                	lw	s3,28(sp)
44004286:	6145                	add	sp,sp,48
44004288:	8082                	ret
4400428a:	ff87f493          	and	s1,a5,-8
4400428e:	1207c363          	bltz	a5,440043b4 <_malloc_r+0x190>
44004292:	12b4e163          	bltu	s1,a1,440043b4 <_malloc_r+0x190>
44004296:	2b81                	jal	440047e6 <__malloc_lock>
44004298:	1f700793          	li	a5,503
4400429c:	2e97f963          	bgeu	a5,s1,4400458e <_malloc_r+0x36a>
440042a0:	0094d793          	srl	a5,s1,0x9
440042a4:	10078d63          	beqz	a5,440043be <_malloc_r+0x19a>
440042a8:	4711                	li	a4,4
440042aa:	26f76863          	bltu	a4,a5,4400451a <_malloc_r+0x2f6>
440042ae:	0064d793          	srl	a5,s1,0x6
440042b2:	03978593          	add	a1,a5,57
440042b6:	03878813          	add	a6,a5,56
440042ba:	00359613          	sll	a2,a1,0x3
440042be:	fdffd997          	auipc	s3,0xfdffd
440042c2:	e6e98993          	add	s3,s3,-402 # 4200112c <__malloc_av_>
440042c6:	964e                	add	a2,a2,s3
440042c8:	4240                	lw	s0,4(a2)
440042ca:	1661                	add	a2,a2,-8
440042cc:	02860163          	beq	a2,s0,440042ee <_malloc_r+0xca>
440042d0:	453d                	li	a0,15
440042d2:	a039                	j	440042e0 <_malloc_r+0xbc>
440042d4:	4454                	lw	a3,12(s0)
440042d6:	1e075b63          	bgez	a4,440044cc <_malloc_r+0x2a8>
440042da:	00d60a63          	beq	a2,a3,440042ee <_malloc_r+0xca>
440042de:	8436                	mv	s0,a3
440042e0:	405c                	lw	a5,4(s0)
440042e2:	9bf1                	and	a5,a5,-4
440042e4:	40978733          	sub	a4,a5,s1
440042e8:	fee556e3          	bge	a0,a4,440042d4 <_malloc_r+0xb0>
440042ec:	85c2                	mv	a1,a6
440042ee:	0109a403          	lw	s0,16(s3)
440042f2:	fdffd897          	auipc	a7,0xfdffd
440042f6:	e4288893          	add	a7,a7,-446 # 42001134 <__malloc_av_+0x8>
440042fa:	1d140663          	beq	s0,a7,440044c6 <_malloc_r+0x2a2>
440042fe:	405c                	lw	a5,4(s0)
44004300:	46bd                	li	a3,15
44004302:	9bf1                	and	a5,a5,-4
44004304:	40978733          	sub	a4,a5,s1
44004308:	28e6c863          	blt	a3,a4,44004598 <_malloc_r+0x374>
4400430c:	0119aa23          	sw	a7,20(s3)
44004310:	0119a823          	sw	a7,16(s3)
44004314:	26075363          	bgez	a4,4400457a <_malloc_r+0x356>
44004318:	1ff00713          	li	a4,511
4400431c:	0049a503          	lw	a0,4(s3)
44004320:	1af76d63          	bltu	a4,a5,440044da <_malloc_r+0x2b6>
44004324:	ff87f713          	and	a4,a5,-8
44004328:	0721                	add	a4,a4,8
4400432a:	974e                	add	a4,a4,s3
4400432c:	4314                	lw	a3,0(a4)
4400432e:	0057d613          	srl	a2,a5,0x5
44004332:	4785                	li	a5,1
44004334:	00c797b3          	sll	a5,a5,a2
44004338:	8d5d                	or	a0,a0,a5
4400433a:	ff870793          	add	a5,a4,-8
4400433e:	c45c                	sw	a5,12(s0)
44004340:	c414                	sw	a3,8(s0)
44004342:	00a9a223          	sw	a0,4(s3)
44004346:	c300                	sw	s0,0(a4)
44004348:	c6c0                	sw	s0,12(a3)
4400434a:	4025d793          	sra	a5,a1,0x2
4400434e:	4605                	li	a2,1
44004350:	00f61633          	sll	a2,a2,a5
44004354:	06c56c63          	bltu	a0,a2,440043cc <_malloc_r+0x1a8>
44004358:	00a677b3          	and	a5,a2,a0
4400435c:	ef81                	bnez	a5,44004374 <_malloc_r+0x150>
4400435e:	0606                	sll	a2,a2,0x1
44004360:	99f1                	and	a1,a1,-4
44004362:	00a677b3          	and	a5,a2,a0
44004366:	0591                	add	a1,a1,4
44004368:	e791                	bnez	a5,44004374 <_malloc_r+0x150>
4400436a:	0606                	sll	a2,a2,0x1
4400436c:	00a677b3          	and	a5,a2,a0
44004370:	0591                	add	a1,a1,4
44004372:	dfe5                	beqz	a5,4400436a <_malloc_r+0x146>
44004374:	483d                	li	a6,15
44004376:	00359313          	sll	t1,a1,0x3
4400437a:	934e                	add	t1,t1,s3
4400437c:	851a                	mv	a0,t1
4400437e:	455c                	lw	a5,12(a0)
44004380:	8e2e                	mv	t3,a1
44004382:	1af50c63          	beq	a0,a5,4400453a <_malloc_r+0x316>
44004386:	43d8                	lw	a4,4(a5)
44004388:	843e                	mv	s0,a5
4400438a:	47dc                	lw	a5,12(a5)
4400438c:	9b71                	and	a4,a4,-4
4400438e:	409706b3          	sub	a3,a4,s1
44004392:	1ad84b63          	blt	a6,a3,44004548 <_malloc_r+0x324>
44004396:	fe06c6e3          	bltz	a3,44004382 <_malloc_r+0x15e>
4400439a:	9722                	add	a4,a4,s0
4400439c:	4354                	lw	a3,4(a4)
4400439e:	4410                	lw	a2,8(s0)
440043a0:	854a                	mv	a0,s2
440043a2:	0016e693          	or	a3,a3,1
440043a6:	c354                	sw	a3,4(a4)
440043a8:	c65c                	sw	a5,12(a2)
440043aa:	c790                	sw	a2,8(a5)
440043ac:	2199                	jal	440047f2 <__malloc_unlock>
440043ae:	00840513          	add	a0,s0,8
440043b2:	b5e9                	j	4400427c <_malloc_r+0x58>
440043b4:	47b1                	li	a5,12
440043b6:	00f92023          	sw	a5,0(s2)
440043ba:	4501                	li	a0,0
440043bc:	b5c1                	j	4400427c <_malloc_r+0x58>
440043be:	20000613          	li	a2,512
440043c2:	04000593          	li	a1,64
440043c6:	03f00813          	li	a6,63
440043ca:	bdd5                	j	440042be <_malloc_r+0x9a>
440043cc:	0089a403          	lw	s0,8(s3)
440043d0:	c85a                	sw	s6,16(sp)
440043d2:	405c                	lw	a5,4(s0)
440043d4:	ffc7fb13          	and	s6,a5,-4
440043d8:	009b6763          	bltu	s6,s1,440043e6 <_malloc_r+0x1c2>
440043dc:	409b0733          	sub	a4,s6,s1
440043e0:	47bd                	li	a5,15
440043e2:	0ae7cd63          	blt	a5,a4,4400449c <_malloc_r+0x278>
440043e6:	c266                	sw	s9,4(sp)
440043e8:	fdffdc97          	auipc	s9,0xfdffd
440043ec:	150c8c93          	add	s9,s9,336 # 42001538 <__malloc_sbrk_base>
440043f0:	000ca703          	lw	a4,0(s9)
440043f4:	cc52                	sw	s4,24(sp)
440043f6:	ca56                	sw	s5,20(sp)
440043f8:	c65e                	sw	s7,12(sp)
440043fa:	fe005a97          	auipc	s5,0xfe005
440043fe:	b52aaa83          	lw	s5,-1198(s5) # 42008f4c <__malloc_top_pad>
44004402:	57fd                	li	a5,-1
44004404:	01640a33          	add	s4,s0,s6
44004408:	9aa6                	add	s5,s5,s1
4400440a:	2cf70e63          	beq	a4,a5,440046e6 <_malloc_r+0x4c2>
4400440e:	6785                	lui	a5,0x1
44004410:	07bd                	add	a5,a5,15 # 100f <input_img-0x41ffeff1>
44004412:	9abe                	add	s5,s5,a5
44004414:	77fd                	lui	a5,0xfffff
44004416:	00fafab3          	and	s5,s5,a5
4400441a:	85d6                	mv	a1,s5
4400441c:	854a                	mv	a0,s2
4400441e:	772000ef          	jal	44004b90 <_sbrk_r>
44004422:	57fd                	li	a5,-1
44004424:	8baa                	mv	s7,a0
44004426:	32f50f63          	beq	a0,a5,44004764 <_malloc_r+0x540>
4400442a:	c462                	sw	s8,8(sp)
4400442c:	1b456463          	bltu	a0,s4,440045d4 <_malloc_r+0x3b0>
44004430:	fe005c17          	auipc	s8,0xfe005
44004434:	aa8c0c13          	add	s8,s8,-1368 # 42008ed8 <__malloc_current_mallinfo>
44004438:	000c2583          	lw	a1,0(s8)
4400443c:	95d6                	add	a1,a1,s5
4400443e:	00bc2023          	sw	a1,0(s8)
44004442:	872e                	mv	a4,a1
44004444:	1eaa1e63          	bne	s4,a0,44004640 <_malloc_r+0x41c>
44004448:	01451793          	sll	a5,a0,0x14
4400444c:	1e079a63          	bnez	a5,44004640 <_malloc_r+0x41c>
44004450:	0089ab83          	lw	s7,8(s3)
44004454:	015b07b3          	add	a5,s6,s5
44004458:	0017e793          	or	a5,a5,1
4400445c:	00fba223          	sw	a5,4(s7) # 42000004 <input_img+0x4>
44004460:	fe005717          	auipc	a4,0xfe005
44004464:	ae870713          	add	a4,a4,-1304 # 42008f48 <__malloc_max_sbrked_mem>
44004468:	4314                	lw	a3,0(a4)
4400446a:	00b6f363          	bgeu	a3,a1,44004470 <_malloc_r+0x24c>
4400446e:	c30c                	sw	a1,0(a4)
44004470:	fe005717          	auipc	a4,0xfe005
44004474:	ad470713          	add	a4,a4,-1324 # 42008f44 <__malloc_max_total_mem>
44004478:	4314                	lw	a3,0(a4)
4400447a:	00b6f363          	bgeu	a3,a1,44004480 <_malloc_r+0x25c>
4400447e:	c30c                	sw	a1,0(a4)
44004480:	4c22                	lw	s8,8(sp)
44004482:	845e                	mv	s0,s7
44004484:	9bf1                	and	a5,a5,-4
44004486:	40978733          	sub	a4,a5,s1
4400448a:	2897eb63          	bltu	a5,s1,44004720 <_malloc_r+0x4fc>
4400448e:	47bd                	li	a5,15
44004490:	28e7d863          	bge	a5,a4,44004720 <_malloc_r+0x4fc>
44004494:	4a62                	lw	s4,24(sp)
44004496:	4ad2                	lw	s5,20(sp)
44004498:	4bb2                	lw	s7,12(sp)
4400449a:	4c92                	lw	s9,4(sp)
4400449c:	0014e793          	or	a5,s1,1
440044a0:	c05c                	sw	a5,4(s0)
440044a2:	94a2                	add	s1,s1,s0
440044a4:	0099a423          	sw	s1,8(s3)
440044a8:	00176713          	or	a4,a4,1
440044ac:	854a                	mv	a0,s2
440044ae:	c0d8                	sw	a4,4(s1)
440044b0:	2689                	jal	440047f2 <__malloc_unlock>
440044b2:	50b2                	lw	ra,44(sp)
440044b4:	00840513          	add	a0,s0,8
440044b8:	5422                	lw	s0,40(sp)
440044ba:	4b42                	lw	s6,16(sp)
440044bc:	5492                	lw	s1,36(sp)
440044be:	5902                	lw	s2,32(sp)
440044c0:	49f2                	lw	s3,28(sp)
440044c2:	6145                	add	sp,sp,48
440044c4:	8082                	ret
440044c6:	0049a503          	lw	a0,4(s3)
440044ca:	b541                	j	4400434a <_malloc_r+0x126>
440044cc:	4410                	lw	a2,8(s0)
440044ce:	bb61                	j	44004266 <_malloc_r+0x42>
440044d0:	47c0                	lw	s0,12(a5)
440044d2:	0589                	add	a1,a1,2
440044d4:	e0878de3          	beq	a5,s0,440042ee <_malloc_r+0xca>
440044d8:	b359                	j	4400425e <_malloc_r+0x3a>
440044da:	0097d713          	srl	a4,a5,0x9
440044de:	4691                	li	a3,4
440044e0:	0ee6f263          	bgeu	a3,a4,440045c4 <_malloc_r+0x3a0>
440044e4:	46d1                	li	a3,20
440044e6:	24e6e663          	bltu	a3,a4,44004732 <_malloc_r+0x50e>
440044ea:	05c70613          	add	a2,a4,92
440044ee:	05b70693          	add	a3,a4,91
440044f2:	060e                	sll	a2,a2,0x3
440044f4:	964e                	add	a2,a2,s3
440044f6:	4218                	lw	a4,0(a2)
440044f8:	1661                	add	a2,a2,-8
440044fa:	00e61663          	bne	a2,a4,44004506 <_malloc_r+0x2e2>
440044fe:	a2f5                	j	440046ea <_malloc_r+0x4c6>
44004500:	4718                	lw	a4,8(a4)
44004502:	00e60663          	beq	a2,a4,4400450e <_malloc_r+0x2ea>
44004506:	4354                	lw	a3,4(a4)
44004508:	9af1                	and	a3,a3,-4
4400450a:	fed7ebe3          	bltu	a5,a3,44004500 <_malloc_r+0x2dc>
4400450e:	4750                	lw	a2,12(a4)
44004510:	c450                	sw	a2,12(s0)
44004512:	c418                	sw	a4,8(s0)
44004514:	c600                	sw	s0,8(a2)
44004516:	c740                	sw	s0,12(a4)
44004518:	bd0d                	j	4400434a <_malloc_r+0x126>
4400451a:	4751                	li	a4,20
4400451c:	0cf77363          	bgeu	a4,a5,440045e2 <_malloc_r+0x3be>
44004520:	05400713          	li	a4,84
44004524:	22f76363          	bltu	a4,a5,4400474a <_malloc_r+0x526>
44004528:	00c4d793          	srl	a5,s1,0xc
4400452c:	06f78593          	add	a1,a5,111 # fffff06f <_sidata+0xbbfdbf7f>
44004530:	06e78813          	add	a6,a5,110
44004534:	00359613          	sll	a2,a1,0x3
44004538:	b359                	j	440042be <_malloc_r+0x9a>
4400453a:	0e05                	add	t3,t3,1
4400453c:	003e7793          	and	a5,t3,3
44004540:	0521                	add	a0,a0,8
44004542:	cfc5                	beqz	a5,440045fa <_malloc_r+0x3d6>
44004544:	455c                	lw	a5,12(a0)
44004546:	bd35                	j	44004382 <_malloc_r+0x15e>
44004548:	4410                	lw	a2,8(s0)
4400454a:	0014e593          	or	a1,s1,1
4400454e:	c04c                	sw	a1,4(s0)
44004550:	c65c                	sw	a5,12(a2)
44004552:	c790                	sw	a2,8(a5)
44004554:	94a2                	add	s1,s1,s0
44004556:	0099aa23          	sw	s1,20(s3)
4400455a:	0099a823          	sw	s1,16(s3)
4400455e:	0016e793          	or	a5,a3,1
44004562:	0114a623          	sw	a7,12(s1)
44004566:	0114a423          	sw	a7,8(s1)
4400456a:	c0dc                	sw	a5,4(s1)
4400456c:	9722                	add	a4,a4,s0
4400456e:	854a                	mv	a0,s2
44004570:	c314                	sw	a3,0(a4)
44004572:	2441                	jal	440047f2 <__malloc_unlock>
44004574:	00840513          	add	a0,s0,8
44004578:	b311                	j	4400427c <_malloc_r+0x58>
4400457a:	97a2                	add	a5,a5,s0
4400457c:	43d8                	lw	a4,4(a5)
4400457e:	854a                	mv	a0,s2
44004580:	00176713          	or	a4,a4,1
44004584:	c3d8                	sw	a4,4(a5)
44004586:	24b5                	jal	440047f2 <__malloc_unlock>
44004588:	00840513          	add	a0,s0,8
4400458c:	b9c5                	j	4400427c <_malloc_r+0x58>
4400458e:	0034d593          	srl	a1,s1,0x3
44004592:	00848793          	add	a5,s1,8
44004596:	b955                	j	4400424a <_malloc_r+0x26>
44004598:	0014e693          	or	a3,s1,1
4400459c:	c054                	sw	a3,4(s0)
4400459e:	94a2                	add	s1,s1,s0
440045a0:	0099aa23          	sw	s1,20(s3)
440045a4:	0099a823          	sw	s1,16(s3)
440045a8:	00176693          	or	a3,a4,1
440045ac:	0114a623          	sw	a7,12(s1)
440045b0:	0114a423          	sw	a7,8(s1)
440045b4:	c0d4                	sw	a3,4(s1)
440045b6:	97a2                	add	a5,a5,s0
440045b8:	854a                	mv	a0,s2
440045ba:	c398                	sw	a4,0(a5)
440045bc:	2c1d                	jal	440047f2 <__malloc_unlock>
440045be:	00840513          	add	a0,s0,8
440045c2:	b96d                	j	4400427c <_malloc_r+0x58>
440045c4:	0067d713          	srl	a4,a5,0x6
440045c8:	03970613          	add	a2,a4,57
440045cc:	03870693          	add	a3,a4,56
440045d0:	060e                	sll	a2,a2,0x3
440045d2:	b70d                	j	440044f4 <_malloc_r+0x2d0>
440045d4:	05340d63          	beq	s0,s3,4400462e <_malloc_r+0x40a>
440045d8:	0089a403          	lw	s0,8(s3)
440045dc:	4c22                	lw	s8,8(sp)
440045de:	405c                	lw	a5,4(s0)
440045e0:	b555                	j	44004484 <_malloc_r+0x260>
440045e2:	05c78593          	add	a1,a5,92
440045e6:	05b78813          	add	a6,a5,91
440045ea:	00359613          	sll	a2,a1,0x3
440045ee:	b9c1                	j	440042be <_malloc_r+0x9a>
440045f0:	00832783          	lw	a5,8(t1)
440045f4:	15fd                	add	a1,a1,-1
440045f6:	1e679563          	bne	a5,t1,440047e0 <_malloc_r+0x5bc>
440045fa:	0035f793          	and	a5,a1,3
440045fe:	1361                	add	t1,t1,-8
44004600:	fbe5                	bnez	a5,440045f0 <_malloc_r+0x3cc>
44004602:	0049a703          	lw	a4,4(s3)
44004606:	fff64793          	not	a5,a2
4400460a:	8ff9                	and	a5,a5,a4
4400460c:	00f9a223          	sw	a5,4(s3)
44004610:	0606                	sll	a2,a2,0x1
44004612:	dac7ede3          	bltu	a5,a2,440043cc <_malloc_r+0x1a8>
44004616:	da060be3          	beqz	a2,440043cc <_malloc_r+0x1a8>
4400461a:	00f67733          	and	a4,a2,a5
4400461e:	e711                	bnez	a4,4400462a <_malloc_r+0x406>
44004620:	0606                	sll	a2,a2,0x1
44004622:	00f67733          	and	a4,a2,a5
44004626:	0e11                	add	t3,t3,4
44004628:	df65                	beqz	a4,44004620 <_malloc_r+0x3fc>
4400462a:	85f2                	mv	a1,t3
4400462c:	b3a9                	j	44004376 <_malloc_r+0x152>
4400462e:	fe005c17          	auipc	s8,0xfe005
44004632:	8aac0c13          	add	s8,s8,-1878 # 42008ed8 <__malloc_current_mallinfo>
44004636:	000c2703          	lw	a4,0(s8)
4400463a:	9756                	add	a4,a4,s5
4400463c:	00ec2023          	sw	a4,0(s8)
44004640:	000ca683          	lw	a3,0(s9)
44004644:	57fd                	li	a5,-1
44004646:	12f68363          	beq	a3,a5,4400476c <_malloc_r+0x548>
4400464a:	414b87b3          	sub	a5,s7,s4
4400464e:	97ba                	add	a5,a5,a4
44004650:	00fc2023          	sw	a5,0(s8)
44004654:	007bfc93          	and	s9,s7,7
44004658:	0a0c8163          	beqz	s9,440046fa <_malloc_r+0x4d6>
4400465c:	419b8bb3          	sub	s7,s7,s9
44004660:	6785                	lui	a5,0x1
44004662:	07a1                	add	a5,a5,8 # 1008 <input_img-0x41ffeff8>
44004664:	0ba1                	add	s7,s7,8
44004666:	419785b3          	sub	a1,a5,s9
4400466a:	9ade                	add	s5,s5,s7
4400466c:	415585b3          	sub	a1,a1,s5
44004670:	05d2                	sll	a1,a1,0x14
44004672:	0145da13          	srl	s4,a1,0x14
44004676:	85d2                	mv	a1,s4
44004678:	854a                	mv	a0,s2
4400467a:	2b19                	jal	44004b90 <_sbrk_r>
4400467c:	57fd                	li	a5,-1
4400467e:	12f50363          	beq	a0,a5,440047a4 <_malloc_r+0x580>
44004682:	41750533          	sub	a0,a0,s7
44004686:	01450ab3          	add	s5,a0,s4
4400468a:	000c2703          	lw	a4,0(s8)
4400468e:	0179a423          	sw	s7,8(s3)
44004692:	001ae793          	or	a5,s5,1
44004696:	00ea05b3          	add	a1,s4,a4
4400469a:	00bc2023          	sw	a1,0(s8)
4400469e:	00fba223          	sw	a5,4(s7)
440046a2:	db340fe3          	beq	s0,s3,44004460 <_malloc_r+0x23c>
440046a6:	46bd                	li	a3,15
440046a8:	0766f863          	bgeu	a3,s6,44004718 <_malloc_r+0x4f4>
440046ac:	4058                	lw	a4,4(s0)
440046ae:	ff4b0793          	add	a5,s6,-12
440046b2:	9be1                	and	a5,a5,-8
440046b4:	8b05                	and	a4,a4,1
440046b6:	8f5d                	or	a4,a4,a5
440046b8:	c058                	sw	a4,4(s0)
440046ba:	4615                	li	a2,5
440046bc:	00f40733          	add	a4,s0,a5
440046c0:	c350                	sw	a2,4(a4)
440046c2:	c710                	sw	a2,8(a4)
440046c4:	00f6e563          	bltu	a3,a5,440046ce <_malloc_r+0x4aa>
440046c8:	004ba783          	lw	a5,4(s7)
440046cc:	bb51                	j	44004460 <_malloc_r+0x23c>
440046ce:	00840593          	add	a1,s0,8
440046d2:	854a                	mv	a0,s2
440046d4:	921ff0ef          	jal	44003ff4 <_free_r>
440046d8:	0089ab83          	lw	s7,8(s3)
440046dc:	000c2583          	lw	a1,0(s8)
440046e0:	004ba783          	lw	a5,4(s7)
440046e4:	bbb5                	j	44004460 <_malloc_r+0x23c>
440046e6:	0ac1                	add	s5,s5,16
440046e8:	bb0d                	j	4400441a <_malloc_r+0x1f6>
440046ea:	8689                	sra	a3,a3,0x2
440046ec:	4785                	li	a5,1
440046ee:	00d797b3          	sll	a5,a5,a3
440046f2:	8d5d                	or	a0,a0,a5
440046f4:	00a9a223          	sw	a0,4(s3)
440046f8:	bd21                	j	44004510 <_malloc_r+0x2ec>
440046fa:	015b85b3          	add	a1,s7,s5
440046fe:	40b005b3          	neg	a1,a1
44004702:	05d2                	sll	a1,a1,0x14
44004704:	0145da13          	srl	s4,a1,0x14
44004708:	85d2                	mv	a1,s4
4400470a:	854a                	mv	a0,s2
4400470c:	2151                	jal	44004b90 <_sbrk_r>
4400470e:	57fd                	li	a5,-1
44004710:	f6f519e3          	bne	a0,a5,44004682 <_malloc_r+0x45e>
44004714:	4a01                	li	s4,0
44004716:	bf95                	j	4400468a <_malloc_r+0x466>
44004718:	4c22                	lw	s8,8(sp)
4400471a:	4785                	li	a5,1
4400471c:	00fba223          	sw	a5,4(s7)
44004720:	854a                	mv	a0,s2
44004722:	28c1                	jal	440047f2 <__malloc_unlock>
44004724:	4501                	li	a0,0
44004726:	4a62                	lw	s4,24(sp)
44004728:	4ad2                	lw	s5,20(sp)
4400472a:	4b42                	lw	s6,16(sp)
4400472c:	4bb2                	lw	s7,12(sp)
4400472e:	4c92                	lw	s9,4(sp)
44004730:	b6b1                	j	4400427c <_malloc_r+0x58>
44004732:	05400693          	li	a3,84
44004736:	02e6ee63          	bltu	a3,a4,44004772 <_malloc_r+0x54e>
4400473a:	00c7d713          	srl	a4,a5,0xc
4400473e:	06f70613          	add	a2,a4,111
44004742:	06e70693          	add	a3,a4,110
44004746:	060e                	sll	a2,a2,0x3
44004748:	b375                	j	440044f4 <_malloc_r+0x2d0>
4400474a:	15400713          	li	a4,340
4400474e:	02f76e63          	bltu	a4,a5,4400478a <_malloc_r+0x566>
44004752:	00f4d793          	srl	a5,s1,0xf
44004756:	07878593          	add	a1,a5,120
4400475a:	07778813          	add	a6,a5,119
4400475e:	00359613          	sll	a2,a1,0x3
44004762:	beb1                	j	440042be <_malloc_r+0x9a>
44004764:	0089a403          	lw	s0,8(s3)
44004768:	405c                	lw	a5,4(s0)
4400476a:	bb29                	j	44004484 <_malloc_r+0x260>
4400476c:	017ca023          	sw	s7,0(s9)
44004770:	b5d5                	j	44004654 <_malloc_r+0x430>
44004772:	15400693          	li	a3,340
44004776:	02e6ed63          	bltu	a3,a4,440047b0 <_malloc_r+0x58c>
4400477a:	00f7d713          	srl	a4,a5,0xf
4400477e:	07870613          	add	a2,a4,120
44004782:	07770693          	add	a3,a4,119
44004786:	060e                	sll	a2,a2,0x3
44004788:	b3b5                	j	440044f4 <_malloc_r+0x2d0>
4400478a:	55400713          	li	a4,1364
4400478e:	02f76d63          	bltu	a4,a5,440047c8 <_malloc_r+0x5a4>
44004792:	0124d793          	srl	a5,s1,0x12
44004796:	07d78593          	add	a1,a5,125
4400479a:	07c78813          	add	a6,a5,124
4400479e:	00359613          	sll	a2,a1,0x3
440047a2:	be31                	j	440042be <_malloc_r+0x9a>
440047a4:	1ce1                	add	s9,s9,-8
440047a6:	9ae6                	add	s5,s5,s9
440047a8:	417a8ab3          	sub	s5,s5,s7
440047ac:	4a01                	li	s4,0
440047ae:	bdf1                	j	4400468a <_malloc_r+0x466>
440047b0:	55400693          	li	a3,1364
440047b4:	02e6e163          	bltu	a3,a4,440047d6 <_malloc_r+0x5b2>
440047b8:	0127d713          	srl	a4,a5,0x12
440047bc:	07d70613          	add	a2,a4,125
440047c0:	07c70693          	add	a3,a4,124
440047c4:	060e                	sll	a2,a2,0x3
440047c6:	b33d                	j	440044f4 <_malloc_r+0x2d0>
440047c8:	3f800613          	li	a2,1016
440047cc:	07f00593          	li	a1,127
440047d0:	07e00813          	li	a6,126
440047d4:	b4ed                	j	440042be <_malloc_r+0x9a>
440047d6:	3f800613          	li	a2,1016
440047da:	07e00693          	li	a3,126
440047de:	bb19                	j	440044f4 <_malloc_r+0x2d0>
440047e0:	0049a783          	lw	a5,4(s3)
440047e4:	b535                	j	44004610 <_malloc_r+0x3ec>

440047e6 <__malloc_lock>:
440047e6:	fe004517          	auipc	a0,0xfe004
440047ea:	74e50513          	add	a0,a0,1870 # 42008f34 <__lock___malloc_recursive_mutex>
440047ee:	f1eff06f          	j	44003f0c <__retarget_lock_acquire_recursive>

440047f2 <__malloc_unlock>:
440047f2:	fe004517          	auipc	a0,0xfe004
440047f6:	74250513          	add	a0,a0,1858 # 42008f34 <__lock___malloc_recursive_mutex>
440047fa:	f1eff06f          	j	44003f18 <__retarget_lock_release_recursive>

440047fe <_fclose_r>:
440047fe:	1141                	add	sp,sp,-16
44004800:	c606                	sw	ra,12(sp)
44004802:	c04a                	sw	s2,0(sp)
44004804:	c9c1                	beqz	a1,44004894 <_fclose_r+0x96>
44004806:	c422                	sw	s0,8(sp)
44004808:	c226                	sw	s1,4(sp)
4400480a:	842e                	mv	s0,a1
4400480c:	84aa                	mv	s1,a0
4400480e:	c119                	beqz	a0,44004814 <_fclose_r+0x16>
44004810:	595c                	lw	a5,52(a0)
44004812:	c3d5                	beqz	a5,440048b6 <_fclose_r+0xb8>
44004814:	507c                	lw	a5,100(s0)
44004816:	00c41703          	lh	a4,12(s0)
4400481a:	8b85                	and	a5,a5,1
4400481c:	ebad                	bnez	a5,4400488e <_fclose_r+0x90>
4400481e:	20077713          	and	a4,a4,512
44004822:	cf49                	beqz	a4,440048bc <_fclose_r+0xbe>
44004824:	85a2                	mv	a1,s0
44004826:	8526                	mv	a0,s1
44004828:	20e1                	jal	440048f0 <__sflush_r>
4400482a:	545c                	lw	a5,44(s0)
4400482c:	892a                	mv	s2,a0
4400482e:	c791                	beqz	a5,4400483a <_fclose_r+0x3c>
44004830:	4c4c                	lw	a1,28(s0)
44004832:	8526                	mv	a0,s1
44004834:	9782                	jalr	a5
44004836:	06054563          	bltz	a0,440048a0 <_fclose_r+0xa2>
4400483a:	00c45783          	lhu	a5,12(s0)
4400483e:	0807f793          	and	a5,a5,128
44004842:	e7ad                	bnez	a5,440048ac <_fclose_r+0xae>
44004844:	580c                	lw	a1,48(s0)
44004846:	c991                	beqz	a1,4400485a <_fclose_r+0x5c>
44004848:	04040793          	add	a5,s0,64
4400484c:	00f58563          	beq	a1,a5,44004856 <_fclose_r+0x58>
44004850:	8526                	mv	a0,s1
44004852:	fa2ff0ef          	jal	44003ff4 <_free_r>
44004856:	02042823          	sw	zero,48(s0)
4400485a:	406c                	lw	a1,68(s0)
4400485c:	c591                	beqz	a1,44004868 <_fclose_r+0x6a>
4400485e:	8526                	mv	a0,s1
44004860:	f94ff0ef          	jal	44003ff4 <_free_r>
44004864:	04042223          	sw	zero,68(s0)
44004868:	b8eff0ef          	jal	44003bf6 <__sfp_lock_acquire>
4400486c:	507c                	lw	a5,100(s0)
4400486e:	00041623          	sh	zero,12(s0)
44004872:	8b85                	and	a5,a5,1
44004874:	c7a5                	beqz	a5,440048dc <_fclose_r+0xde>
44004876:	4c28                	lw	a0,88(s0)
44004878:	e90ff0ef          	jal	44003f08 <__retarget_lock_close_recursive>
4400487c:	b84ff0ef          	jal	44003c00 <__sfp_lock_release>
44004880:	40b2                	lw	ra,12(sp)
44004882:	4422                	lw	s0,8(sp)
44004884:	4492                	lw	s1,4(sp)
44004886:	854a                	mv	a0,s2
44004888:	4902                	lw	s2,0(sp)
4400488a:	0141                	add	sp,sp,16
4400488c:	8082                	ret
4400488e:	fb59                	bnez	a4,44004824 <_fclose_r+0x26>
44004890:	4422                	lw	s0,8(sp)
44004892:	4492                	lw	s1,4(sp)
44004894:	4901                	li	s2,0
44004896:	40b2                	lw	ra,12(sp)
44004898:	854a                	mv	a0,s2
4400489a:	4902                	lw	s2,0(sp)
4400489c:	0141                	add	sp,sp,16
4400489e:	8082                	ret
440048a0:	00c45783          	lhu	a5,12(s0)
440048a4:	597d                	li	s2,-1
440048a6:	0807f793          	and	a5,a5,128
440048aa:	dfc9                	beqz	a5,44004844 <_fclose_r+0x46>
440048ac:	480c                	lw	a1,16(s0)
440048ae:	8526                	mv	a0,s1
440048b0:	f44ff0ef          	jal	44003ff4 <_free_r>
440048b4:	bf41                	j	44004844 <_fclose_r+0x46>
440048b6:	af4ff0ef          	jal	44003baa <__sinit>
440048ba:	bfa9                	j	44004814 <_fclose_r+0x16>
440048bc:	4c28                	lw	a0,88(s0)
440048be:	e4eff0ef          	jal	44003f0c <__retarget_lock_acquire_recursive>
440048c2:	00c41783          	lh	a5,12(s0)
440048c6:	ffb9                	bnez	a5,44004824 <_fclose_r+0x26>
440048c8:	507c                	lw	a5,100(s0)
440048ca:	8b85                	and	a5,a5,1
440048cc:	f3f1                	bnez	a5,44004890 <_fclose_r+0x92>
440048ce:	4c28                	lw	a0,88(s0)
440048d0:	4901                	li	s2,0
440048d2:	e46ff0ef          	jal	44003f18 <__retarget_lock_release_recursive>
440048d6:	4422                	lw	s0,8(sp)
440048d8:	4492                	lw	s1,4(sp)
440048da:	bf75                	j	44004896 <_fclose_r+0x98>
440048dc:	4c28                	lw	a0,88(s0)
440048de:	e3aff0ef          	jal	44003f18 <__retarget_lock_release_recursive>
440048e2:	bf51                	j	44004876 <_fclose_r+0x78>

440048e4 <fclose>:
440048e4:	85aa                	mv	a1,a0
440048e6:	fdffd517          	auipc	a0,0xfdffd
440048ea:	c4e52503          	lw	a0,-946(a0) # 42001534 <_impure_ptr>
440048ee:	bf01                	j	440047fe <_fclose_r>

440048f0 <__sflush_r>:
440048f0:	00c59703          	lh	a4,12(a1)
440048f4:	1101                	add	sp,sp,-32
440048f6:	cc22                	sw	s0,24(sp)
440048f8:	c64e                	sw	s3,12(sp)
440048fa:	ce06                	sw	ra,28(sp)
440048fc:	00877793          	and	a5,a4,8
44004900:	842e                	mv	s0,a1
44004902:	89aa                	mv	s3,a0
44004904:	e7e1                	bnez	a5,440049cc <__sflush_r+0xdc>
44004906:	6785                	lui	a5,0x1
44004908:	80078793          	add	a5,a5,-2048 # 800 <input_img-0x41fff800>
4400490c:	41d4                	lw	a3,4(a1)
4400490e:	8fd9                	or	a5,a5,a4
44004910:	00f59623          	sh	a5,12(a1)
44004914:	10d05563          	blez	a3,44004a1e <__sflush_r+0x12e>
44004918:	02842803          	lw	a6,40(s0)
4400491c:	0a080263          	beqz	a6,440049c0 <__sflush_r+0xd0>
44004920:	ca26                	sw	s1,20(sp)
44004922:	01371693          	sll	a3,a4,0x13
44004926:	0009a483          	lw	s1,0(s3)
4400492a:	0009a023          	sw	zero,0(s3)
4400492e:	4c4c                	lw	a1,28(s0)
44004930:	0e06ce63          	bltz	a3,44004a2c <__sflush_r+0x13c>
44004934:	4601                	li	a2,0
44004936:	4685                	li	a3,1
44004938:	854e                	mv	a0,s3
4400493a:	9802                	jalr	a6
4400493c:	57fd                	li	a5,-1
4400493e:	862a                	mv	a2,a0
44004940:	10f50f63          	beq	a0,a5,44004a5e <__sflush_r+0x16e>
44004944:	00c41783          	lh	a5,12(s0)
44004948:	02842803          	lw	a6,40(s0)
4400494c:	4c4c                	lw	a1,28(s0)
4400494e:	8b91                	and	a5,a5,4
44004950:	c799                	beqz	a5,4400495e <__sflush_r+0x6e>
44004952:	4058                	lw	a4,4(s0)
44004954:	581c                	lw	a5,48(s0)
44004956:	8e19                	sub	a2,a2,a4
44004958:	c399                	beqz	a5,4400495e <__sflush_r+0x6e>
4400495a:	5c5c                	lw	a5,60(s0)
4400495c:	8e1d                	sub	a2,a2,a5
4400495e:	4681                	li	a3,0
44004960:	854e                	mv	a0,s3
44004962:	9802                	jalr	a6
44004964:	57fd                	li	a5,-1
44004966:	0cf51563          	bne	a0,a5,44004a30 <__sflush_r+0x140>
4400496a:	0009a683          	lw	a3,0(s3)
4400496e:	47f5                	li	a5,29
44004970:	00c41703          	lh	a4,12(s0)
44004974:	10d7e163          	bltu	a5,a3,44004a76 <__sflush_r+0x186>
44004978:	204007b7          	lui	a5,0x20400
4400497c:	0785                	add	a5,a5,1 # 20400001 <input_img-0x21bfffff>
4400497e:	00d7d7b3          	srl	a5,a5,a3
44004982:	8b85                	and	a5,a5,1
44004984:	cbed                	beqz	a5,44004a76 <__sflush_r+0x186>
44004986:	4810                	lw	a2,16(s0)
44004988:	77fd                	lui	a5,0xfffff
4400498a:	7ff78793          	add	a5,a5,2047 # fffff7ff <_sidata+0xbbfdc70f>
4400498e:	8ff9                	and	a5,a5,a4
44004990:	00f41623          	sh	a5,12(s0)
44004994:	00042223          	sw	zero,4(s0)
44004998:	c010                	sw	a2,0(s0)
4400499a:	01371793          	sll	a5,a4,0x13
4400499e:	0007d363          	bgez	a5,440049a4 <__sflush_r+0xb4>
440049a2:	c6dd                	beqz	a3,44004a50 <__sflush_r+0x160>
440049a4:	580c                	lw	a1,48(s0)
440049a6:	0099a023          	sw	s1,0(s3)
440049aa:	c9c5                	beqz	a1,44004a5a <__sflush_r+0x16a>
440049ac:	04040793          	add	a5,s0,64
440049b0:	00f58563          	beq	a1,a5,440049ba <__sflush_r+0xca>
440049b4:	854e                	mv	a0,s3
440049b6:	e3eff0ef          	jal	44003ff4 <_free_r>
440049ba:	44d2                	lw	s1,20(sp)
440049bc:	02042823          	sw	zero,48(s0)
440049c0:	4501                	li	a0,0
440049c2:	40f2                	lw	ra,28(sp)
440049c4:	4462                	lw	s0,24(sp)
440049c6:	49b2                	lw	s3,12(sp)
440049c8:	6105                	add	sp,sp,32
440049ca:	8082                	ret
440049cc:	c84a                	sw	s2,16(sp)
440049ce:	0105a903          	lw	s2,16(a1)
440049d2:	04090b63          	beqz	s2,44004a28 <__sflush_r+0x138>
440049d6:	ca26                	sw	s1,20(sp)
440049d8:	4184                	lw	s1,0(a1)
440049da:	8b0d                	and	a4,a4,3
440049dc:	0125a023          	sw	s2,0(a1)
440049e0:	412484b3          	sub	s1,s1,s2
440049e4:	4781                	li	a5,0
440049e6:	e311                	bnez	a4,440049ea <__sflush_r+0xfa>
440049e8:	49dc                	lw	a5,20(a1)
440049ea:	c41c                	sw	a5,8(s0)
440049ec:	00904663          	bgtz	s1,440049f8 <__sflush_r+0x108>
440049f0:	a81d                	j	44004a26 <__sflush_r+0x136>
440049f2:	992a                	add	s2,s2,a0
440049f4:	02905963          	blez	s1,44004a26 <__sflush_r+0x136>
440049f8:	505c                	lw	a5,36(s0)
440049fa:	4c4c                	lw	a1,28(s0)
440049fc:	86a6                	mv	a3,s1
440049fe:	864a                	mv	a2,s2
44004a00:	854e                	mv	a0,s3
44004a02:	9782                	jalr	a5
44004a04:	8c89                	sub	s1,s1,a0
44004a06:	fea046e3          	bgtz	a0,440049f2 <__sflush_r+0x102>
44004a0a:	00c41703          	lh	a4,12(s0)
44004a0e:	4942                	lw	s2,16(sp)
44004a10:	04076713          	or	a4,a4,64
44004a14:	44d2                	lw	s1,20(sp)
44004a16:	00e41623          	sh	a4,12(s0)
44004a1a:	557d                	li	a0,-1
44004a1c:	b75d                	j	440049c2 <__sflush_r+0xd2>
44004a1e:	5dd4                	lw	a3,60(a1)
44004a20:	eed04ce3          	bgtz	a3,44004918 <__sflush_r+0x28>
44004a24:	bf71                	j	440049c0 <__sflush_r+0xd0>
44004a26:	44d2                	lw	s1,20(sp)
44004a28:	4942                	lw	s2,16(sp)
44004a2a:	bf59                	j	440049c0 <__sflush_r+0xd0>
44004a2c:	4830                	lw	a2,80(s0)
44004a2e:	b705                	j	4400494e <__sflush_r+0x5e>
44004a30:	00c41703          	lh	a4,12(s0)
44004a34:	4814                	lw	a3,16(s0)
44004a36:	77fd                	lui	a5,0xfffff
44004a38:	7ff78793          	add	a5,a5,2047 # fffff7ff <_sidata+0xbbfdc70f>
44004a3c:	8ff9                	and	a5,a5,a4
44004a3e:	00f41623          	sh	a5,12(s0)
44004a42:	00042223          	sw	zero,4(s0)
44004a46:	c014                	sw	a3,0(s0)
44004a48:	01371793          	sll	a5,a4,0x13
44004a4c:	f407dce3          	bgez	a5,440049a4 <__sflush_r+0xb4>
44004a50:	580c                	lw	a1,48(s0)
44004a52:	c828                	sw	a0,80(s0)
44004a54:	0099a023          	sw	s1,0(s3)
44004a58:	f9b1                	bnez	a1,440049ac <__sflush_r+0xbc>
44004a5a:	44d2                	lw	s1,20(sp)
44004a5c:	b795                	j	440049c0 <__sflush_r+0xd0>
44004a5e:	0009a783          	lw	a5,0(s3)
44004a62:	ee0781e3          	beqz	a5,44004944 <__sflush_r+0x54>
44004a66:	4775                	li	a4,29
44004a68:	00e78a63          	beq	a5,a4,44004a7c <__sflush_r+0x18c>
44004a6c:	4759                	li	a4,22
44004a6e:	00e78763          	beq	a5,a4,44004a7c <__sflush_r+0x18c>
44004a72:	00c41703          	lh	a4,12(s0)
44004a76:	04076713          	or	a4,a4,64
44004a7a:	bf69                	j	44004a14 <__sflush_r+0x124>
44004a7c:	0099a023          	sw	s1,0(s3)
44004a80:	44d2                	lw	s1,20(sp)
44004a82:	bf3d                	j	440049c0 <__sflush_r+0xd0>

44004a84 <_fflush_r>:
44004a84:	1141                	add	sp,sp,-16
44004a86:	c422                	sw	s0,8(sp)
44004a88:	c226                	sw	s1,4(sp)
44004a8a:	c606                	sw	ra,12(sp)
44004a8c:	c04a                	sw	s2,0(sp)
44004a8e:	84aa                	mv	s1,a0
44004a90:	842e                	mv	s0,a1
44004a92:	c119                	beqz	a0,44004a98 <_fflush_r+0x14>
44004a94:	595c                	lw	a5,52(a0)
44004a96:	c3bd                	beqz	a5,44004afc <_fflush_r+0x78>
44004a98:	00c41783          	lh	a5,12(s0)
44004a9c:	4901                	li	s2,0
44004a9e:	c39d                	beqz	a5,44004ac4 <_fflush_r+0x40>
44004aa0:	5078                	lw	a4,100(s0)
44004aa2:	8b05                	and	a4,a4,1
44004aa4:	e701                	bnez	a4,44004aac <_fflush_r+0x28>
44004aa6:	2007f793          	and	a5,a5,512
44004aaa:	c785                	beqz	a5,44004ad2 <_fflush_r+0x4e>
44004aac:	85a2                	mv	a1,s0
44004aae:	8526                	mv	a0,s1
44004ab0:	3581                	jal	440048f0 <__sflush_r>
44004ab2:	507c                	lw	a5,100(s0)
44004ab4:	892a                	mv	s2,a0
44004ab6:	8b85                	and	a5,a5,1
44004ab8:	e791                	bnez	a5,44004ac4 <_fflush_r+0x40>
44004aba:	00c45783          	lhu	a5,12(s0)
44004abe:	2007f793          	and	a5,a5,512
44004ac2:	c39d                	beqz	a5,44004ae8 <_fflush_r+0x64>
44004ac4:	40b2                	lw	ra,12(sp)
44004ac6:	4422                	lw	s0,8(sp)
44004ac8:	4492                	lw	s1,4(sp)
44004aca:	854a                	mv	a0,s2
44004acc:	4902                	lw	s2,0(sp)
44004ace:	0141                	add	sp,sp,16
44004ad0:	8082                	ret
44004ad2:	4c28                	lw	a0,88(s0)
44004ad4:	c38ff0ef          	jal	44003f0c <__retarget_lock_acquire_recursive>
44004ad8:	85a2                	mv	a1,s0
44004ada:	8526                	mv	a0,s1
44004adc:	3d11                	jal	440048f0 <__sflush_r>
44004ade:	507c                	lw	a5,100(s0)
44004ae0:	892a                	mv	s2,a0
44004ae2:	8b85                	and	a5,a5,1
44004ae4:	f3e5                	bnez	a5,44004ac4 <_fflush_r+0x40>
44004ae6:	bfd1                	j	44004aba <_fflush_r+0x36>
44004ae8:	4c28                	lw	a0,88(s0)
44004aea:	c2eff0ef          	jal	44003f18 <__retarget_lock_release_recursive>
44004aee:	40b2                	lw	ra,12(sp)
44004af0:	4422                	lw	s0,8(sp)
44004af2:	4492                	lw	s1,4(sp)
44004af4:	854a                	mv	a0,s2
44004af6:	4902                	lw	s2,0(sp)
44004af8:	0141                	add	sp,sp,16
44004afa:	8082                	ret
44004afc:	8aeff0ef          	jal	44003baa <__sinit>
44004b00:	bf61                	j	44004a98 <_fflush_r+0x14>

44004b02 <fflush>:
44004b02:	c92d                	beqz	a0,44004b74 <fflush+0x72>
44004b04:	1141                	add	sp,sp,-16
44004b06:	c422                	sw	s0,8(sp)
44004b08:	c04a                	sw	s2,0(sp)
44004b0a:	c606                	sw	ra,12(sp)
44004b0c:	c226                	sw	s1,4(sp)
44004b0e:	fdffd917          	auipc	s2,0xfdffd
44004b12:	a2692903          	lw	s2,-1498(s2) # 42001534 <_impure_ptr>
44004b16:	842a                	mv	s0,a0
44004b18:	00090563          	beqz	s2,44004b22 <fflush+0x20>
44004b1c:	03492783          	lw	a5,52(s2)
44004b20:	cf95                	beqz	a5,44004b5c <fflush+0x5a>
44004b22:	00c41783          	lh	a5,12(s0)
44004b26:	4481                	li	s1,0
44004b28:	c39d                	beqz	a5,44004b4e <fflush+0x4c>
44004b2a:	5078                	lw	a4,100(s0)
44004b2c:	8b05                	and	a4,a4,1
44004b2e:	e701                	bnez	a4,44004b36 <fflush+0x34>
44004b30:	2007f793          	and	a5,a5,512
44004b34:	cb85                	beqz	a5,44004b64 <fflush+0x62>
44004b36:	85a2                	mv	a1,s0
44004b38:	854a                	mv	a0,s2
44004b3a:	3b5d                	jal	440048f0 <__sflush_r>
44004b3c:	507c                	lw	a5,100(s0)
44004b3e:	84aa                	mv	s1,a0
44004b40:	8b85                	and	a5,a5,1
44004b42:	e791                	bnez	a5,44004b4e <fflush+0x4c>
44004b44:	00c45783          	lhu	a5,12(s0)
44004b48:	2007f793          	and	a5,a5,512
44004b4c:	c385                	beqz	a5,44004b6c <fflush+0x6a>
44004b4e:	40b2                	lw	ra,12(sp)
44004b50:	4422                	lw	s0,8(sp)
44004b52:	4902                	lw	s2,0(sp)
44004b54:	8526                	mv	a0,s1
44004b56:	4492                	lw	s1,4(sp)
44004b58:	0141                	add	sp,sp,16
44004b5a:	8082                	ret
44004b5c:	854a                	mv	a0,s2
44004b5e:	84cff0ef          	jal	44003baa <__sinit>
44004b62:	b7c1                	j	44004b22 <fflush+0x20>
44004b64:	4c28                	lw	a0,88(s0)
44004b66:	ba6ff0ef          	jal	44003f0c <__retarget_lock_acquire_recursive>
44004b6a:	b7f1                	j	44004b36 <fflush+0x34>
44004b6c:	4c28                	lw	a0,88(s0)
44004b6e:	baaff0ef          	jal	44003f18 <__retarget_lock_release_recursive>
44004b72:	bff1                	j	44004b4e <fflush+0x4c>
44004b74:	fdffc617          	auipc	a2,0xfdffc
44004b78:	5ac60613          	add	a2,a2,1452 # 42001120 <__sglue>
44004b7c:	00000597          	auipc	a1,0x0
44004b80:	f0858593          	add	a1,a1,-248 # 44004a84 <_fflush_r>
44004b84:	fdffc517          	auipc	a0,0xfdffc
44004b88:	47c50513          	add	a0,a0,1148 # 42001000 <_impure_data>
44004b8c:	8caff06f          	j	44003c56 <_fwalk_sglue>

44004b90 <_sbrk_r>:
44004b90:	1141                	add	sp,sp,-16
44004b92:	c422                	sw	s0,8(sp)
44004b94:	842a                	mv	s0,a0
44004b96:	852e                	mv	a0,a1
44004b98:	fe004797          	auipc	a5,0xfe004
44004b9c:	3807a423          	sw	zero,904(a5) # 42008f20 <errno>
44004ba0:	c606                	sw	ra,12(sp)
44004ba2:	2065                	jal	44004c4a <_sbrk>
44004ba4:	57fd                	li	a5,-1
44004ba6:	00f50663          	beq	a0,a5,44004bb2 <_sbrk_r+0x22>
44004baa:	40b2                	lw	ra,12(sp)
44004bac:	4422                	lw	s0,8(sp)
44004bae:	0141                	add	sp,sp,16
44004bb0:	8082                	ret
44004bb2:	fe004797          	auipc	a5,0xfe004
44004bb6:	36e7a783          	lw	a5,878(a5) # 42008f20 <errno>
44004bba:	dbe5                	beqz	a5,44004baa <_sbrk_r+0x1a>
44004bbc:	40b2                	lw	ra,12(sp)
44004bbe:	c01c                	sw	a5,0(s0)
44004bc0:	4422                	lw	s0,8(sp)
44004bc2:	0141                	add	sp,sp,16
44004bc4:	8082                	ret

44004bc6 <_close>:
44004bc6:	1141                	add	sp,sp,-16
44004bc8:	c606                	sw	ra,12(sp)
44004bca:	c422                	sw	s0,8(sp)
44004bcc:	03900893          	li	a7,57
44004bd0:	00000073          	ecall
44004bd4:	842a                	mv	s0,a0
44004bd6:	00054763          	bltz	a0,44004be4 <_close+0x1e>
44004bda:	40b2                	lw	ra,12(sp)
44004bdc:	8522                	mv	a0,s0
44004bde:	4422                	lw	s0,8(sp)
44004be0:	0141                	add	sp,sp,16
44004be2:	8082                	ret
44004be4:	40800433          	neg	s0,s0
44004be8:	cbdfe0ef          	jal	440038a4 <__errno>
44004bec:	c100                	sw	s0,0(a0)
44004bee:	547d                	li	s0,-1
44004bf0:	b7ed                	j	44004bda <_close+0x14>

44004bf2 <_lseek>:
44004bf2:	1141                	add	sp,sp,-16
44004bf4:	c606                	sw	ra,12(sp)
44004bf6:	c422                	sw	s0,8(sp)
44004bf8:	03e00893          	li	a7,62
44004bfc:	00000073          	ecall
44004c00:	842a                	mv	s0,a0
44004c02:	00054763          	bltz	a0,44004c10 <_lseek+0x1e>
44004c06:	40b2                	lw	ra,12(sp)
44004c08:	8522                	mv	a0,s0
44004c0a:	4422                	lw	s0,8(sp)
44004c0c:	0141                	add	sp,sp,16
44004c0e:	8082                	ret
44004c10:	40800433          	neg	s0,s0
44004c14:	c91fe0ef          	jal	440038a4 <__errno>
44004c18:	c100                	sw	s0,0(a0)
44004c1a:	547d                	li	s0,-1
44004c1c:	b7ed                	j	44004c06 <_lseek+0x14>

44004c1e <_read>:
44004c1e:	1141                	add	sp,sp,-16
44004c20:	c606                	sw	ra,12(sp)
44004c22:	c422                	sw	s0,8(sp)
44004c24:	03f00893          	li	a7,63
44004c28:	00000073          	ecall
44004c2c:	842a                	mv	s0,a0
44004c2e:	00054763          	bltz	a0,44004c3c <_read+0x1e>
44004c32:	40b2                	lw	ra,12(sp)
44004c34:	8522                	mv	a0,s0
44004c36:	4422                	lw	s0,8(sp)
44004c38:	0141                	add	sp,sp,16
44004c3a:	8082                	ret
44004c3c:	40800433          	neg	s0,s0
44004c40:	c65fe0ef          	jal	440038a4 <__errno>
44004c44:	c100                	sw	s0,0(a0)
44004c46:	547d                	li	s0,-1
44004c48:	b7ed                	j	44004c32 <_read+0x14>

44004c4a <_sbrk>:
44004c4a:	fe004697          	auipc	a3,0xfe004
44004c4e:	30668693          	add	a3,a3,774 # 42008f50 <heap_end.0>
44004c52:	4298                	lw	a4,0(a3)
44004c54:	1141                	add	sp,sp,-16
44004c56:	c606                	sw	ra,12(sp)
44004c58:	87aa                	mv	a5,a0
44004c5a:	eb19                	bnez	a4,44004c70 <_sbrk+0x26>
44004c5c:	0d600893          	li	a7,214
44004c60:	4501                	li	a0,0
44004c62:	00000073          	ecall
44004c66:	567d                	li	a2,-1
44004c68:	872a                	mv	a4,a0
44004c6a:	02c50263          	beq	a0,a2,44004c8e <_sbrk+0x44>
44004c6e:	c288                	sw	a0,0(a3)
44004c70:	0d600893          	li	a7,214
44004c74:	00e78533          	add	a0,a5,a4
44004c78:	00000073          	ecall
44004c7c:	4298                	lw	a4,0(a3)
44004c7e:	97ba                	add	a5,a5,a4
44004c80:	00f51763          	bne	a0,a5,44004c8e <_sbrk+0x44>
44004c84:	40b2                	lw	ra,12(sp)
44004c86:	c288                	sw	a0,0(a3)
44004c88:	853a                	mv	a0,a4
44004c8a:	0141                	add	sp,sp,16
44004c8c:	8082                	ret
44004c8e:	c17fe0ef          	jal	440038a4 <__errno>
44004c92:	40b2                	lw	ra,12(sp)
44004c94:	47b1                	li	a5,12
44004c96:	c11c                	sw	a5,0(a0)
44004c98:	557d                	li	a0,-1
44004c9a:	0141                	add	sp,sp,16
44004c9c:	8082                	ret

44004c9e <_write>:
44004c9e:	1141                	add	sp,sp,-16
44004ca0:	c606                	sw	ra,12(sp)
44004ca2:	c422                	sw	s0,8(sp)
44004ca4:	04000893          	li	a7,64
44004ca8:	00000073          	ecall
44004cac:	842a                	mv	s0,a0
44004cae:	00054763          	bltz	a0,44004cbc <_write+0x1e>
44004cb2:	40b2                	lw	ra,12(sp)
44004cb4:	8522                	mv	a0,s0
44004cb6:	4422                	lw	s0,8(sp)
44004cb8:	0141                	add	sp,sp,16
44004cba:	8082                	ret
44004cbc:	40800433          	neg	s0,s0
44004cc0:	be5fe0ef          	jal	440038a4 <__errno>
44004cc4:	c100                	sw	s0,0(a0)
44004cc6:	547d                	li	s0,-1
44004cc8:	b7ed                	j	44004cb2 <_write+0x14>
	...

44004ccc <conv1_bias>:
44004ccc:	1432 2c78 ac3b 93ec a800 a2aa               2.x,;.......

44004cd8 <conv1_weights>:
44004cd8:	af35 2393 959a b484 ae2f 336a 2988 1e2c     5..#..../.j3.),.
44004ce8:	b012 b205 b005 3480 3366 b16c a6ab 2e61     .......4f3l...a.
44004cf8:	2cf3 3486 a993 27d7 2fd5 afb1 31cd 3532     .,.4...'./...125
44004d08:	2ed3 33e2 32f3 266b 283a 3541 30db a6fe     ...3.2k&:(A5.0..
44004d18:	357e 31cf 3247 301d a83a a1d0 32f1 2840     ~5.1G2.0:....2@(
44004d28:	b225 a96f ada0 b25d b36d b1bc b2e4 b49e     %.o...].m.......
44004d38:	b5c6 b4e0 2d02 3410 2af9 3071 29d3 3309     .....-.4.*q0.).3
44004d48:	2d0e a831 adc8 31b8 31e6 3277 2f11 2def     .-1....1.1w2./.-
44004d58:	2ede abcf ad44 afa0 b151 ada4 32e7 3143     ....D...Q....2C1
44004d68:	a825 a008 b07f affb ab19 3405 31c6 3473     %..........4.1s4
44004d78:	2e0a 30cc 2e65 3489 ac23 2801 3045 33e5     ...0e..4#..(E0.3
44004d88:	3522 2ccb adf4 2dc9 310d a826 3350 b095     "5.,...-.1&.P3..
44004d98:	aefc 3384 22ce aa5f ab77 317b 28cf 31c6     ...3."_.w.{1.(.1
44004da8:	a4d7 2f3f 3330 a95f ace7 2db5 2582 34f9     ..?/03_....-.%.4
44004db8:	3479 b025 ab0b 32b8 340e 31b5 b050 b392     y4%....2.4.1P...
44004dc8:	3433 31cf 30a9 2f5a b057 34dc 2cd7 aab9     34.1.0Z/W..4.,..
44004dd8:	b16b ae1c 344e 2fac 2f58 31cc 3212 333e     k...N4./X/.1.2>3
44004de8:	369c 2de9 3095 2f69 af3a b0b0 2784 3426     .6.-.0i/:....'&4
44004df8:	2a77 b20a aec3 a9c7 b22d aee2               w*......-...

44004e04 <conv2_bias>:
44004e04:	a971 ac11 2cb5 2dad 1fe7 2863 a352 1958     q....,.-..c(R.X.
44004e14:	2a0d a4ec 277f 2437 94de a299 2907 92e4     .*...'7$.....)..

44004e24 <conv3_bias>:
44004e24:	ab49 1aa7 2837 2b35 a41a 29b3 a998 22b2     I...7(5+...)..."
44004e34:	2ae9 a4a3 22a0 26f4 a82f a4ce a63f a92c     .*...".&/...?.,.
44004e44:	282f 1ec7 a3d0 a9b3 a9f3 aba8 2805 aa3e     /(...........(>.
44004e54:	a803 1471 aa0b 2699 2b07 291c aaf1 2a44     ..q....&.+.)..D*
44004e64:	9bbe 2b52 28dd 1dfd a813 a695 2c0b 2c5b     ..R+.(.......,[,
44004e74:	19bb 263c 2bf9 2267 a647 aa5c a850 1656     ..<&.+g"G.\.P.V.
44004e84:	ac3f 2aa3 a9e2 2c45 a373 a2e0 2850 2c59     ?..*..E,s...P(Y,
44004e94:	a28a 25cf 2679 a433 a210 2623 2c8b 1d06     ...%y&3...#&.,..
44004ea4:	2c1e 2b2b 2c4a 260a 2bdc 2af7 287e 2968     .,++J,.&.+.*~(h)
44004eb4:	2c7e a487 a086 2a67 a35f 2a9a a0ea aa72     ~,....g*_..*..r.
44004ec4:	98e1 2a56 a8cf abaf 217d 2b10 29f8 2711     ..V*....}!.+.).'
44004ed4:	1ae6 2cc6 a804 2322 281b a64b a237 a9a2     ...,.."#.(K.7...
44004ee4:	a5bc ac4d 2976 1da9 2b4b 2a4c a1b3 aabc     ..M.v)..K+L*....
44004ef4:	a55d 2b39 2b28 a3e8 ab7d a75a 2839 a9bb     ].9+(+..}.Z.9(..
44004f04:	a87a ab2a 2c7f 2c23 26c3 9f40 2a59 2629     z.*..,#,.&@.Y*)&

44004f14 <fc1_bias>:
44004f14:	279c 240e 239e 2c61 300b 25d1 ac94 a920     .'.$.#a,.0.%.. .
44004f24:	2d79 2c5d aa94 acc2 29eb a518 2681 2c4b     y-],.....)...&K,
44004f34:	2d5c aa1f 2f6e 252d a5d8 232e 2e96 2d0c     \-..n/-%...#...-
44004f44:	2ff2 2b87 2730 ad66 2477 a023 27c0 a498     ./.+0'f.w$#..'..
44004f54:	abf9 2dab adb4 2bde ab34 2c4f 2ec0 aa15     ...-...+4.O,....
44004f64:	2f81 ae09 ada7 2902 2fc6 2e1a 2563 a8cd     ./.....)./..c%..
44004f74:	2b44 2e1b 2eb9 a92c ac8f 2d26 27b2 a70e     D+....,...&-.'..
44004f84:	2caf 25bc aba9 28a6 a45e ae05 2d50 a66d     .,.%...(^...P-m.
44004f94:	a5ae 2d8e 29ba ad8a af2e 280f a803 28a5     ...-.).....(...(
44004fa4:	ae5a 24d6 2d96 2cda 2400 ab9f a9c6 a860     Z..$.-.,.$....`.
44004fb4:	aa9a ad61 aded a5d3                         ..a.....

44004fbc <fc2_bias>:
44004fbc:	ac20 9b03 2ab2 ad81 a42d a9e0 ad10 a8e9      ....*..-.......
44004fcc:	ac3f a41b                                   ?...

44004fd0 <fc2_weights>:
44004fd0:	9a20 b022 170e ab43 2f72 a610 a46d ab6d      ."...C.r/..m.m.
44004fe0:	3015 ab8e a8b2 aa8f 1f33 2daf a173 2cda     .0......3..-s..,
44004ff0:	2cca b010 1d99 1da4 a415 a913 a472 aa32     .,..........r.2.
44005000:	b133 a909 ac3f af2c b082 9ea5 a7c0 310f     3...?.,........1
44005010:	aabd 295d 2c34 30f8 a101 a587 b240 aa86     ..])4,.0....@...
44005020:	a928 a908 2974 306d b1a9 300c a9f5 ad7c     (...t)m0...0..|.
44005030:	af69 30a5 2e04 2a56 a7f3 b108 af80 2e82     i..0..V*........
44005040:	2ee8 a36d 2bb7 2a79 2aeb a123 b000 abc5     ..m..+y*.*#.....
44005050:	abb2 2b53 ae4e a09b 29a3 3069 aedb 2824     ..S+N....)i0..$(
44005060:	1f4b aa17 2df4 ab32 2838 ad54 2aea 8c52     K....-2.8(T..*R.
44005070:	273f 2eb3 a92b a3b6 af36 2d17 a81b 3042     ?'..+...6..-..B0
44005080:	b067 a545 9f90 a994 3037 2e2f 29e6 2bdb     g.E.....70/..).+
44005090:	aff5 aedd b093 b0a2 301e 2b90 2b32 2e48     .........0.+2+H.
440050a0:	aa07 2d3b af72 a964 164f ab3c 3179 28e6     ..;-r.d.O.<.y1.(
440050b0:	ab52 2da1 affc aecc aaed 2e34 aab7 25a5     R..-......4....%
440050c0:	a10f ac6a 2e25 2582 afb8 297b 21a0 204d     ..j.%..%..{).!M 
440050d0:	2f0c 9df9 2fb1 a531 2d70 2e83 add9 aa7d     ./.../1.p-....}.
440050e0:	2b77 ada9 2c07 a94a aded 9f94 9fc4 acc3     w+...,J.........
440050f0:	2f27 aade 2825 1ef5 ab2c ac56 2781 aae6     '/..%(..,.V..'..
44005100:	a62e 306d 2d50 ac6b 29e1 30ab 2735 b051     ..m0P-k..).05'Q.
44005110:	28e8 b073 a2ab 9792 2b5a a1ea ae61 a944     .(s.....Z+..a.D.
44005120:	ae54 a7bf 2a7d a734 b014 aeed aea1 2d12     T...}*4........-
44005130:	a7db b21d b4f5 a233 ac68 aae7 ab6c 2d26     ......3.h...l.&-
44005140:	2dc4 ac53 3013 ac85 0fd7 2aa3 a967 2d65     .-S..0.....*g.e-
44005150:	af29 b117 a5b0 abd5 21e3 2b00 297b ae0a     )........!.+{)..
44005160:	a04f aedf 2b83 2fe7 a4af 2144 2e50 acac     O....+./..D!P...
44005170:	acce adf3 af50 308a aec6 2ca1 2a34 a97d     ....P..0...,4*}.
44005180:	a9a1 b124 b076 a93d a9d0 2984 2ea6 2c7b     ..$.v.=....)..{,
44005190:	1f4b ae13 a37f a980 ab17 290f 2cb3 a8ff     K..........).,..
440051a0:	99c4 a4ee 2ec1 a90b a383 ac12 319d 2502     .............1.%
440051b0:	acb3 2c8b 2d7d ab70 2fad aaf5 2f6c 2a84     ...,}-p../..l/.*
440051c0:	aca5 2caf 1990 a9cc 258e 2e87 ad34 ac2f     ...,.....%..4./.
440051d0:	2d84 1c91 b09f aa25 1dcd 2ad8 3035 a799     .-....%....*50..
440051e0:	a0de 2b40 2ce0 2dfc b07b 2c52 ab68 a95c     ..@+.,.-{.R,h.\.
440051f0:	a1c5 a21a 2dad b067 ae23 1a3c b03f ac8d     .....-g.#.<.?...
44005200:	3050 1c7b af00 a919 a91b b075 2a4f 3040     P0{.......u.O*@0
44005210:	2c09 af42 2eb5 3003 9c1f 23ff 2da4 b0e6     .,B....0...#.-..
44005220:	2b14 2eb1 1f99 a81d 2eb5 afdd aa9d b162     .+............b.
44005230:	aa70 a2f7 af57 a9aa 30b0 2864 ae4c ac7c     p...W....0d(L.|.
44005240:	1c49 2947 2dd5 1ced 2bad 2e98 29a1 2ed4     I.G).-...+...)..
44005250:	9cf2 b071 acff 2897 2d49 aa09 9d1e 2ee8     ..q....(I-......
44005260:	a9ad a97e 2d94 2458 27dd 2e88 a889 afe4     ..~..-X$.'......
44005270:	2f07 2e39 ae2b ae5c aab8 b09b 264e adfe     ./9.+.\.....N&..
44005280:	b110 a72d 2ebd ac0e 2ec6 305d afd7 2ac4     ..-.......]0...*
44005290:	2d6c 3019 b04b 9cc7 acdf af46 2e71 2e4f     l-.0K.....F.q.O.
440052a0:	ac8b 31b3 2f3a adec aabd 2ee4 2506 ad82     ...1:/.......%..
440052b0:	ae4c 2f27 22e0 2c9d a4a7 2c83 b15b aead     L.'/.".,...,[...
440052c0:	ae43 aecf 1b9a aa09 1fee 2ba4 2b53 2593     C..........+S+.%
440052d0:	a8f6 b2f8 1072 2f5d 2aa2 27be 21c8 acc0     ....r.]/.*.'.!..
440052e0:	b1a1 ac41 aabd ac66 250c a915 2cc4 2b0d     ..A...f..%...,.+
440052f0:	a9aa acd8 a315 ae06 2d09 2da5 9543 2ae9     .........-.-C..*
44005300:	a519 265f b227 2d36 af85 b3cd 911a 2d02     .._&'.6-.......-
44005310:	a0c1 b18e 2ddb 2f1d adc5 2ef2 a68b abd0     .....-./........
44005320:	2a8a 30cf a125 add1 a4e0 3014 24fa 24d0     .*.0%......0.$.$
44005330:	2d10 93e3 a846 2ef9 b079 21a1 2ca8 2c5c     .-..F...y..!.,\,
44005340:	2c84 2a85 308e a2b4 2e44 295a ae5b abd9     .,.*.0..D.Z)[...
44005350:	2e8d b0dc 2aba b140 2cb2 2526 a93b b0cc     .....*@..,&%;...
44005360:	2821 ac92 acdd a83f 276b 2c93 9d1e ad13     !(....?.k'.,....
44005370:	240c 246f 2c04 2cfd b0df 2de7 ab27 b2ed     .$o$.,.,...-'...
44005380:	2c87 2aec ab37 2edd acb1 ac34 21a5 2d91     .,.*7.....4..!.-
44005390:	acf8 ae7d b010 a96b 21fa ad39 2640 ad61     ..}...k..!9.@&a.
440053a0:	ac02 2e22 3027 a710 2cdd 233e a86c b102     ..".'0...,>#l...
440053b0:	b0a4 3080 9594 280f acc1 a543 b05e ac97     ...0...(..C.^...
440053c0:	aef3 30d8 2cb8 ae40 a403 a811 2dd4 adee     ...0.,@......-..
440053d0:	a44f b10c a7c4 247d 2e6f ad73 aace a6d3     O.....}$o.s.....
440053e0:	ac34 2f0b 2feb ab40 a631 b0ed a835 b0a5     4.././@.1...5...
440053f0:	1b7c 2d79 2d5a 9c2d 2ceb 2d2a a12d 28c1     |.y-Z--..,*--..(
44005400:	2cfe 2d66 ac34 afc1 abd1 2975 b2ac 2164     .,f-4.....u)..d!
44005410:	26fb aef2 26e0 2f52 3067 2c35 b0e5 ac90     .&...&R/g05,....
44005420:	b1c4 a59e 311d addc 2c3f b211 219d 2c5a     .....1..?,...!Z,
44005430:	b18e a890 a8b8 2ca2 a5c8 2801 af65 28dd     .......,...(e..(
44005440:	a3f8 ad2e aea9 ac88 2a4b 9ebc 2904 9d94     ........K*...)..
44005450:	aec5 af1f ad37 a6ab 2996 a56d 2e6a accb     ....7....)m.j...
44005460:	ac56 2e4b a4ed ae26 2f2b acc0 acff 273d     V.K...&.+/....='
44005470:	af8b ad4e 245e ac35 ac87 a145 af71 a859     ..N.^$5...E.q.Y.
44005480:	b07c 2df2 2d99 acd5 305c ae80 a8af b15a     |..-.-..\0....Z.
44005490:	2ac2 2b67 2eeb b031 af2c 2ccd b01c a816     .*g+..1.,..,....
440054a0:	abac 3053 3031 a540 abc2 21e4 9ff7 b04f     ..S010@....!..O.
440054b0:	1daf 2348 a44e a9c5 ad56 2a0b a4fb 2c3e     ..H#N...V..*..>,
440054c0:	ad51 ad5e 2f58 a689 2f0d 3070 2e18 2282     Q.^.X/.../p0..."
440054d0:	9b83 296a 2e2a b012 a9b3 ab61 ab55 b10e     ..j)*.....a.U...
440054e0:	259e 2ad8 2f93 a83f 2849 2f14 2bc0 2c8d     .%.*./?.I(./.+.,
440054f0:	2cb6 af82 2aa6 a9da 0e0d 30f3 af38 2bb4     .,...*.....08..+
44005500:	a102 a1fb 2767 af7f 2c34 2c27 2998 b107     ....g'..4,',.)..
44005510:	26ee a736 2d33 2f9d 2ee4 2f65 b0f5 2b38     .&6.3-./..e/..8+
44005520:	2afe af1d 275c ae9b 24fa 2713 3077 2975     .*..\'...$.'w0u)
44005530:	a7db 29d7 a5ef 2f2b af4d 2e38 a46d af0f     ...)..+/M.8.m...
44005540:	2e5d b18a a8e0 aec1 a4f9 b0e6 2e03 ac94     ]...............
44005550:	2cf3 2a36 2e66 b090 ac5b 2ee5 ad56 2c08     .,6*f...[...V..,
44005560:	2506 adab b07f 8ff3 2853 2de3 2cbb 245f     .%......S(.-.,_$
44005570:	ac83 b08a 24ba ad51 23a2 a6fe ad4a ab7f     .....$Q..#..J...
44005580:	acdd aa88 2800 264c ae17 1d70 2fce 2d92     .....(L&..p../.-
44005590:	2a26 af6c ab22 ae6f aa8e b0d9 acb9 2889     &*l.".o........(
440055a0:	ae32 b2c4 27df adb9 2ca5 b135 a958 ae2a     2....'...,5.X.*.
440055b0:	2734 ab65 2a62 2d23 aa41 a4f2 ad61 2ef5     4'e.b*#-A...a...
440055c0:	a3dc abd8 2f96 ac09 b2ae aa5f 320e 1789     ...../...._..2..
440055d0:	af36 a4a7 ad32 2c76 255d 2b5c b1b3 ae63     6...2.v,]%\+..c.
440055e0:	3133 2dbe 2d89 2aae 1ee0 9ee4 ae19 a950     31.-.-.*......P.
440055f0:	211e 2c33 b294 2efe aeb6 301d 25d1 27df     .!3,.......0.%.'
44005600:	24d2 3047 b1c6 1d12 2af4 ac34 ad83 a928     .$G0.....*4...(.
44005610:	ad27 ac9b 2c1a a902 282f ae8e aaaf 2e93     '....,../(......
44005620:	b069 a39c 9893 2ef6 2fb2 2e29 9ec2 2d4c     i......../)...L-
44005630:	acdb ade5 2b73 ade6 ae8d 2e8c 2d4d 2a24     ....s+......M-$*
44005640:	1b92 28e5 af3a b1a8 8e7d b275 aa26 2a30     ...(:...}.u.&.0*
44005650:	b138 284e 29af 2c36 af83 1ddc a647 2c6d     8.N(.)6,....G.m,

44005660 <fc1_weights>:
44005660:	11b8 ae52 2d08 2745 a644 2d05 2bc6 2e64     ..R..-E'D..-.+d.
44005670:	ada8 2d02 a8ac a46f a472 2c23 0bad 2c5f     ...-..o.r.#,.._,
44005680:	aa4a 2335 2cbc 28b1 9c80 2c98 ad06 aba4     J.5#.,.(...,....
44005690:	af60 a527 29a1 2e05 a41c aaeb 2d2c adfb     `.'..)......,-..
440056a0:	30b5 a3e1 a9d2 26c4 a299 abb9 289e a66b     .0.....&.....(k.
440056b0:	ab45 2466 24a6 273b 8f26 aadb 0dd7 aa14     E.f$.$;'&.......
440056c0:	282b 2bf1 acd7 2a20 aa1a 2ded 29d0 ada2     +(.+.. *...-.)..
440056d0:	adaf ab9b 240b a9b9 2dc1 ae12 1bba 279e     .....$...-.....'
440056e0:	adb5 a496 2d02 9e44 9d41 a977 2f15 ade4     .....-D.A.w../..
440056f0:	299f 28eb a789 2090 ab92 2e54 3023 3037     .).(... ..T.#070
44005700:	ab0e 1738 ab3e ac21 a63d 9d38 adeb 193c     ..8.>.!.=.8...<.
44005710:	aaf8 2cbe 2b04 2a72 3063 a85c b0cc 2cf0     ...,.+r*c0\....,
44005720:	2951 2c13 2ee9 a519 9c5a a4de 234c aa97     Q).,....Z...L#..
44005730:	2c1a ae8a a4ee 1da5 ad30 2ccf 9d13 a939     .,......0..,..9.
44005740:	aa01 2802 2680 af1c ae0d 960b 2999 a0c4     ...(.&.......)..
44005750:	acf1 9d65 ac16 2fd9 2c43 aaa9 2e50 2b67     ..e..../C,..P.g+
44005760:	a59e 2965 a918 2243 ad4b acbc 2c74 a729     ..e)..C"K...t,).
44005770:	23e3 2d5d ac33 acef 2757 9d22 211f 9d56     .#]-3...W'"..!V.
44005780:	2d91 aca8 2bdc acb4 2fe6 a864 aba8 2fe7     .-...+.../d..../
44005790:	2a7b 2c48 a357 ab62 21bd 227e a872 2f7e     {*H,W.b..!~"r.~/
440057a0:	2e14 ac51 ac75 2a2e a467 2c7d ad4a 2a3d     ..Q.u..*g.},J.=*
440057b0:	2c76 2e75 9f9a 2e09 240d 25ed 2b0a acb9     v,u......$.%.+..
440057c0:	2ae8 a84d 2d35 a992 a1b5 aeb2 2f00 ac38     .*M.5-......./8.
440057d0:	2d33 a90d 2a4a b075 ac27 2ee1 af3d 1fc2     3-..J*u.'...=...
440057e0:	2adb 2acc ac7e 2d7c abb1 a822 acc2 9213     .*.*~.|-..".....
440057f0:	173c a830 24b4 a89e 2bc1 167b a9cd 2f51     <.0..$...+{...Q/
44005800:	aec4 a62c ac76 ab58 ad7c af9e a067 9aca     ..,.v.X.|...g...
44005810:	a691 a891 2cd7 2e19 a134 2116 a9cb aa0b     .....,..4..!....
44005820:	a84c a928 2e92 2d42 2dee 2e3d 237a 2862     L.(...B-.-=.z#b(
44005830:	284e ad83 aa2e 301e 2ce2 3053 ab2c 9cf4     N(.....0.,S0,...
44005840:	ab89 ab9f ad72 2f7d 27d3 ad4a 27a0 ae69     ....r.}/.'J..'i.
44005850:	a4d4 2f53 a87e a88d 2892 acbf 2cba 1e62     ..S/~....(...,b.
44005860:	2e43 ac8f adeb a84d 1ea0 acce 2d8a a423     C.....M......-#.
44005870:	2d0b acb3 2cf0 2f0c 28f2 25ef 2e41 9eca     .-...,./.(.%A...
44005880:	a8c9 2d53 a455 ab47 2806 a3ea af92 a8c1     ..S-U.G..(......
44005890:	a91a a887 2adb ac0d 11a9 a586 a8c2 2600     .....*.........&
440058a0:	25df a86c a98b aa3c 2a68 abe9 2b0d a909     .%l...<.h*...+..
440058b0:	287c 2b01 b05c acd4 a83b a8cd a279 304a     |(.+\...;...y.J0
440058c0:	2d0e 30eb 2740 299a 2840 2baf 26f3 2cbd     .-.0@'.)@(.+.&.,
440058d0:	2901 2a81 a845 2b02 a738 2b0b aa97 2d96     .).*E..+8..+...-
440058e0:	abb1 a8d5 2cc5 ac13 afe2 af74 307c 9e0e     .....,....t.|0..
440058f0:	2c93 ab6c 2b1e 26e0 2b4e 253a ac5c 2cb5     .,l..+.&N+:%\..,
44005900:	2a1d 2d76 2c03 a243 1e9c ab67 285a 2773     .*v-.,C...g.Z(s'
44005910:	2e57 2c4d 2f3d 2973 a061 2422 29ae 26b1     W.M,=/s)a."$.).&
44005920:	2b64 a8b3 2d1e 2a69 9baa aa84 ad7a 2c0d     d+...-i*....z..,
44005930:	2402 abd2 2b8b b0d7 2cc3 3020 a035 2971     .$...+..., 05.q)
44005940:	2be3 96e4 30d6 2972 a7ed a306 a69b 2da1     .+...0r).......-
44005950:	2d6c 2cc3 291a ade8 256c adb7 243f a7c7     l-.,.)..l%..?$..
44005960:	ad06 a72b aadf a92b 29c9 274a ad22 2483     ..+...+..)J'"..$
44005970:	acfc 2ef7 abc9 2ea3 aafe 30af 2849 ae8e     ...........0I(..
44005980:	2f80 2828 2725 2bcf ac46 ad28 a8e8 ab32     ./((%'.+F.(...2.
44005990:	2727 2e80 2bd5 2b89 af34 2e1c aae3 a52c     ''...+.+4.....,.
440059a0:	a72d 2461 ae8d 22da ae38 23a5 a97a 2f0e     -.a$..."8..#z../
440059b0:	a05c 2d33 ae76 22ec 2f1e aa85 2e7b 2c35     \.3-v.."./..{.5,
440059c0:	a9db a92a 993c 20ee a444 2a92 2858 a447     ..*.<.. D..*X(G.
440059d0:	14c1 23a7 2c45 ad27 2ceb 2e2b 2ded af93     ...#E,'..,+..-..
440059e0:	2c01 2d82 996b 27b1 2c75 aa6f b032 21e1     .,.-k..'u,o.2..!
440059f0:	2a8b abb8 18fa 2763 2f77 301d a66e a83b     .*....c'w/.0n.;.
44005a00:	a823 a5c3 2949 261d 1ea5 2d52 29ca aafb     #...I).&..R-.)..
44005a10:	9f28 adf8 a9b5 2dfe 25cf ace7 adf7 2c22     (......-.%....",
44005a20:	29c4 a396 30f4 2a1c ae40 ab7d a011 2894     .)...0.*@.}....(
44005a30:	af55 26fb 2d5f 2c54 208a 30b4 29dc 2050     U..&_-T,. .0.)P 
44005a40:	20a9 adfa 987c ad12 acdd aa79 a81b 286e     . ..|.....y...n(
44005a50:	aa33 1c7d 2f10 2cb3 2a4b ae12 a63a 2eaf     3.}../.,K*..:...
44005a60:	a44a a11c ac6f af37 2e81 2d53 2ab1 294b     J...o.7...S-.*K)
44005a70:	2664 a4b9 2565 a2bb 9317 2e12 ac4d aa22     d&..e%......M.".
44005a80:	295b 2ed8 2979 b019 22b7 a732 22d8 2e75     [)..y)..."2.."u.
44005a90:	2810 ab21 a92f a4c3 304d b11d af23 2e2b     .(!./...M0..#.+.
44005aa0:	2d59 2b5e aaa3 8f68 1bad 184d ae4b 2d1c     Y-^+..h...M.K..-
44005ab0:	2855 a66d 2844 2f41 ab07 22c8 ac10 2f3c     U(m.D(A/..."..</
44005ac0:	a3e6 2bb3 91d5 aa81 aec5 aca9 2c73 a91e     ...+........s,..
44005ad0:	a9fe aa61 a01e 2d38 ac4c 2cfb aa58 2d62     ..a...8-L..,X.b-
44005ae0:	2e65 2f2d ae5e 2f30 260d a58e a2c0 a1e3     e.-/^.0/.&......
44005af0:	9d06 2d74 9c24 2ccd 2d3a a7c8 264e 1beb     ..t-$..,:-..N&..
44005b00:	ac53 ae1a 987c 2d0f 30b1 ad04 a92c acfe     S...|..-.0..,...
44005b10:	2a04 2619 29d8 ae1b ad60 adc0 2129 229f     .*.&.)..`...)!."
44005b20:	ac6f acd0 2c32 28d7 2f4b 2904 3028 1380     o...2,.(K/.)(0..
44005b30:	2d39 a862 a6c7 2b16 aa09 2c88 25d3 a4d3     9-b....+...,.%..
44005b40:	9826 aa3d ab67 9d28 a2b0 2f83 a001 3089     &.=.g.(..../...0
44005b50:	24e3 286e abbe ae32 2db1 2b9f 2768 2f1e     .$n(..2..-.+h'./
44005b60:	2c15 aa81 2f6f 2c17 ab99 244f 2460 8cb6     .,..o/.,..O$`$..
44005b70:	aae3 2efe ac31 ae25 a537 2430 2ae2 a8ca     ....1.%.7.0$.*..
44005b80:	ac2e aaff 9aab 11a2 301d b035 abc4 2ea3     .........05.....
44005b90:	ab43 2fba 2dfe a8fa 2a2d 2746 adb0 2f2f     C../.-..-*F'..//
44005ba0:	1a0b a970 29b9 26ef 25da 26c1 ad20 2aab     ..p..).&.%.& ..*
44005bb0:	af54 a61f a3a1 ace6 208c 2866 2213 ae97     T........ f(."..
44005bc0:	a779 9e90 2a21 ac1e a56b a816 24ea 2baf     y...!*..k....$.+
44005bd0:	2cf3 2ea0 a219 26f7 2ee9 2c11 2e7f 202b     .,.....&...,..+ 
44005be0:	ab55 1e6d 2eb9 18a5 ae85 af6e 3198 ac08     U.m.......n..1..
44005bf0:	2aa8 a9da 2ff2 2daa 24fb 1b1c 2c7e 29a3     .*.../.-.$..~,.)
44005c00:	a905 2e02 27e6 1653 acd6 2eac 2cbf 2da1     .....'S......,.-
44005c10:	2cf3 2a6d 1bba 29eb a58b ac44 ad3b 9854     .,m*...)..D.;.T.
44005c20:	a901 ab36 a8f0 2d8b aa9e 2c63 29fd 2739     ..6....-..c,.)9'
44005c30:	2731 2a03 28c0 9ef4 2807 aa62 add3 2c53     1'.*.(...(b...S,
44005c40:	2cc5 2fcc b178 a415 a132 aac3 27fe 2c86     .,./x...2....'.,
44005c50:	2bdd 2ddf b02d 2cec 2b89 acb5 29cb a90d     .+.--..,.+...)..
44005c60:	a15c 1b96 27bc 2e3d 2c2f 2014 2b2b 2dfc     \....'=./,. ++.-
44005c70:	977a 2c5d 2c90 a5a7 2807 9dad 2d64 2795     z.],.,...(..d-.'
44005c80:	a47c 22d3 974c 2d2d acf8 2264 2c08 2ccd     |.."L.--..d".,.,
44005c90:	25fc abaf b058 ad0f ac96 adcf 248f acbc     .%..X........$..
44005ca0:	a23b 2d00 2c92 a98a acea 2b68 2c5f 2851     ;..-.,....h+_,Q(
44005cb0:	a7cb 2cc8 287a 2d87 1f86 ae45 2c64 2c86     ...,z(.-..E.d,.,
44005cc0:	ac31 a66c 2515 2d70 ab2b ad53 aebf 2b6b     1.l..%p-+.S...k+
44005cd0:	a1ce aa0b 2500 a425 a8ea ada0 a8d8 2e6d     .....%%.......m.
44005ce0:	adce a5d1 a8f5 2b37 27d4 2837 2b65 a83c     ......7+.'7(e+<.
44005cf0:	2a80 a810 9e8a 2158 24bc ab73 2c8d a07e     .*....X!.$s..,~.
44005d00:	ab34 955f aea4 2b3d 2796 2b67 ac19 2b34     4._...=+.'g+..4+
44005d10:	2816 20f6 2689 acd4 290b abd9 a03e 9c93     .(. .&...)..>...
44005d20:	ab5d acf8 26d2 afac ad1d ad5e 21b5 ae41     ]....&....^..!A.
44005d30:	25d6 a018 a87b 2a91 abc7 acf5 ab10 28ea     .%..{..*.......(
44005d40:	ae3d 2ab7 a08b ac33 aadc a41b 2626 2bfb     =..*..3.....&&.+
44005d50:	1e69 af33 2b37 b045 a4ee 23ae add7 ae53     i.3.7+E....#..S.
44005d60:	2506 283a a973 a13a 1a3f a8cc af0d a70c     .%:(s.:.?.......
44005d70:	a07a 26b2 a909 a70d ac28 a9d0 1f4b abde     z..&....(...K...
44005d80:	a65b 2bc7 a974 b010 2da8 a7aa ac5c 23d5     [..+t....-..\..#
44005d90:	1ac3 b027 2abe 1fdd adba 25d5 ac1c ad3b     ..'..*.....%..;.
44005da0:	2b51 29b7 2d18 af9a af12 aefe ac3d a8ed     Q+.).-......=...
44005db0:	a848 22e3 a899 a658 a787 a95c aa39 ac5c     H.."..X...\.9.\.
44005dc0:	a849 afd1 2492 21a0 268b a933 2908 2a57     I....$.!.&3..)W*
44005dd0:	2d63 a8ac 22ab ab1f 2a0e a6f9 9e72 abfa     c-..."...*..r...
44005de0:	279a a307 254d af9c ae32 af80 ae00 1069     .'..M%..2.....i.
44005df0:	a4df 2c2d 2c7c ab63 201c 2123 2c4e 2cb7     ..-,|,c.. #!N,.,
44005e00:	2cb4 ac21 0f2f 2ecc 2b5a 2b82 2bef 2a5c     .,!./...Z+.+.+\*
44005e10:	29b0 2bdd 9db2 2ba4 ab2a 2db0 28fc a5fc     .).+...+*..-.(..
44005e20:	2946 2434 a8f3 1e07 229b a44b ae1f 981b     F)4$....."K.....
44005e30:	2d71 ab71 25ff 2af0 a4ae 25fe a6d3 216e     q-q..%.*...%..n!
44005e40:	9950 acd7 2156 acb1 994d 2a28 ac60 a02f     P...V!..M.(*`./.
44005e50:	a9aa a926 2be3 ac17 a8f1 2351 1a4b 2a42     ..&..+....Q#K.B*
44005e60:	2c86 282a 2d01 a9ce 2d6d 2951 29ce 2c3c     .,*(.-..m-Q).)<,
44005e70:	aa25 2d19 2804 2092 ac1c 26d6 a92f 9fb8     %..-.(. ...&/...
44005e80:	b196 2bfa ab3b 2952 2a73 2c27 ac6d af7b     ...+;.R)s*',m.{.
44005e90:	2bed 3021 2775 2c45 a4a7 2cf6 a90a 2823     .+!0u'E,...,..#(
44005ea0:	220d 1f86 2f22 a85e ad9c ad35 3000 9c6d     .".."/^...5..0m.
44005eb0:	2df2 aa5c 20e3 a847 a88c 284c 210e acba     .-\.. G...L(.!..
44005ec0:	29b3 a377 aa08 2283 2ec1 2ef4 ac6d 2a83     .)w...."....m..*
44005ed0:	a7b6 319d 1c9a ab1c ae2e add1 2ca1 2f16     ...1.........,./
44005ee0:	2316 2113 155b a282 a971 2fc7 a87e 22c6     .#.![...q../~.."
44005ef0:	a711 2c39 a55a a59f 2a13 21f8 ac67 2619     ..9,Z....*.!g..&
44005f00:	a539 abf9 a7bf 2c9e 27d0 2bf8 2c78 30ee     9......,.'.+x,.0
44005f10:	2868 28a0 2abe aa6c 300b a3f2 2c3d a081     h(.(.*l..0..=,..
44005f20:	a9c9 ac8c 28be 2a2f 265f 2cd1 2bbb 3061     .....(/*_&.,.+a0
44005f30:	251b 2ee5 ac89 2fb0 246c a46b ac03 ac2e     .%...../l$k.....
44005f40:	a79c 2488 2df1 2c60 2d8e 215d ad40 b035     ...$.-`,.-]!@.5.
44005f50:	aec8 ac71 2b2b ac24 2ca8 ae9f 27c8 2aab     ..q.++$..,...'.*
44005f60:	2581 a9a9 ad8f 2a99 a719 ad2d a85b ad4b     .%.....*..-.[.K.
44005f70:	a5bc 2f12 2a1c ad68 2fc6 30b4 17fe 9fa4     .../.*h../.0....
44005f80:	2906 9d83 ad18 affe b160 a743 2cdb 9c55     .)......`.C..,U.
44005f90:	2dd7 29ee 2bad 2931 ac2f 300a a0b8 a164     .-.).+1)/..0..d.
44005fa0:	2902 27ea 2ec5 2acc 9aae ac3b 2df2 17eb     .).'...*..;..-..
44005fb0:	ad96 9d53 a98a a61e 2c21 2d92 af57 9f17     ..S.....!,.-W...
44005fc0:	2c12 a971 2ce0 b0f6 2a0d 3013 2d75 aa27     .,q..,...*.0u-'.
44005fd0:	2072 a84f 308b 253e 2072 3090 3234 2dc8     r O..0>%r .042.-
44005fe0:	ad27 2303 1a0e 1dfb 289a 2d6b 2eb2 25f3     '..#.....(k-...%
44005ff0:	2762 a488 acf8 2691 2e7d a808 a4ba 2d94     b'.....&}......-
44006000:	ac8f 2c65 2594 b189 1f70 2e3b 2ee5 2dfe     ..e,.%..p.;....-
44006010:	2dbd 3004 af03 29b0 0f05 a6b9 2912 2914     .-.0...).....).)
44006020:	ac9f 2f3b 2909 a868 241b 2acf b020 ad87     ..;/.)h..$.* ...
44006030:	25d6 1feb 2a72 a601 30e4 b228 af13 aa12     .%..r*...0(.....
44006040:	aed1 911c 2908 2211 2e19 aded acc2 a72e     .....)."........
44006050:	a388 2314 a156 ad31 2973 25a5 acda b0df     ...#V.1.s).%....
44006060:	a8a3 2c1e ad70 8206 29a6 2aca 1a5e acb8     ...,p....).*^...
44006070:	ac18 ad8c 2d4b ac3a ad25 a7c1 aff3 2ccc     ....K-:.%......,
44006080:	2cdb ac03 2ee7 ad6b aa1c a40e a8b5 ac22     .,....k.......".
44006090:	220c a6dd 2c5a 9d10 2b40 3033 3009 ad17     ."..Z,..@+30.0..
440060a0:	aa66 298c a52b 2f4e 2498 a52f aea0 ad6b     f..)+.N/.$/...k.
440060b0:	2be9 2935 adab a955 adae a4c0 28da a9ce     .+5)..U......(..
440060c0:	ab8a 2b6d 220e ab54 a521 276a accd a5b0     ..m+."T.!.j'....
440060d0:	ad0f aac2 2b21 adc3 2dcd ad24 a9e9 ad4b     ....!+...-$...K.
440060e0:	176f ac2d 9ac4 ac11 2c69 acc4 ad8a 28bc     o.-.....i,.....(
440060f0:	ae84 add0 9859 a6a7 2a5c 271a 2468 a705     ....Y...\*.'h$..
44006100:	2bc6 2833 a740 1ec8 1d6a 21bd a575 a1f1     .+3(@...j..!u...
44006110:	2a8c a8af 2afa 290a ac0f ad7f ad12 a0f8     .*...*.)........
44006120:	2a67 2b91 ac64 acbc a625 abbc 2962 28a9     g*.+d...%...b).(
44006130:	ad8f 9c03 2c1c a75f 26d8 ad4c a67c 2cbe     .....,_..&L.|..,
44006140:	2c46 a5be 25b3 a4ea a916 242f 289b 2cbc     F,...%..../$.(.,
44006150:	a684 290b acbf ab4c 2851 9e37 2923 2c10     ...)..L.Q(7.#).,
44006160:	96e2 2185 2891 2530 a372 2655 ab6f acc2     ...!.(0%r.U&o...
44006170:	ac93 a386 2a56 adec 2650 ad0b a5a0 ac5c     ....V*..P&....\.
44006180:	a436 ac9f ae93 a9ac 2ae2 abf9 ac05 aaa5     6........*......
44006190:	ad27 aa15 ae29 22f4 a0f5 a9ac 205e ad47     '...).."....^ G.
440061a0:	20ee 25b0 abbe 1336 22a4 12ec 1fc9 2d43     . .%..6.."....C-
440061b0:	a6c6 2a0e b079 29be a664 2416 2ce5 aae4     ...*y..)d..$.,..
440061c0:	aa66 ac18 25e6 9185 2b78 2960 26b1 2b95     f....%..x+`).&.+
440061d0:	2cf7 a95d 2cb7 acae 2b5d ad69 ab8a a3d1     .,]..,..]+i.....
440061e0:	23e5 2702 1446 ae88 aa57 ad91 a8a9 2f04     .#.'F...W....../
440061f0:	2cf9 224a 158d a9b1 aa6c 2ddf 24e1 3016     .,J"....l..-.$.0
44006200:	2c21 2be7 240b 2e62 a6c2 ab10 2820 2b01     !,.+.$b..... (.+
44006210:	a945 2b58 2d81 a7c4 2e01 ac3b 2a51 ac28     E.X+.-....;.Q*(.
44006220:	9c3e aaaf 21c4 ada4 9fd0 2b61 adf1 19ef     >....!....a+....
44006230:	a465 ac63 b079 3040 2c9f ac7a aad5 2fd9     e.c.y.@0.,z..../
44006240:	1d26 2ac1 29c7 2eb1 1ea1 2488 2a2f 20eb     &..*.).....$/*. 
44006250:	2cc8 2abd a7dc ade3 2b56 a7a1 2da0 a9de     .,.*....V+...-..
44006260:	a1b9 299a a96c a890 a0c5 a4ea 2744 1cd2     ...)l.......D'..
44006270:	2e1f 2b4b ab15 217e 1750 aac7 ad81 3085     ..K+..~!P......0
44006280:	ad61 a32d 2e29 2892 ac34 ae5b 2dbe a86c     a.-.)..(4.[..-l.
44006290:	abc1 ae24 aa75 2949 a9ec 2406 acec a537     ..$.u.I)...$..7.
440062a0:	2401 9ac4 aa5e ade4 23d2 3010 ad32 2cf8     .$..^....#.02..,
440062b0:	0b17 ac8b 023f a903 a669 29ba 2972 ad02     ....?...i..)r)..
440062c0:	ada8 9994 24f6 201d a630 2563 2796 292f     .....$. 0.c%.'/)
440062d0:	27d4 ad40 ac8a 2af6 20b0 a289 1bcc 2c45     .'@....*. ....E,
440062e0:	2afc 3000 addb 2d21 a89d aa66 2be8 aa8c     .*.0..!-..f..+..
440062f0:	88fc 2c6a 2c7c 2cfa 2d48 2f59 a404 a851     ..j,|,.,H-Y/..Q.
44006300:	9b45 a520 2f17 a8c5 2bae ab65 adcc 2d30     E. ../...+e...0-
44006310:	ab2a a8e2 29c3 2ce9 2b5a aed8 2ed4 a3a5     *....).,Z+......
44006320:	26fc ae50 2938 9f41 2d52 2da3 2adc 2ebc     .&P.8)A.R-.-.*..
44006330:	2a89 a238 aa94 abc6 9eca 2212 b012 9e43     .*8........"..C.
44006340:	9eea 2d08 ad2d 287e 2d4c 9cef ada2 a477     ...--.~(L-....w.
44006350:	3052 1486 21c7 2cae a487 29a2 9f46 a2ce     R0...!.,...)F...
44006360:	2d92 ad1f ae65 2b50 afd3 ae25 ac04 ab4f     .-..e.P+..%...O.
44006370:	ae3a 2d53 a9e8 9ccf 9f0a 2c43 2c76 28ad     :.S-......C,v,.(
44006380:	a870 ace2 29e5 2c02 231c 2ce9 2c43 291c     p....).,.#.,C,.)
44006390:	212a a3f5 2ded 2230 2ea6 a409 a975 2c5e     *!...-0"....u.^,
440063a0:	200e 2bd5 2bd7 2ae7 a792 245b 2a7c 9fc0     . .+.+.*..[$|*..
440063b0:	b0c7 a306 277e 2f3f a69e 2a43 ad32 244a     ....~'?/..C*2.J$
440063c0:	2910 ad78 a803 3106 29bd a811 ac1c 2ece     .)x....1.)......
440063d0:	acbe 2f09 2f88 ac81 8c92 28d5 acad a9cb     ..././.....(....
440063e0:	2e29 29be 27c1 292a accc a7aa 2ae4 a881     )..).'*).....*..
440063f0:	a2d8 227c ac8d 2d7c a0be ac3a a978 299d     ..|"..|-..:.x..)
44006400:	1ea6 2bb0 296c 2af2 2c09 a930 aa4f ad2c     ...+l).*.,0.O.,.
44006410:	a7b0 ac2a 30d4 2c3d 2c90 22a4 2dd7 2be3     ..*..0=,.,.".-.+
44006420:	b125 226e aca6 2d50 ae81 a62d ad35 af51     %.n"..P-..-.5.Q.
44006430:	a84b ad76 2b50 2d93 a361 2efa a4cb 28fa     K.v.P+.-a......(
44006440:	301c a86e 2648 ad8d 2c7f a399 3099 aca1     .0n.H&...,...0..
44006450:	28d4 2cb4 a8b7 a648 1c8c a944 2d6e b28c     .(.,..H...D.n-..
44006460:	a47e 2bbe 9f4c 2b3e 2c81 a917 23f6 278a     ~..+L.>+.,...#.'
44006470:	2625 97b7 21d9 2d5a 1e74 a84a abbb a46a     %&...!Z-t.J...j.
44006480:	a996 2a8e 2813 ab56 26ac 2c4e 2f52 2741     ...*.(V..&N,R/A'
44006490:	2ca2 2291 2f99 2c35 ab83 aa77 2e30 ac98     .,."./5,..w.0...
440064a0:	af88 a72b a8b9 2e13 2d8e ac27 28b4 2e9f     ..+......-'..(..
440064b0:	2586 aba0 acec b1b0 27aa a5c4 ab16 2c49     .%.......'....I,
440064c0:	2b32 3063 aae9 a567 ac86 a9af 2e18 1846     2+c0..g.......F.
440064d0:	13c9 2d68 a27e 2aef aa92 2299 298a 2f5f     ..h-~..*...".)_/
440064e0:	9a69 2c59 28d2 2c19 304e ad1b 2903 ad2b     i.Y,.(.,N0...)+.
440064f0:	2b16 2b37 2da8 24e8 aba7 2f6e 237e 2849     .+7+.-.$..n/~#I(
44006500:	2ca3 acf2 24df 2906 a08c a5a8 2c19 21e9     .,...$.).....,.!
44006510:	3040 2e58 a9d6 a870 29f6 afbc 2b27 a7d9     @0X...p..)..'+..
44006520:	2c61 296c 2b30 2b99 ab14 2c52 a7b3 abee     a,l)0+.+..R,....
44006530:	2d44 a9ba a6d7 2ed4 a923 2c46 2c9b 27fa     D-......#.F,.,.'
44006540:	a18d 2fde 198b 25a5 2c99 ac85 2b5e 26ca     .../...%.,..^+.&
44006550:	aaff ac59 ac9a a866 a8c9 a71e 2e64 a8b9     ..Y...f.....d...
44006560:	225e 2e48 2446 af4f 2dfe a4aa ab2e 1a8d     ^"H.F$O..-......
44006570:	25a3 a96b 2436 2941 2ed1 24d3 afed 1f30     .%k.6$A)...$..0.
44006580:	ad10 2a9a 2286 ac1f a880 a8cc 2e12 2540     ...*."........@%
44006590:	2e8b ac10 ace1 2825 2c01 2d7f 2b44 ad6d     ......%(.,.-D+m.
440065a0:	206c 3003 2531 30aa ae80 a62d 211d 2a60     l .01%.0..-..!`*
440065b0:	2ee9 294e 2f25 28e4 a8e6 2bc9 a08e abba     ..N)%/.(...+....
440065c0:	2909 1ea7 ab8f 2f34 292a 3019 af91 a9a7     .)....4/*).0....
440065d0:	acbc 2c12 a6ed a137 acaf 314c 3099 2c8c     ...,..7...L1.0.,
440065e0:	2c2f adfa ae00 2966 a8f5 acf9 30a7 adb7     /,....f).....0..
440065f0:	a709 adf6 27e7 20cc 29c4 9f5f 2bf2 a6f1     .....'. .)_..+..
44006600:	28f2 284f ac33 232f 2fa6 9d36 a195 ade9     .(O(3./#./6.....
44006610:	2b50 2e71 a566 a935 29b8 2d41 21fe 2b12     P+q.f.5..)A-.!.+
44006620:	aa35 a8cd 26b8 ae16 aa05 ac8b a9af 2701     5....&.........'
44006630:	2e18 ac6e 3033 2c41 a8c1 28f0 abe2 299b     ..n.30A,...(...)
44006640:	2ca5 25cb adfc ae0b 9a60 2fe9 aede 2155     .,.%....`../..U!
44006650:	2cb3 2d8a 1d1c a448 2de5 9e9e 27cf 2e33     .,.-..H..-...'3.
44006660:	2be2 2c6c a145 2cdd 2c13 2898 2fb0 acd8     .+l,E..,.,.(./..
44006670:	a062 268d 1cbb a89c ab4a 294b 2d9e aa2c     b..&....J.K).-,.
44006680:	2e24 acb1 2749 2e26 2c59 a9ac a0a7 a6d4     $...I'&.Y,......
44006690:	8af6 2db2 ac92 ad53 a9e7 3035 2dec 2d71     ...-..S...50.-q-
440066a0:	2f64 24ac ae5f 2ece 247a aa51 28fb a83a     d/.$_...z$Q..(:.
440066b0:	2842 a660 a9b6 a58c a5a1 ac6d 2c5b 2d57     B(`.......m.[,W-
440066c0:	2a8c 2894 212f 2c5c 1c2d a559 8deb a503     .*.(/!\,-.Y.....
440066d0:	ab71 ab96 2be5 adaf 2cb1 2d5a 294c 284d     q....+...,Z-L)M(
440066e0:	2e11 2496 ac70 a16a add3 ac08 abce 2e37     ...$p.j.......7.
440066f0:	2c19 aa7c 2b6f a998 24d9 2c5f 2a38 2c27     .,|.o+...$_,8*',
44006700:	2acd a8f4 27bc ad25 aca7 21a9 a87c ab67     .*...'%....!|.g.
44006710:	ab1a 0a8e ad31 a4bc acc9 a5f6 adae 2cd7     ....1..........,
44006720:	a719 2d29 2f1c adba 2ac2 2e16 2c6d aa9a     ..)-./...*..m,..
44006730:	2948 ab0e 2f8e 2611 a5a0 ab5c 2e5f 2a03     H).../.&..\._..*
44006740:	2df8 aec3 ae05 3016 3125 8e95 aceb 2829     .-.....0%1....)(
44006750:	2edc 2d20 b02e a822 a488 a9ad 252c ac2d     .. -..".....,%-.
44006760:	2941 2ff5 2bc3 940e abf3 2a3d 2d80 a909     A)./.+....=*.-..
44006770:	2dcc 2c7a 2d8e 2d88 2b5f 2de1 aa4e 2f06     .-z,.-.-_+.-N../
44006780:	a935 ac2b 2b11 ac0d aa2e aed6 acf5 15a7     5.+..+..........
44006790:	a874 ab96 2daf 2e11 2b03 a68a a8dc ac30     t....-...+....0.
440067a0:	289e a974 acd9 1a58 a979 aacc 2eac 2abc     .(t...X.y......*
440067b0:	283b 2a81 ab1c a6bd af81 2965 2861 2a66     ;(.*......e)a(f*
440067c0:	2399 3063 2d24 2a83 2f8b 9d67 a815 2e87     .#c0$-.*./g.....
440067d0:	aca0 a993 2a95 30de 263f acc2 2418 2a7b     .....*.0?&...${*
440067e0:	2b62 ac25 a8fa 2d64 98bd a55f 2d08 ad1e     b+%...d-.._..-..
440067f0:	2c28 2f56 a116 adf5 a927 ada0 2f05 a705     (,V/....'..../..
44006800:	2d3f a0d0 2a02 26d6 a75b aaf9 287a 2498     ?-...*.&[...z(.$
44006810:	9f09 2efc 2faf 26e9 2ca4 a5e3 ae25 a1b6     ...../.&.,..%...
44006820:	a0f7 904b 2bc6 a579 27b4 2ee1 adaa ac01     ..K..+y..'......
44006830:	2900 2dac 2d2a aab1 9bdd aae7 17f1 adb6     .).-*-..........
44006840:	a6d6 2d3a a5ba 2d03 2b22 3026 2dcb ada5     ..:-...-"+&0.-..
44006850:	2b67 1ce5 acdb a979 a015 acfd 2ecd ad97     g+....y.........
44006860:	2819 28bc a4cb a664 301c 2d37 2b3f 2707     .(.(..d..07-?+.'
44006870:	a15a 2e99 af80 ad84 2339 a9b2 2353 a99e     Z.......9#..S#..
44006880:	2f02 2b62 aab8 2f15 2d00 9f19 2e14 a8f1     ./b+.../.-......
44006890:	acf0 2dbf a368 2a32 28ca 2a69 a297 2d3e     ...-h.2*.(i*..>-
440068a0:	2706 aca1 a994 2cb8 a98d a8dc acb3 a9f0     .'.....,........
440068b0:	ad9d 309a 2d16 aa91 2a7e 2b1b 29b8 ad02     ...0.-..~*.+.)..
440068c0:	a9eb ac7e ac1e a94f abfb 2c95 aecf a619     ..~...O....,....
440068d0:	a94f adf8 a978 2d1c a4ff 21aa a797 ac0a     O...x..-...!....
440068e0:	ac15 2038 12cb aa00 abf3 ace7 29c9 2da9     ..8 .........).-
440068f0:	2ad5 ab20 2c25 24a4 ad04 aa4e 2fd4 24b1     .* .%,.$..N../.$
44006900:	2b91 2ce6 2f87 aab6 ad47 2a2a 23af 27d4     .+.,./..G.**.#.'
44006910:	2c27 ac26 2f71 a7d4 a286 ab58 a12f a8a5     ',&.q/....X./...
44006920:	a8d4 aa2b 2d10 a636 addb 2c51 25fd 1bf2     ..+..-6...Q,.%..
44006930:	a6af ac6b 30a0 a924 2100 abda 2c99 a8a1     ..k..0$..!...,..
44006940:	2c7a 24dc 28a1 2b99 2b67 1d3d a3a7 9e70     z,.$.(.+g+=...p.
44006950:	20d0 ad64 ad6d ac35 afe5 af34 2a2b a11a     . d.m.5...4.+*..
44006960:	a945 2e82 a8d1 a8bd ad1d 313a 2e13 2ad8     E.........:1...*
44006970:	af57 2a63 b0d7 2e58 a74c 255d 2bc8 297c     W.c*..X.L.]%.+|)
44006980:	2d86 2dda 2d69 ac8c ab46 29f4 ac2c a2ba     .-.-i-..F..),...
44006990:	abcd a452 ac9c 2c0a 2ab0 2e91 2a73 2657     ..R....,.*..s*W&
440069a0:	9d01 ab0e a8fe 9a48 2861 ac08 2b3d 21c8     ......H.a(..=+.!
440069b0:	20dd 246b aa44 aebe ab9d 2ac4 28e8 afd9     . k$D......*.(..
440069c0:	ad96 2fce 26b7 2792 aa2d 2d2c aa99 2d84     .../.&.'-.,-...-
440069d0:	2cd5 ac30 aae5 3155 ac8e a567 aeba 2598     .,0...U1..g....%
440069e0:	acea 9f35 aef0 2993 283a 295b aaaf a85b     ..5....):([)..[.
440069f0:	b07f ae68 aec8 9dc9 2bd0 ae9e 2976 2b54     ..h......+..v)T+
44006a00:	a93a 2cc9 add9 2765 25e0 a99f a42c ac7d     :..,..e'.%..,.}.
44006a10:	a17d 2b9a 2f4d a9d1 a726 a76a 8f76 ab54     }..+M/..&.j.v.T.
44006a20:	2b8b 2860 30dd 19d0 aa44 ae0a a216 244d     .+`(.0..D.....M$
44006a30:	aa24 28f8 2df3 ae48 2d0b ab82 2ea5 ae48     $..(.-H..-....H.
44006a40:	b1ad aded a8de 2f48 2af0 2cf1 abe7 acc6     ......H/.*.,....
44006a50:	a725 2ace 2563 2c6e aa37 a5f1 2d5a 1e1b     %..*c%n,7...Z-..
44006a60:	2c42 ace8 9a25 a979 a58c 2be4 2994 ac42     B,..%.y....+.)B.
44006a70:	a355 2e6b ac28 2e70 2c4b ad41 21ee 16ea     U.k.(.p.K,A..!..
44006a80:	272a acd0 a817 2ae9 2850 2eda 2c4e 29bb     *'.....*P(..N,.)
44006a90:	2db8 ac17 acac 2e53 2fce adba 9b04 21d9     .-....S../.....!
44006aa0:	2cb9 a951 2ce0 a57b 9e2d 2ee4 2b5d b003     .,Q..,{.-...]+..
44006ab0:	aa71 acf0 a33d 2c87 2d14 2c92 2c47 ad59     q...=..,.-.,G,Y.
44006ac0:	a85e 2c73 a874 2d7c 1e68 274e aa5a a240     ^.s,t.|-h.N'Z.@.
44006ad0:	2738 abb7 2ee4 20b6 2136 2c34 2a39 232b     8'..... 6!4,9*+#
44006ae0:	ad5c 2a25 300f ad17 1872 add9 305a a128     \.%*.0..r...Z0(.
44006af0:	a5d0 a2c2 a4eb 27ba 2574 ac51 a5b6 2960     .......'t%Q...`)
44006b00:	28d0 3013 3048 2e7e b131 2c06 a5b1 2d58     .(.0H0~.1..,..X-
44006b10:	aa83 8910 1aa5 2bf0 aa6f a33d 26fb 25a0     .......+o.=..&.%
44006b20:	25c2 2d16 2de8 2e91 ac2b a9d3 ad36 278a     .%.-.-..+...6..'
44006b30:	a818 a13f ae55 24df 2e15 2605 a8e7 a66d     ..?.U..$...&..m.
44006b40:	2a8b a5d9 2417 2e0d 1537 a201 2fff 2fd5     .*...$..7...././
44006b50:	24f6 2d62 ade6 2c78 2e5e a8e9 a946 3049     .$b-..x,^...F.I0
44006b60:	a914 2822 adcb 2bf7 2d9e abaf af3e 2995     .."(...+.-..>..)
44006b70:	1a4d 2c2f 1b0b a9b5 2d2c acb6 a687 2436     M./,....,-....6$
44006b80:	a97e aeb9 2d36 a85f a849 29b0 2477 2d9a     ~...6-_.I..)w$.-
44006b90:	3036 abd9 ac27 ac49 2b74 28ce 2da9 a9ff     60..'.I.t+.(.-..
44006ba0:	a99c 3025 a73f ac26 22a2 3104 adb7 2843     ..%0?.&..".1..C(
44006bb0:	2c30 a8da aaed 8d2d a511 2b3c ad5b 245a     0,....-...<+[.Z$
44006bc0:	279e 24d6 ad1d 28ea 24a6 2873 2c54 255c     .'.$...(.$s(T,\%
44006bd0:	a941 288f 9628 ae72 2cc4 af8d 2d71 a4f5     A..((.r..,..q-..
44006be0:	a678 1ec0 a6c8 28c8 ad3a ab3a 2898 2aff     x......(:.:..(.*
44006bf0:	a865 ac03 a491 2d1c ac4b 3148 2991 9fef     e......-K.H1.)..
44006c00:	a102 2983 ab59 2d1f 230d a5c4 2793 aa56     ...)Y..-.#...'V.
44006c10:	aacd 24c8 2c99 a958 a9e4 2aaa a10b 9964     ...$.,X....*..d.
44006c20:	2b66 aa9f 26db a9e2 28a2 a334 2a0a ac4e     f+...&...(4..*N.
44006c30:	a4aa 9a69 2791 a9e7 adfb aa88 ac18 ab8d     ..i..'..........
44006c40:	2b89 2fd8 a868 a8dc 28b9 2d91 ad83 2e2c     .+./h....(.-..,.
44006c50:	262f 2ce5 2c0c 289d ab92 2c34 29ea 2897     /&.,.,.(..4,.).(
44006c60:	2a0c ab98 308b 2c3b ad9f 9576 a096 ac98     .*...0;,..v.....
44006c70:	1ec6 b046 ac5b a47f 945e a12f 2eda 2b5d     ..F.[...^./...]+
44006c80:	2bff 29ad aee1 acaf a844 2d0c 28e1 2c00     .+.)....D..-.(.,
44006c90:	3076 ab25 ae09 a4be 2937 a0b1 ac7d a67d     v0%.....7)..}.}.
44006ca0:	2044 ae2f 1c09 ad36 a99c aad7 a9c5 a51d     D /...6.........
44006cb0:	2b63 a0df ad5c acbb 299c acfe acb4 aae1     c+..\....)......
44006cc0:	ac8a a8d5 17e5 a4f0 28f2 a5bc a920 326c     .........(.. .l2
44006cd0:	2cc1 23be 2584 271c a946 ac40 2de0 ac0c     .,.#.%.'F.@..-..
44006ce0:	a7ca a28f ac1b 2cfd 23b6 27ee 205d a647     .......,.#.'] G.
44006cf0:	277b a5bb 98ff a35b a312 3071 2e0f ac10     {'....[...q0....
44006d00:	1439 a745 acba ae4b 2b3e aca0 2c4e 2c26     9.E...K.>+..N,&,
44006d10:	a397 269d 15d2 1b00 a4af 2c2f a839 22a3     ...&....../,9.."
44006d20:	a851 303e b11c a027 ab67 2008 2d89 2abe     Q.>0..'.g.. .-.*
44006d30:	a922 2e2b 282d 2528 a445 a2a8 99d1 a8ae     ".+.-((%E.......
44006d40:	a9a3 2d45 2c98 a756 ac4c 9f0e 22d7 ac3e     ..E-.,V.L....">.
44006d50:	acd3 2d5c a76d 2844 2e2c ac93 28e1 2c2c     ..\-m.D(,....(,,
44006d60:	2165 2af8 2ca8 2ae0 aae6 2391 27c3 ab56     e!.*.,.*...#.'V.
44006d70:	2e27 ad10 addf a82e adc6 2d72 afc2 aa9a     '.........r-....
44006d80:	aadf abb1 2a53 2cbb 1942 a8ba 1beb ad0a     ....S*.,B.......
44006d90:	aed6 2ab5 aa91 a8bc add2 af06 284e ad18     ...*........N(..
44006da0:	a5bc 2d08 ae0a 2ad5 2f25 a91c 2953 2c4f     ...-...*%/..S)O,
44006db0:	2197 2b3a 2fb7 a7a5 a566 ae0f 2e11 a9ea     .!:+./..f.......
44006dc0:	a13a a418 2ebe 2fb8 2d4f a9af a4a8 a8ff     :....../O-......
44006dd0:	a748 2bed ac5b 2e93 a039 af06 a0df 2dd2     H..+[...9......-
44006de0:	a83a 2eb5 adbb 1f83 a5a8 30bb a9bd 2a8b     :..........0...*
44006df0:	1d6c 280a ad13 2ae2 a1f6 2c8c 27d8 21c7     l..(...*...,.'.!
44006e00:	307b a5f2 acac a73b 221f ae45 21bd 2bf7     {0....;.."E..!.+
44006e10:	2b92 3022 ab12 2663 9d7e a6c7 2dfd a8c4     .+"0..c&~....-..
44006e20:	28c2 2807 ae65 2831 a916 a00b a8e4 2fcf     .(.(e.1(......./
44006e30:	28db 2d95 2af8 2f02 2470 2a8f 2d74 aa1a     .(.-.*./p$.*t-..
44006e40:	2d15 a685 2d55 9d6d 2e8e ad11 2a5b 2c54     .-..U-m.....[*T,
44006e50:	ada4 ab26 2bdd 9d99 b031 262d 2f28 1fee     ..&..+..1.-&(/..
44006e60:	2a40 2ca9 adac 22fa 288c a93f a8db 2ea6     @*.,...".(?.....
44006e70:	24c2 2e39 a1d4 a626 a4b7 2987 2528 30bd     .$9...&....)(%.0
44006e80:	2665 2fb7 acbd 23bb 18ad 1fa2 2cf5 9c8a     e&./...#.....,..
44006e90:	a6bd a8b8 af8e 2619 ad13 a40a 2ab5 ac32     .......&.....*2.
44006ea0:	adf0 28b1 9a25 aa04 a0eb a8f5 9df9 3068     ...(%.........h0
44006eb0:	2e80 ac24 29d3 2df2 ac6a 2f84 a719 a2c0     ..$..).-j../....
44006ec0:	a888 a9b4 b0d9 abd3 226c a8c2 aa67 2aea     ........l"..g..*
44006ed0:	3036 2feb 2434 ae61 a1bf 2657 21c3 2881     60./4$a...W&.!.(
44006ee0:	b061 208f b00e 2502 ab62 aa72 2d96 a9ed     a.. ...%b.r..-..
44006ef0:	32a8 aace 2c05 a544 2b27 2e6c 2c6c a906     .2...,D.'+l.l,..
44006f00:	2cd1 3011 aec1 afc1 aebe b0c8 2538 afea     .,.0........8%..
44006f10:	2d95 26ac a8e0 2bfa a691 2b86 2bbd 301c     .-.&...+...+.+.0
44006f20:	ae95 a299 a8ef 2fb2 2dd6 a246 adb1 ab2b     ......./.-F...+.
44006f30:	8bfe a8e5 27f2 2738 afad 2cc9 303c 2b5b     .....'8'...,<0[+
44006f40:	ab09 ad1c ac11 ad79 2fe7 2c1f 2954 ada7     ......y../.,T)..
44006f50:	ad34 a177 2423 2d81 a7ee 2d78 a46a 3029     4.w.#$.-..x-j.)0
44006f60:	302d ad5f a55a 2cbc 21cf 2e54 2a4d aad7     -0_.Z..,.!T.M*..
44006f70:	9b34 2e35 29b4 acae 19f9 a9fb 2dc7 a821     4.5..).......-!.
44006f80:	27ed 9f89 25b8 2ae4 a976 af2f a875 29d5     .'...%.*v./.u..)
44006f90:	2a44 a8a0 3072 2680 acdf 2f19 ad4f 28df     D*..r0.&.../O..(
44006fa0:	2cb4 2c3f 2dab 2de0 2df0 2d4c aa95 2bfe     .,?,.-.-.-L-...+
44006fb0:	a9e3 93a8 ad41 a8d6 ad5f ac37 a2ce ac72     ....A..._.7...r.
44006fc0:	a9af aca8 aaa5 acf2 aaec aec1 a652 aadf     ............R...
44006fd0:	2004 2425 2b60 2c95 ab5d 2c66 a4a2 273d     . %$`+.,].f,..='
44006fe0:	2a41 2ad0 a758 a9e5 a83c ad8d 2b66 241a     A*.*X...<...f+.$
44006ff0:	2b88 29c8 a0f4 af64 24bc adf4 af17 a8f7     .+.)..d..$......
44007000:	260e ae0c 2a42 2173 2b05 a492 29b2 aec3     .&..B*s!.+...)..
44007010:	2db9 2487 2acb 28f8 2d65 ac38 2d46 aa32     .-.$.*.(e-8.F-2.
44007020:	2d25 aaac ac03 a751 25bd ad9b 27fe 2708     %-....Q..%...'.'
44007030:	adc7 2244 a086 aca7 2a81 ad14 2188 29ee     ..D".....*...!.)
44007040:	288c 2b86 ac40 a8dc 2933 aca3 29ed 1c9c     .(.+@...3)...)..
44007050:	2aeb a54e 2c0f a957 ad42 ad14 28ce 2614     .*N..,W.B....(.&
44007060:	283e 2bf4 ac71 ad28 aa99 a4df aa1d 2cc5     >(.+q.(........,
44007070:	a85b ab54 ad21 266b ab67 a5e9 9eee 9be3     [.T.!.k&g.......
44007080:	ac2f ac14 2c69 29ae 2c0d 2958 aed6 2a48     /...i,.).,X)..H*
44007090:	2a98 a547 257a 2cce a90b ac9a 2990 2b7a     .*G.z%.,.....)z+
440070a0:	ab3f 2945 284b 901a 2b34 2bfc 1ed3 2d40     ?.E)K(..4+.+..@-
440070b0:	ac25 2c82 2c5a 29bb af8f ae9f 3096 29dc     %..,Z,.).....0.)
440070c0:	abf8 2c9f 2fa2 a9bf a9c8 2849 306d a50a     ...,./....I(m0..
440070d0:	a94a 2c35 aa2d 284b 2ff0 ac41 ac11 2fe5     J.5,-.K(./A..../
440070e0:	acd0 ae0e 2a61 2016 2800 a4da 2dc3 2c51     ....a*. .(...-Q,
440070f0:	b064 24fb 9d84 2afe a8df ac13 aaf6 2ba1     d..$...*.......+
44007100:	acf5 1dc3 28c8 a7b2 2d09 2b89 2923 a6cc     .....(...-.+#)..
44007110:	25d9 ad05 2b77 92b3 2ffe b0c1 9b23 acc3     .%..w+.../..#...
44007120:	2842 2c70 28df a8d2 28d5 a88f ae03 abb7     B(p,.(...(......
44007130:	addd 2847 9c50 30ad 2d66 2ad3 9e93 2587     ..G(P..0f-.*...%
44007140:	9eb5 2da6 a5dd ad6d abc6 ade3 2bb5 2b77     ...-..m......+w+
44007150:	23b6 2d6c 2b29 aac4 b139 17e8 a4a2 abf3     .#l-)+..9.......
44007160:	28dc 2a9e ad21 208b 256c 2585 a2cf a440     .(.*!.. l%.%..@.
44007170:	acaa 2e14 a81e 288f a826 2a5b a15d a2ec     .......(&.[*]...
44007180:	a421 2dbf 2f4c 2c42 aa24 2e27 ab49 2be9     !..-L/B,$.'.I..+
44007190:	a2ed ae84 a53c 2905 ac8e 3024 a968 2e93     ....<..)..$0h...
440071a0:	a01a 9a24 aab4 a72e aed9 ac95 2814 2909     ..$..........(.)
440071b0:	2a21 2dc3 a813 a5f8 2c3c 2cd6 1a01 2cb9     !*.-....<,.,...,
440071c0:	3065 27f4 2bc6 ab28 a86c aa3c ace8 a57f     e0.'.+(.l.<.....
440071d0:	2d09 2e42 262c 30ab ad2c a6c6 2ab1 a6ba     .-B.,&.0,....*..
440071e0:	2cfa ad37 af4a 2c4f ab98 9991 94da a842     .,7.J.O,......B.
440071f0:	205d 2db0 accc 30b3 ac6f 2f78 ae8c af01     ] .-...0o.x/....
44007200:	261a ac84 a99f 2658 9e8f 2ccb 2d08 ad40     .&....X&...,.-@.
44007210:	2010 ae63 ad93 ab3a 2cd1 ae38 2238 23d8     . c...:..,8.8".#
44007220:	2dca a363 aa0c 1839 a598 2939 2d1d 2d4b     .-c...9...9).-K-
44007230:	ac52 2e05 2d65 a068 ac7d 2ff0 2b30 a713     R...e-h.}../0+..
44007240:	ae6c a9ee 276f ab1a 2e01 9d62 1dde ad48     l...o'....b...H.
44007250:	2d2c 2bca 301b aec1 23a3 a8c4 b034 2073     ,-.+.0...#..4.s 
44007260:	a21e 29ab 2db1 2abe 305e 302c a908 2450     ...).-.*^0,0..P$
44007270:	aad4 262c af33 2e04 277d 2caf a697 a97d     ..,&3...}'.,..}.
44007280:	a59e af7f ac19 ab22 a6cc afe6 2a95 3079     ......"......*y0
44007290:	21b0 ae3a 152c a622 2fa2 aa1e a60f 25b8     .!:.,."../.....%
440072a0:	a611 2c6c 2649 ac37 292e 2de3 297d aa99     ..l,I&7..).-})..
440072b0:	aca2 a9c9 22d5 2bf3 2542 2f71 9261 ad93     .....".+B%q/a...
440072c0:	2e0c a326 2c19 2388 2c9f aee4 2a30 1bc1     ..&..,.#.,..0*..
440072d0:	a474 2d30 310c 270d a8f9 ab2e 24a9 9ab6     t.0-.1.'.....$..
440072e0:	251c 1bf3 29a6 2caa a8c6 2907 2899 283e     .%...).,...).(>(
440072f0:	a6bb 2e93 ae4b 2d29 aaa6 2e4e 26cf 309c     ....K.)-..N..&.0
44007300:	299f 29ab 1d4d 304f 253d 240e 2177 a2cd     .).)M.O0=%.$w!..
44007310:	ac77 295d 2854 aa89 1fac a9d1 2a9b 2eec     w.])T(.......*..
44007320:	1873 abad 2cfd 2a45 a43d a270 2d9d b13f     s....,E*=.p..-?.
44007330:	ad64 2ce4 ad04 2b2a 2bde 260a ade9 2192     d..,..*+.+.&...!
44007340:	28e9 290e a877 285e 2ed5 ac92 3093 aca9     .(.)w.^(.....0..
44007350:	a610 a50f a7b9 9fef 2a8f ae95 294c b19d     .........*..L)..
44007360:	15e7 a887 ac8c af26 aa28 947e ab4e 256d     ......&.(.~.N.m%
44007370:	ad76 2f98 2750 2d16 23dc a263 290d 2b4d     v../P'.-.#c..)M+
44007380:	b007 a629 9d9c ac4d 2966 299f a532 a669     ..)...M.f).)2.i.
44007390:	2ffb a94e 2d30 a4dd 2c41 ab4e b028 23f9     ./N.0-..A,N.(..#
440073a0:	2103 2d0c ac89 2ccf a056 aa9e 2b97 22fe     .!.-...,V....+."
440073b0:	2f4e ad8c 25de b052 28c6 a88f a173 a975     N/...%R..(..s.u.
440073c0:	ac84 b025 abed a83a a328 a708 aa32 a5d4     ..%...:.(...2...
440073d0:	ad9e a238 2d47 af85 ae7d aabf 2f9c 2cdb     ..8.G-..}..../.,
440073e0:	a9bc 2b9c 29b6 a44c ac34 2a52 15ad 2d79     ...+.)L.4.R*..y-
440073f0:	24c5 a789 a910 2e7b a090 2e0f b043 29ac     .$....{.....C..)
44007400:	b064 adb5 28e0 2c76 172f af55 a63f a271     d....(v,/.U.?.q.
44007410:	2b64 9ba3 18d4 2740 a10c a779 ae59 2cfa     d+....@'..y.Y..,
44007420:	a33d a795 ad84 20db ad8c a61d 9d7c 21a5     =...... ....|..!
44007430:	adcc a205 afc2 2c99 aed9 ad1f 2f59 2c47     .......,....Y/G,
44007440:	2db6 2c3b ae24 2c9b 1d68 b019 ad24 2944     .-;,$..,h...$.D)
44007450:	2d57 2988 9eac ac54 2561 ad4e 201a aac4     W-.)..T.a%N.. ..
44007460:	9dfa ac58 ad4e ade3 a897 a40e 2d25 2411     ..X.N.......%-.$
44007470:	280d a8b2 a7bc aaa0 246b adc4 15c6 acac     .(......k$......
44007480:	a9c7 a9a0 ae07 ac6d 2c02 adca add2 ad1a     ......m..,......
44007490:	2682 aabf a845 ac5a a8b0 ae43 ab10 1b02     .&..E.Z...C.....
440074a0:	2676 ab79 ae97 ad4f a99e 252e 2575 20dd     v&y...O....%u%. 
440074b0:	aa56 23f9 2bd0 ae22 2ceb 2c79 ab96 ad1d     V..#.+"..,y,....
440074c0:	9507 ad80 a8e3 280e aca3 2832 2853 2b19     .......(..2(S(.+
440074d0:	2cd5 2d86 a15d 2cdb 2a9a 1816 a688 286e     .,.-]..,.*....n(
440074e0:	2c63 a822 2c3d 29f6 2654 aba5 270b 2bae     c,".=,.)T&...'.+
440074f0:	ac87 a95c ac17 ab79 a476 a2d1 ada3 acdb     ..\...y.v.......
44007500:	a929 23a3 2b63 2b7f a08b aa63 a994 26d8     )..#c+.+..c....&
44007510:	a676 aa8a adc3 ad84 2963 a59b 2173 2a1b     v.......c)..s!.*
44007520:	2bf9 ab90 a96a a0ff a882 a106 2a7e 2a36     .+..j.......~*6*
44007530:	2857 ac4c 95e3 a911 2643 ab6c a927 a48b     W(L.....C&l.'...
44007540:	2c46 a5ba a4e9 aa6c 2c57 aea4 2375 1b41     F,....l.W,..u#A.
44007550:	a97e 2efb a54a ac6c 2f5f aada 2ba2 a7d1     ~...J.l._/...+..
44007560:	2fce 9ec5 2deb ad15 a9dc 2c0a 24ff 15e2     ./...-.....,.$..
44007570:	2597 addc ad90 2729 a1e3 2d19 aa82 aad3     .%....)'...-....
44007580:	3073 2884 2bdb a274 2cd9 aea5 2c21 a2cd     s0.(.+t..,..!,..
44007590:	2cc1 325b a999 270a ab85 aaf9 2c90 1243     .,[2...'.....,C.
440075a0:	31f6 1fd5 ad81 2caf a663 1ffe a0da 95b7     .1.....,c.......
440075b0:	a8ed 2d0e 2cce a3b6 2e30 2c3d 2b4d ac77     ...-.,..0.=,M+w.
440075c0:	aa30 ad2f a7d5 2d40 2c77 a95e 28cc 2acf     0./...@-w,^..(.*
440075d0:	ad42 ace0 21ad 3021 244f 1db3 2cfc a497     B....!!0O$...,..
440075e0:	2c30 ac67 acb0 2a7e 2adf 285a 2c4e 2d86     0,g...~*.*Z(N,.-
440075f0:	2edf 21e1 a87e 2cdc aa5c 3156 2c28 ac3d     ...!~..,\.V1(,=.
44007600:	2883 2a1b a57b 2ca5 28c6 9b50 2ab0 a0fc     .(.*{..,.(P..*..
44007610:	a99f ac93 ac7c 2238 2caf 28b4 2370 a624     ....|.8".,.(p#$.
44007620:	2a58 ae09 ac1f a6e1 aded ad2a 268e 2fcc     X*........*..&./
44007630:	2c83 2dcc 2c13 260e a858 aef5 2e56 2c83     .,.-.,.&X...V..,
44007640:	a16a a6a3 11d8 aede ad61 2c9b acd7 abf8     j.......a..,....
44007650:	2bba 2b39 adc2 aa44 17cd 2c75 2dd4 2844     .+9+..D...u,.-D(
44007660:	9700 2b80 273d 2575 a8e1 a3e7 2428 2555     ...+='u%....($U%
44007670:	a766 ac8c 2818 a7ae 2bd1 2732 a6f7 ab4f     f....(...+2'..O.
44007680:	a8c1 24bd 2641 29e7 ad5d 2ce3 284b 25a6     ...$A&.)]..,K(.%
44007690:	232e aa90 2638 a182 1ca6 ac16 2cfe acdd     .#..8&.......,..
440076a0:	a99f 2281 ac07 a454 2cab a85c ad71 a8b8     ..."..T..,\.q...
440076b0:	a55a a8e7 ac1b 19d4 ad1b 248e ad87 a121     Z..........$..!.
440076c0:	a915 a06c ac4e 1f69 ad06 2c8e ad7a 2460     ..l.N.i....,z.`$
440076d0:	194c a29f a902 a848 2d15 a2f7 27e3 a9a1     L.....H..-...'..
440076e0:	2db8 aa21 2e23 25bc 2608 abaa a7a7 245a     .-!.#..%.&....Z$
440076f0:	a500 9b07 2a29 2958 aa31 2a46 9ee9 a574     ....)*X)1.F*..t.
44007700:	ad98 2dbb a8ea 2498 adb4 adb7 2c23 2d62     ...-...$....#,b-
44007710:	2c2c 2a87 20a4 2ca1 ada0 a2af 0c65 2c1d     ,,.*. .,....e..,
44007720:	1b4a ac75 2834 2c01 ad7f ae72 ad8d 20d1     J.u.4(.,..r.... 
44007730:	a79b af1f 26e7 2bf2 acfc a6cd 257d b014     .....&.+....}%..
44007740:	9d0e 9fc9 a91d 2528 a15b a793 2d2c a982     ......(%[...,-..
44007750:	a150 25a3 2ff0 2d73 adee 2be5 2240 26a2     P..%./s-...+@".&
44007760:	2a02 ab9c 2dd3 a898 aa9c 2862 2c6c a2b1     .*...-....b(l,..
44007770:	ac57 b327 2882 b12a 2bff 2d7b ab39 af08     W.'..(*..+{-9...
44007780:	ab85 aaa8 ae43 9d56 acc9 285d 2d11 ac96     ....C.V...](.-..
44007790:	26b7 2b89 2015 b10c 9dc9 9e78 a48e 304e     .&.+. ....x...N0
440077a0:	2b59 aa32 2df3 a2ca a9b8 a1b1 aa4d a291     Y+2..-......M...
440077b0:	29e4 a8e7 2eb9 1ba9 27ba 2946 2595 ad45     .).......'F).%E.
440077c0:	afce 2d65 2cd6 ab2c a4cf aa6b a8a9 2542     ..e-.,,...k...B%
440077d0:	28ad a924 adb3 adb9 2d95 afe3 b05f 2b69     .($......-.._.i+
440077e0:	2e95 acb5 29ac 2902 2fa7 3028 2f3a acd3     .....).)./(0:/..
440077f0:	abb2 295d 2607 2e61 ae24 2b43 2abc 2d30     ..]).&a.$.C+.*0-
44007800:	303c 24d5 a9f4 a7a8 a670 30a7 ab95 2d5f     <0.$....p..0.._-
44007810:	20a7 a711 1f62 aa8b 2cbf 2d79 2d36 29cf     . ..b....,y-6-.)
44007820:	add4 2d7d 28b0 ad7a ab5c a1d9 24f8 133a     ..}-.(z.\....$:.
44007830:	1047 ad15 2bda ac2d 2b29 a939 aba8 2c2c     G....+-.)+9...,,
44007840:	2914 a2d3 a3ff ac5b 18dd a957 ad94 1fd6     .)....[...W.....
44007850:	ad00 2b49 a2cb ac92 2950 2c65 a5fa 229b     ..I+....P)e,..."
44007860:	2a9b 2713 1ff8 a948 a5a5 2ceb 284c ad73     .*.'..H....,L(s.
44007870:	2b09 a906 a1cd a8b7 ace1 a937 a7c7 a57c     .+........7...|.
44007880:	2b59 2b4a 1d15 ac42 2638 a846 2664 aae7     Y+J+..B.8&F.d&..
44007890:	2b21 2d40 ad14 2880 26e5 aa79 2c76 a437     !+@-...(.&y.v,7.
440078a0:	2a8d a824 aabc ae1a 2ca8 2cd1 2933 29b3     .*$......,.,3).)
440078b0:	aa90 a8e7 2927 a5a3 ac33 ae23 a2bf a959     ....')..3.#...Y.
440078c0:	adb2 aa11 286f ab95 9f94 a871 2855 24be     ....o(....q.U(.$
440078d0:	a614 1ca2 a084 abac 26c7 2ad3 aa2c 2a1a     .........&.*,..*
440078e0:	a4e1 2d07 abbd ae2a 2bb9 ae89 24aa a916     ...-..*..+...$..
440078f0:	ad67 27d0 2ae0 2b91 ac76 2617 a840 937a     g..'.*.+v..&@.z.
44007900:	abdb aa12 1236 a73b ae77 a569 a4d7 ac9a     ....6.;.w.i.....
44007910:	a9ab acaa a0ec ad1c 2e09 2ee8 2e10 a856     ..............V.
44007920:	2896 a456 30a9 acd4 2d3f 207f 1a98 230a     .(V..0..?-. ...#
44007930:	2c1d 2c67 a9dd af04 2a81 2a2c aa04 298a     .,g,.....*,*...)
44007940:	2ce7 29a8 2d1e 2f45 ac17 abb3 a1e6 af50     .,.).-E/......P.
44007950:	1d63 2915 ae1f 2ecd adfb a638 12d1 2c51     c..)......8...Q,
44007960:	2d17 30bf 241b aa75 91be 21f5 2979 a9a0     .-.0.$u....!y)..
44007970:	a807 2d44 aa64 2f20 25be 2c5b 309c aa7e     ..D-d. /.%[,.0~.
44007980:	2822 ac46 acd0 2932 ac90 2f23 2c06 2541     "(F...2)..#/.,A%
44007990:	8f70 ac74 2c54 3176 ac14 2e78 2e42 2531     p.t.T,v1..x.B.1%
440079a0:	238a a259 aeda 9e56 2c74 2e3d a80c 2c5a     .#Y...V.t,=...Z,
440079b0:	2b05 ac43 2d4b 1ff7 aa8b ae41 30fb a8b3     .+C.K-....A..0..
440079c0:	9cb5 ac38 2e22 24e4 3031 2654 af09 a2de     ..8."..$10T&....
440079d0:	a53b 2e70 1bec 2a77 299a abb8 a759 ab7e     ;.p...w*.)..Y.~.
440079e0:	adc1 2cc4 ab21 2e13 aa99 2bdd 2d92 282f     ...,!......+.-/(
440079f0:	2aef 2c05 2f2a 30f6 2b22 ad53 3047 a82b     .*.,*/.0"+S.G0+.
44007a00:	abe9 1c87 2928 962b ab7d 26df 2da9 2d02     ....()+.}..&.-.-
44007a10:	2855 aa5d aa79 2e2c 2683 ae02 a980 28a5     U(].y.,..&.....(
44007a20:	ae5e 3075 1c6b a9e5 25df 241c 312b 2da9     ^.u0k....%.$+1.-
44007a30:	b0ce 22be 2cc6 2614 ad58 2a0b a8bd 2dcb     ...".,.&X..*...-
44007a40:	b1bc aea9 31d1 ae9f a409 254d 2ec9 a831     .....1....M%..1.
44007a50:	a77b a9ab 2ad3 ad0c a759 2c21 2425 27dc     {....*..Y.!,%$.'
44007a60:	a5f8 a917 abb7 ad55 ae22 28ee ae0e 2cb1     ......U."..(...,
44007a70:	a442 2c3b a8fb abfe aae5 2d6d 286d b034     B.;,......m-m(4.
44007a80:	2ecb 1893 9fb1 b148 2b87 a530 29af a73e     ......H..+0..)>.
44007a90:	b055 a2a5 30ee 2a0e 2ba5 287e 2d16 2c2e     U....0.*.+~(.-.,
44007aa0:	2dee ab0f 2529 2b01 2adb a761 ae93 ab6a     .-..)%.+.*a...j.
44007ab0:	accf 2a82 a828 a3cc a162 2c7c 2e4f a73d     ...*(...b.|,O.=.
44007ac0:	2fd6 2518 3022 abb5 a746 2c16 2451 2837     ./.%"0..F..,Q$7(
44007ad0:	2c18 2e2b 30e6 2b1e a91e 288f a609 aedd     .,+..0.+...(....
44007ae0:	ab44 2ac0 2fdc aaac a3f1 30c8 aa6c a887     D..*./.....0l...
44007af0:	2595 2143 2c87 a6d4 ad1b a5db 2410 2b3f     .%C!.,.......$?+
44007b00:	29d8 a82d 2c5e ac14 a623 ad8f ad65 ab52     .)-.^,..#...e.R.
44007b10:	ad0d add7 a924 acd0 a893 2d84 a393 2dae     ....$......-...-
44007b20:	ae78 ab33 ac6f ab73 af83 21af 213a ae6f     x.3.o.s....!:!o.
44007b30:	acf0 af25 aa33 aa8b 2b74 2b29 237b aaab     ..%.3...t+)+{#..
44007b40:	ae66 2936 a87e 22a2 1580 24e3 aaa3 ae28     f.6)~.."...$..(.
44007b50:	2d24 ad1f 26a7 ae0a 2841 acfa a483 2ae9     $-...&..A(.....*
44007b60:	2c37 2d0b 28a6 2bab 2ba4 24be ab4c ae69     7,.-.(.+.+.$L.i.
44007b70:	af0a 2878 2b6b a2ee 249b acc5 a5ec 9b34     ..x(k+...$....4.
44007b80:	29cc a70e ac5f 1e7d a3f4 ac82 a8d8 ac0d     .).._.}.........
44007b90:	aee3 18c4 99f9 26b0 251c 1f7e 280c ace3     .......&.%~..(..
44007ba0:	acf1 9d17 256f aeaa acf6 2a78 a8a3 adbb     ....o%....x*....
44007bb0:	ae0e ad49 acd4 a8d6 2590 ad53 ab08 a961     ..I......%S...a.
44007bc0:	ace6 ad2e a133 2d17 ad48 a937 ae05 a9ec     ....3..-H.7.....
44007bd0:	abaa 285b aca7 a5de 2818 1c06 2995 ac97     ..[(.....(...)..
44007be0:	ad03 9d7c 2e55 2c80 2024 ac04 a95e 24d1     ..|.U..,$ ..^..$
44007bf0:	adf5 2b95 2c50 aabe 2b05 285f 2aef acbe     ...+P,...+_(.*..
44007c00:	2ca3 a851 2d24 a670 23e3 aa66 2cf2 a1b3     .,Q.$-p..#f..,..
44007c10:	af3f 2d1e a236 26ce 2ee1 b065 a487 a532     ?..-6..&..e...2.
44007c20:	ae78 2f8c af91 b036 2f78 2560 9d4d 2d6e     x../..6.x/`%M.n-
44007c30:	a691 2643 284b 263f a199 ad6d 9abe 2833     ..C&K(?&..m...3(
44007c40:	abfe 2e40 aa7a 2896 2b8d ae88 2ab6 28c2     ..@.z..(.+...*.(
44007c50:	ac73 1497 2b4b abe5 305d af47 af4e 3075     s...K+..]0G.N.u0
44007c60:	a209 2854 abcd 3028 ad2d a017 20ac 2cc0     ..T(..(0-.... .,
44007c70:	a1ea aadf aa22 2bcb 2d83 ac8e ac90 add0     ...."..+.-......
44007c80:	230b 2e63 aaba 25fb ad39 9e5a 3018 2d5e     .#c....%9.Z..0^-
44007c90:	2479 2cd4 ad28 2a9c b051 ab5e ad47 2d6c     y$.,(..*Q.^.G.l-
44007ca0:	a7d2 2e9e acee 2c8d 2b3b 2846 2526 a269     .......,;+F(&%i.
44007cb0:	a5ca 1a06 acd0 2cbe a411 2686 240f 8e94     .......,...&.$..
44007cc0:	23d3 ac0a 2eea 30bc 2f52 b021 22e0 2130     .#.....0R/!.."0!
44007cd0:	2938 a465 28f9 acb9 ae9d ae4d 2a18 a662     8)e..(....M..*b.
44007ce0:	a93f a15d a9e4 2c0e 1ba2 2bab adca 284a     ?.]....,...+..J(
44007cf0:	29a6 a55e 237a aa9a 298d 2017 2a17 2cb7     .)^.z#...). .*.,
44007d00:	9f35 aada 2c07 ada1 ad7a ae13 ac7d aebb     5....,..z...}...
44007d10:	acfb a2a7 23a9 2c30 a605 a68e ad6e 9dc6     .....#0,....n...
44007d20:	2c47 2caf 947b aa67 acaf a9f4 241c acc0     G,.,{.g......$..
44007d30:	2793 ad67 a5b4 aeb8 a933 a5a7 ae9d a5f8     .'g.....3.......
44007d40:	2a8b aafd ae61 ac54 a937 ad5e 2c12 ae27     .*..a.T.7.^..,'.
44007d50:	29cb 2cb8 ade8 2b5a 2cd5 ac26 ad61 ab91     .).,..Z+.,&.a...
44007d60:	a73c a972 17cb abc6 2d49 a442 abb5 2b10     <.r.....I-B....+
44007d70:	ab14 ace0 aaa4 2806 26ab 2d49 acd2 2c5e     .......(.&I-..^,
44007d80:	2bfa a83a 9b63 aea7 2c0d a8dd ac5f 2db4     .+:.c....,.._..-
44007d90:	ae25 9c2b 2737 2cc1 ae6d add1 2299 ad94     %.+.7'.,m...."..
44007da0:	a7c3 2c39 accc ac98 a99b 2b28 a524 23cc     ..9,......(+$..#
44007db0:	26c5 25e9 a9ed a989 2269 abd8 2641 a57a     .&.%....i"..A&z.
44007dc0:	ad3a 31a7 2bb9 2681 a47c 2600 2b26 2a97     :..1.+.&|..&&+.*
44007dd0:	aca9 0845 2456 2701 2848 a63a 2ac2 ada6     ..E.V$.'H(:..*..
44007de0:	1c1b 28b5 a3b9 2be1 acdc adc4 2a12 29b9     ...(...+.....*.)
44007df0:	adc9 2aec ac84 a92e 24ed a805 1e3b 2a90     ...*.....$..;..*
44007e00:	a22a 298d 2f09 17d3 2d3d acb9 a8f8 2ac7     *..)./..=-.....*
44007e10:	264d 280a 1bbe 28f2 aa87 220f 1a26 2daf     M&.(...(..."&..-
44007e20:	2dbe 2766 2da7 a614 a6bf aa9f ad39 2855     .-f'.-......9.U(
44007e30:	2952 2d78 a78d a684 2b0d adf8 a631 9ab9     R)x-.....+..1...
44007e40:	a512 a74b 2918 a7e1 ae2f af1f ad95 aba1     ..K..)../.......
44007e50:	2245 2d14 301a 25c0 ac34 17ee a9b1 24bf     E".-.0.%4......$
44007e60:	14f8 aca1 a912 2a72 ab0d 251e a7bb ada5     ......r*...%....
44007e70:	255b accd 2609 a822 2557 2c36 a828 aca5     [%...&".W%6,(...
44007e80:	2488 acf0 a56c 220c a941 ab42 a59a a641     .$..l.."A.B...A.
44007e90:	ae24 aa99 291b 2d8d 2da7 2b21 ac93 ab9c     $....).-.-!+....
44007ea0:	a9a1 2c90 a78a a547 29f2 2abf a62e 2cdf     ...,..G..).*...,
44007eb0:	ac9d b06d adb7 2c81 3156 ac56 2c54 a70b     ..m....,V1V.T,..
44007ec0:	a601 a8f5 aba9 a970 9d83 adea ad92 a400     ......p.........
44007ed0:	304a 2b90 ac5b aed9 1ff4 201b acce 2c9a     J0.+[...... ...,
44007ee0:	2c37 88d1 9e4d 25ae acb5 2195 2d3a ac59     7,..M..%...!:-Y.
44007ef0:	28b4 28bd a49d 3061 2808 b004 ad1a aacb     .(.(..a0.(......
44007f00:	29f1 a932 2fec 2e20 2bbd ae31 9669 a11f     .)2../ ..+1.i...
44007f10:	2db6 af3a 2912 1c43 1b2a a088 2844 2e84     .-:..)C.*...D(..
44007f20:	26a1 a806 a878 9da8 adf1 3142 a6f2 2fd1     .&..x.....B1.../
44007f30:	2e75 28a1 2c5d 3075 2828 16e4 2a65 2d27     u..(],u0((..e*'-
44007f40:	2533 abe7 2e5a 2a4b a687 2c13 270f 2f7d     3%..Z.K*...,.'}/
44007f50:	a9c0 a86f 2a58 ab19 ac7f 2755 91bd 248b     ..o.X*....U'...$
44007f60:	abaf 2db8 2d41 2cd4 2f70 2406 2f1e ac29     ...-A-.,p/.$./).
44007f70:	ae12 2890 2def 2cc2 0c2a 2a21 3004 2e33     ...(.-.,*.!*.03.
44007f80:	3014 2d8c a4d0 a726 a9a6 2683 af03 a9fb     .0.-..&....&....
44007f90:	25c0 adcf 2b7c 2c40 a8b2 9c24 285f ac6a     .%..|+@,..$._(j.
44007fa0:	2cc7 2afb 2e19 2e7e 2d1f ad2a aaf3 a68e     .,.*..~..-*.....
44007fb0:	2f66 2e2f ae0b 9b27 a3d5 a874 a8ac a87a     f//...'...t...z.
44007fc0:	ade3 277a acc3 22dd 1e85 a834 277e ab33     ..z'..."..4.~'3.
44007fd0:	302e 2869 26ba 1d5c 3079 a68e ac6f a5a1     .0i(.&\.y0..o...
44007fe0:	24b6 3042 222c b00e aa1e 2688 2b79 2f29     .$B0,".....&y+)/
44007ff0:	2947 aafc abdb a92e ac83 a3d2 1ef7 2c6d     G)............m,
44008000:	abd7 2237 ab18 a62d 2ac0 2c07 a9fc ac6d     ..7"..-..*.,..m.
44008010:	2d8c 2e1a a5a2 aa74 2f4d aed1 2aab a23a     .-....t.M/...*:.
44008020:	9d79 3055 2ce4 af05 2567 a9a3 ad8e 28f2     y.U0.,..g%.....(
44008030:	2013 22e6 2774 30a5 2594 a89a aa1e 2f31     . ."t'.0.%....1/
44008040:	ae54 adfc 2ca6 a82a 1ef5 a096 abe2 29d0     T....,*........)
44008050:	ab74 2796 2c4b af2e b167 adbc 29b9 289e     t..'K,..g....).(
44008060:	aaf3 26f5 2c5c a186 2e24 2cf0 2a60 297b     ...&\,..$..,`*{)
44008070:	a690 2f46 201f 28f5 a9da 2b47 2892 a974     ..F/. .(..G+.(t.
44008080:	29bd a0bd 3042 2db9 2dbd 2ef0 a46f ab72     .)..B0.-.-..o.r.
44008090:	ac6d a6cf aca0 2c16 26fe a825 2c15 adb3     m......,.&%..,..
440080a0:	aad5 2ec6 a383 293e 1f6f 2fd6 2a97 ac6d     ......>)o../.*m.
440080b0:	29fd a714 2b88 20d4 a435 a92c 2d4c a9a6     .)...+. 5.,.L-..
440080c0:	28f3 2936 2ff3 ac3f 2ec5 a809 ac07 291f     .(6)./?........)
440080d0:	2964 aebd 2c49 ae8f 2f39 2b74 ab73 2e63     d)..I,..9/t+s.c.
440080e0:	a529 2f17 2586 218b aab7 2e1d a90e 24f5     )../.%.!.......$
440080f0:	a1c1 a3b8 ad6b a5d6 a5d3 2465 a756 2bf9     ....k.....e$V..+
44008100:	ab2c a222 2765 1cc9 a955 adc1 2c75 ab6d     ,.".e'..U...u,m.
44008110:	2e58 2f99 a97b ae76 a499 a874 a617 2d5e     X../{.v...t...^-
44008120:	afba a558 2f77 1ec8 2be7 2c5f ae7e 2e14     ..X.w/...+_,~...
44008130:	ab87 1d31 216f 24f9 ae1f aea0 223e 2247     ..1.o!.$....>"G"
44008140:	ab07 2ab2 acf9 2254 2dc5 a705 2ecb 2aaa     ...*..T".-.....*
44008150:	a6fe 2530 a1f9 2a2c 2be2 2480 1f94 ac39     ..0%..,*.+.$..9.
44008160:	2e75 284b 2e21 a481 2c2d 2d7a aae1 a0e7     u.K(!...-,z-....
44008170:	993a 25c8 24e1 acbd 2b4c 10cb 2b93 a7a7     :..%.$..L+...+..
44008180:	2adb ac29 2cb3 b024 ab03 2edc acb8 2abd     .*)..,$........*
44008190:	2e24 2589 2c82 9f59 1b59 2e10 28b4 27d7     $..%.,Y.Y....(.'
440081a0:	2d2f 3091 ad19 292a 9a2b 2b6a a73d 1c7f     /-.0..*)+.j+=...
440081b0:	a6cd 210e 9fe1 2de6 2dc2 31d7 2e17 a135     ...!...-.-.1..5.
440081c0:	246f 9cd9 2706 29c5 a567 2469 a6aa 20f7     o$...'.)g.i$... 
440081d0:	a81b 2a83 2ced 2d2f 290b 296d ac9b 2a0f     ...*.,/-.)m)...*
440081e0:	2705 301e a941 2e46 2c99 2fef 28c4 ac6e     .'.0A.F..,./.(n.
440081f0:	2a8a ac91 2540 9faa 2a92 2563 2657 2ad7     .*..@%...*c%W&.*
44008200:	2380 2941 ad2a a34b 2aba a201 2dc8 270f     .#A)*.K..*...-.'
44008210:	29b7 2895 20a8 ac7b 2d37 2b56 2cc5 ad4d     .).(. {.7-V+.,M.
44008220:	29a2 a8d9 a8df 2b87 3041 31c2 af3b abc5     .).....+A0.1;...
44008230:	ac1d a92d 2925 2c1a 9c26 2d24 2a0c a806     ..-.%).,&.$-.*..
44008240:	2f86 acae 2cd8 adcb 2481 2cbd ac65 a54b     ./...,...$.,e.K.
44008250:	ac79 aaad 2d15 2c87 28ea a02b 2c1c 2660     y....-.,.(+..,`&
44008260:	2bf0 2d3c 2c46 ab11 293b 3050 a8d2 245d     .+<-F,..;)P0..]$
44008270:	aa46 ad31 266b a3a3 a972 af06 2b3c 29b6     F.1.k&..r...<+.)
44008280:	2b55 22a9 adc0 22db a3fa aa0e 2a44 a219     U+."..."....D*..
44008290:	ad86 adac 2ba8 acfd 28fb a65d 1a4e acc4     .....+...(].N...
440082a0:	ab79 28d3 27fc 9c94 2bfa acd6 2bc3 acfb     y..(.'...+...+..
440082b0:	ac14 9a63 2270 a944 2a10 2c7a a713 2b7b     ..c.p"D..*z,..{+
440082c0:	2951 2535 1e4d 9d4a ac0e 2a8d ac33 aa8c     Q)5%M.J....*3...
440082d0:	a8b8 aef7 9f70 9fbf a9be a9cd ad94 2bbc     ....p..........+
440082e0:	9e6d acf1 9e4f a3b8 ab11 206f a363 1daa     m...O.....o c...
440082f0:	2815 af62 26bf ac30 aee0 ae0b 2c1d 2a12     .(b..&0......,.*
44008300:	2c70 2806 28be a5df ab05 ad8a ad78 ab3b     p,.(.(......x.;.
44008310:	ac2e a77e 2c74 a93e a581 ac83 ab40 a43c     ..~.t,>.....@.<.
44008320:	986e a46f 2c81 a804 25e5 acc2 2625 a818     n.o..,...%..%&..
44008330:	9fe5 2e15 adff 1ddf 241d 2bcd 298a ac8f     .........$.+.)..
44008340:	a5e0 252e a59d a880 abff add7 28e2 295a     ...%.........(Z)
44008350:	ac01 a46c aaec a467 ac1b a502 aac2 a932     ..l...g.......2.
44008360:	248b 1d87 2ef6 a6d2 aef3 a40b aa3b ab1e     .$..........;...
44008370:	aa79 ae0a 28d2 a91c 2b9d ad94 2960 2a43     y....(...+..`)C*
44008380:	b0b2 a9f9 1c03 aa7e a47a ad31 2f44 2b1c     ......~.z.1.D/.+
44008390:	aa93 2de4 1a73 2fb0 2b8a 2d60 2a22 9f51     ...-s../.+`-"*Q.
440083a0:	1fed aded 2db7 9855 ad5d 2a47 2efa 2048     .....-U.].G*..H 
440083b0:	a93e 2c34 23c6 2698 28cf 2bd4 ae59 2d60     >.4,.#.&.(.+Y.`-
440083c0:	ac8e 2a58 2ca9 29ea 2a9f 20bb adbb ab7d     ..X*.,.).*. ..}.
440083d0:	2c52 1c49 ad27 2c55 2b5f 29d0 ac54 ac10     R,I.'.U,_+.)T...
440083e0:	2c00 ae62 23ba a2a8 29da af49 226f a802     .,b..#...)I.o"..
440083f0:	286d acc8 2941 a9c7 aa98 2c19 24b5 2809     m(..A).....,.$.(
44008400:	adab a9af 2c23 ac45 2c1c 317b 2706 a799     ....#,E..,{1.'..
44008410:	ab24 ace7 2622 a1b5 a8e0 2d92 a917 a840     $..."&.....-..@.
44008420:	2c11 a13f 24df afba adc9 2f3b adba acad     .,?..$....;/....
44008430:	2d32 ac1c 90d8 2cd8 ab88 2d52 9d89 1b30     2-.....,..R-..0.
44008440:	2c39 a24e a9ec abae 29a2 2f07 aead add5     9,N......)./....
44008450:	ad45 3101 2a73 a917 b093 b08f 2a16 2e3c     E..1s*.......*<.
44008460:	2d72 a223 a91d 2719 a959 a7e5 a817 ab56     r-#....'Y.....V.
44008470:	2dde ae28 2134 9f08 29a0 1c23 b016 2c83     .-(.4!...)#....,
44008480:	a4de 0054 ae70 9f81 2bba 2908 adc9 28b4     ..T.p....+.)...(
44008490:	2d8d 2f84 2cda 2f89 a418 a651 a580 aef8     .-./.,./..Q.....
440084a0:	ac7f acb2 238a 3113 a4bc 2b51 2c36 2cb6     .....#.1..Q+6,.,
440084b0:	a741 a71e 2d7f 2ee9 ae0c 2d41 adf2 2f37     A....-....A-..7/
440084c0:	ad69 acb2 2fcc 2c62 aa7b 9e57 2820 2c51     i..../b,{.W. (Q,
440084d0:	2d54 28b1 2fe8 2c18 a2dc 2993 a910 aab4     T-.(./.,...)....
440084e0:	9361 a360 a70e a526 25ff ac84 221b a90c     a.`...&..%..."..
440084f0:	adcc 2f11 2a08 ab48 a568 313d 2a09 2ead     .../.*H.h.=1.*..
44008500:	2dcb 30c8 a2c8 2e1a ad0b 24ad 30e3 a471     .-.0.......$.0q.
44008510:	2c0b 285c 9d69 ad86 afd7 9e8f 2bf6 2c9e     .,\(i........+.,
44008520:	2c72 2500 255b a363 ab7e aeff 2074 9dc7     r,.%[%c.~...t ..
44008530:	ab7f 2180 aa74 a80c 2fd0 a91a ae6c 27b3     ...!t..../..l..'
44008540:	2c48 22af a942 21ec 1ca6 b132 2d18 305c     H,."B..!..2..-\0
44008550:	acc0 2dd0 2c26 24bf ac5c a0ee af3d adf5     ...-&,.$\...=...
44008560:	2da5 b084 296f 2aee a447 2557 aa02 2829     .-..o).*G.W%..)(
44008570:	2cea 268c 2e9a 297c 2d88 b09d 2aab a12e     .,.&..|).-...*..
44008580:	2ed2 2fcc b0a7 2a08 a438 ab54 afe8 2f2a     .../...*8.T...*/
44008590:	ae04 1e97 a9d2 237c aab1 29c6 2879 a636     ......|#...)y(6.
440085a0:	2c4c ad07 2cf0 a5de 2966 1c69 2cf0 a9e2     L,...,..f)i..,..
440085b0:	2b3c a9cb a8c2 2d2a 2a4d a351 2c90 3130     <+....*-M*Q..,01
440085c0:	2f0f 996e 2c35 a388 2176 2dff 273e 2c99     ./n.5,..v!.->'.,
440085d0:	2dcc 2c8c b070 2590 adb0 2955 2a03 3073     .-.,p..%..U).*s0
440085e0:	ad60 2b6c 2583 2dce aa64 af81 2d52 28f1     `.l+.%.-d...R-.(
440085f0:	ace2 2f1e a6ea 2f0a 2c88 a8ab a0ed ae3e     .../.../.,....>.
44008600:	aecf 2c8e b013 246f a181 a6ed 28ea 2924     ...,..o$.....($)
44008610:	2a55 abd3 af78 ac4a a3f2 b067 a1bb ae6e     U*..x.J...g...n.
44008620:	2d47 2006 a715 a786 256a abd3 2de3 a703     G-. ....j%...-..
44008630:	aa62 2818 acc2 a00d 22ba a9c6 ada1 2016     b..(....."..... 
44008640:	21b7 acba a257 ac50 2c61 aeb5 2c09 2722     .!..W.P.a,...,"'
44008650:	2e22 ab64 253a 291c 0ed9 add2 ad89 29ae     ".d.:%.).......)
44008660:	1e94 2015 2577 1c0d ac99 af67 2514 a5b1     ... w%....g..%..
44008670:	2fc3 b154 aabf ae11 2b16 2c9d aead ad2d     ./T......+.,..-.
44008680:	27ce adeb 9fe7 adfe 08c8 a64b a153 a921     .'........K.S.!.
44008690:	a8c8 af28 a455 a955 2da5 2487 1b0b 2d0a     ..(.U.U..-.$...-
440086a0:	ad12 2d32 30d2 1bda 2a0a 223f 2b4c ad97     ..2-.0...*?"L+..
440086b0:	308a a0b3 2f98 2e8e a8a6 2942 a5d7 aa11     .0.../....B)....
440086c0:	a4c1 a3f6 2fb5 af8f 28d5 2706 2bf1 aca5     ...../...(.'.+..
440086d0:	2d1b 2448 abcc 2da4 ac45 aa03 ad47 98ed     .-H$...-E...G...
440086e0:	2969 2652 ad65 2ecb 2a6a 2a67 2d4e 9d2d     i)R&e...j*g*N--.
440086f0:	272f 1af3 abf0 28b6 b02a a1e5 a71c ac12     /'.....(*.......
44008700:	2d1b 2b21 af47 9892 2d59 21b9 ae95 30cb     .-!+G...Y-.!...0
44008710:	265d a867 aa53 a884 abec ab08 2faf a84f     ]&g.S......../O.
44008720:	ab36 25a4 ad9f 18e7 ab0b 2cb4 2d0f 2c54     6..%.......,.-T,
44008730:	a8dd ad60 2a7a a730 acab 2d8a aeca 2b1c     ..`.z*0....-...+
44008740:	a6ad 24f1 ad6b 1e50 acc4 ad8c aaad ac94     ...$k.P.........
44008750:	2f54 940a a3cb 1d6a 2d5a ad0c 2b99 2613     T/....j.Z-...+.&
44008760:	2d3b ab36 2b5b 11cb 272c ae73 23e3 a10f     ;-6.[+..,'s..#..
44008770:	29e1 a8ff 27d1 ac6b 256d 2792 ac5d ad6a     .)...'k.m%.'].j.
44008780:	ad27 a845 13fc 2d65 2850 a1c2 0baa acba     '.E...e-P(......
44008790:	2c11 2dd2 adaa ab38 ad95 a912 ad30 a52a     .,.-..8.....0.*.
440087a0:	a6d7 ac3e a18d ab29 2b42 239b 2d45 aa92     ..>...).B+.#E-..
440087b0:	29b4 a19e ad25 97a0 2db8 a2e6 ae03 2e2d     .)..%....-....-.
440087c0:	a92d 0b25 9cfb 2849 2992 2ec1 2bdf abfe     -.%...I(.)...+..
440087d0:	ad65 a38d a801 ad59 2434 2735 2b7c a9c9     e.....Y.4$5'|+..
440087e0:	a56b a8c4 ae38 aca0 18b6 24c6 a21f 2801     k...8......$...(
440087f0:	a9ee a557 25a0 acea ad44 2b4f adf8 9e2c     ..W..%..D.O+..,.
44008800:	2be9 2cb8 2514 ad1d a34d 24f4 a9c2 2c11     .+.,.%..M..$...,
44008810:	2d8d 2c1c 2eea 2529 ad3d a9f9 a878 a263     .-.,..)%=...x.c.
44008820:	a57b 2da4 ab04 a89d ad02 2c7c 294e 2627     {..-......|,N)'&
44008830:	2a99 2f8e 2cac a9cb 2964 ace1 a9f4 2c5f     .*./.,..d)...._,
44008840:	b0b1 2811 adc5 2bdf 9cb9 2440 2652 1555     ...(...+..@$R&U.
44008850:	ad8c ad41 2fcb 3007 2cde b062 2cdc 2ef0     ..A../.0.,b..,..
44008860:	20bf abda 235e ac14 2437 2d65 ae5b 2613     . ..^#..7$e-[..&
44008870:	a8d4 2f3a 2d2e 2ca8 a976 ac74 adf1 22dd     ..:/.-.,v.t...."
44008880:	a301 2968 a73d 228e 2ead 28a5 2e02 2831     ..h)=.."...(..1(
44008890:	acd8 a196 a9fd 2260 2287 adeb 3030 ad9e     ......`"."..00..
440088a0:	2876 adfe 2239 ab21 ad25 2ef2 291f 2c85     v(..9"!.%....).,
440088b0:	30e2 9934 a647 2b79 3058 2e21 2904 ad84     .04.G.y+X0!..)..
440088c0:	2882 a7b2 24b5 aa9c 2dc7 2f61 1ec3 a62f     .(...$...-a/../.
440088d0:	2cf6 2105 2c34 28cb 2da4 278f 2bb3 a8b8     .,.!4,.(.-.'.+..
440088e0:	a34d a42c a842 2cc6 a685 ac6e 2dc7 2d82     M.,.B..,..n..-.-
440088f0:	a0d2 1bdc 2ebf 9ca0 ad0a 30fe 2ce5 aba5     ...........0.,..
44008900:	2cb0 ada3 ac59 9bba abbf 1f92 2af4 2f1a     .,..Y........*./
44008910:	2dae 2277 2bd6 2705 28d3 b13e af8e 1d51     .-w".+.'.(>...Q.
44008920:	9523 2209 2248 abf9 9e33 2bb1 2e16 287f     #.."H"..3..+...(
44008930:	2dc4 a881 acf7 2513 acd6 2d5e aa0a 1a7c     .-.....%..^-..|.
44008940:	ae10 2ce0 2f09 30a6 aa57 acfb adae 2b31     ...,./.0W.....1+
44008950:	a495 af57 300c 277e aa0b aaf8 11b7 a6c9     ..W..0~'........
44008960:	a986 a26c a578 2f4b a8eb 279f 2a89 287c     ..l.x.K/...'.*|(
44008970:	2dce 1bea 9fdc acef a554 31a9 2f21 2cfa     .-......T..1!/.,
44008980:	a597 af35 24ae a9cd 2c80 ae43 2045 a853     ..5..$...,C.E S.
44008990:	2eee aa73 a24f 2907 aad2 1170 3019 2b0b     ..s.O..)..p..0.+
440089a0:	a9e8 9db4 ac97 1d3f 2de6 2c34 abb5 28b6     ......?..-4,...(
440089b0:	a35d a8ab ad6d 2242 2e53 2d10 2d92 28a1     ]...m.B"S..-.-.(
440089c0:	2db8 adfa 2fc5 af1c aab5 a130 ad46 a8bf     .-.../....0.F...
440089d0:	ac68 2619 2eab 2b3c 0da5 a665 b007 2c32     h..&..<+..e...2,
440089e0:	9ca4 2c89 aadd ad9a aba7 2645 29a6 a914     ...,......E&.)..
440089f0:	aa8e a881 2a64 2fa1 2113 aaef 2c76 aa12     ....d*./.!..v,..
44008a00:	a0d2 a653 2972 2477 277f 2a6d 293d a8e5     ..S.r)w$.'m*=)..
44008a10:	2ba9 2585 28e4 af7c 2cca accc a9dd 206a     .+.%.(|..,....j 
44008a20:	a7bd aca8 a59d 1799 a633 adb3 2c93 3031     ........3....,10
44008a30:	2c90 a4bb 2a31 b017 2858 2499 aa3e 2b19     .,..1*..X(.$>..+
44008a40:	a405 9a09 2d0a 2ef1 2e04 2c4c 26fb 2a0b     .....-....L,.&.*
44008a50:	2b62 243f ac98 ae35 9cfe aeae 278d 2ec1     b+?$..5......'..
44008a60:	aa36 1d81 3024 9720 a845 2d14 2c65 1f5f     6...$0 .E..-e,_.
44008a70:	2c1d 2bc8 2db1 2f7b ae2d 2af2 ae81 2c88     .,.+.-{/-..*...,
44008a80:	2431 aa53 2045 9d1f 2dbc 2d6e af46 a906     1$S.E ...-n-F...
44008a90:	2bf6 2f9c 903b 2c2e acaa a7ec 2a03 2e2f     .+./;..,.....*/.
44008aa0:	2a13 1cfc 2800 2d17 aca8 a5f5 2d0a ac89     .*...(.-.....-..
44008ab0:	23a0 151b ac25 a60c 2e73 a98a 24d0 a057     .#..%...s....$W.
44008ac0:	a844 2eb1 a717 ab10 2e13 ab64 2a82 2d65     D.........d..*e-
44008ad0:	aa8e 2afc a303 2a9a a0d0 aa11 2b50 26e4     ...*...*....P+.&
44008ae0:	aa1a adb8 30f2 a889 99ad 3013 290c ac3c     .....0.....0.)<.
44008af0:	25da a497 2c68 2823 1fce 2763 a48d a570     .%..h,#(..c'..p.
44008b00:	29bd a8e7 2fd0 29b1 ad96 2064 28cd 2892     .).../.)..d .(.(
44008b10:	b058 ac16 2b05 2b0a ae7f acc6 9e19 2a34     X....+.+......4*
44008b20:	a9a1 a9c2 2513 b04b a2ee 32a9 3028 ac33     .....%K....2(03.
44008b30:	ad93 28fc b048 a837 2c7a a95b 2bb6 a721     ...(H.7.z,[..+!.
44008b40:	2a7a a578 2a78 ad85 22c3 1d07 2461 a2ef     z*x.x*..."..a$..
44008b50:	2c41 2665 2d10 a8b1 a3a7 3022 ab92 ae60     A,e&.-...."0..`.
44008b60:	2bc2 ac64 aaa9 a4d5 2e13 2c5f a94a ac5f     .+d......._,J._.
44008b70:	a962 9cae 2691 ae6e 2c63 a0c3 2888 acc8     b....&n.c,...(..
44008b80:	ab9d 3087 ab69 259e a524 a5bb a8ca 1b88     ...0i..%$.......
44008b90:	a947 2cf4 a7f9 30c0 ad34 a17a 21c4 a858     G..,...04.z..!X.
44008ba0:	a300 a052 2b36 2f3b 2d8a 2cc2 2c09 2792     ..R.6+;/.-.,.,.'
44008bb0:	2d19 aaf5 9da4 2cb9 a8a6 289b 2c2b a0db     .-.....,...(+,..
44008bc0:	2d62 2857 274f aa64 2c0a aca1 2d35 286c     b-W(O'd..,..5-l(
44008bd0:	ab16 ad6e ab5d 2ccd ada4 2d07 9cdc a941     ..n.]..,...-..A.
44008be0:	2c5b 2d9f 2d13 a766 acb0 8cc6 ada7 a9af     [,.-.-f.........
44008bf0:	a9be 22a0 2d6a 245a 2d9e ad3d 2b32 2d5b     ..."j-Z$.-=.2+[-
44008c00:	2969 230e 2e74 a30d a789 2cf6 a323 2c9d     i).#t......,#..,
44008c10:	19ca 9c32 0ae8 29d1 a91b 2d3e ac65 ac1b     ..2....)..>-e...
44008c20:	ac87 2c7d ab41 a654 09bc ac8d 2dd3 a89f     ..},A.T......-..
44008c30:	ac95 0501 26a4 ac69 ad27 ab43 1715 a9f3     .....&i.'.C.....
44008c40:	a777 83b1 a8ba a8b5 ada7 29a4 aafa 2d41     w..........)..A-
44008c50:	adba ad13 2325 1e3f a9a3 acd4 aa06 a98f     ....%#?.........
44008c60:	24f0 1e99 9dd2 ad78 2d98 ae67 2d27 2d15     .$....x..-g.'-.-
44008c70:	aade a349 ae99 29b1 2cbb a003 2cd2 2946     ..I....).,...,F)
44008c80:	a687 abd8 aa21 2505 a57d ad6e 22b9 21ec     ....!..%}.n..".!
44008c90:	aca9 29da ae3b 9e12 286e 272d a894 a926     ...);...n(-'..&.
44008ca0:	abe6 adbf a825 9ce9 2d46 295e 9c0a a9d4     ....%...F-^)....
44008cb0:	ad38 2c6c a456 ad00 ac1e abf1 ac60 2bfa     8.l,V.......`..+
44008cc0:	26b8 a94d 1f3c 2ccd 2c2e add8 2d04 2342     .&M.<..,.,...-B#
44008cd0:	25f1 ad1f 2878 29c2 2a1b a71d adf3 2a73     .%..x(.).*....s*
44008ce0:	adda 99d7 ac52 a644 9e72 2c84 abab 987a     ....R.D.r..,..z.
44008cf0:	19fa ac4c aa8a 2c67 ad02 24b9 2d1a ac4d     ..L...g,...$.-M.
44008d00:	a984 ae31 a182 14b0 ae67 a8ca ac8f 2b12     ..1.....g......+
44008d10:	2563 acc6 2969 2bdf ac86 a3b1 ac64 a8da     c%..i).+....d...
44008d20:	28fc a598 2d7f ade4 2b60 2759 a905 a8b2     .(...-..`+Y'....
44008d30:	a105 a303 2b0b 2dd1 ab4f ad6d 2806 29e8     .....+.-O.m..(.)
44008d40:	2033 ae69 a657 2978 adaf 2be1 a963 adc1     3 i.W.x)...+c...
44008d50:	aad7 2a77 27fb ac0f a20f a3e3 aced a8e3     ..w*.'..........
44008d60:	28b1 2785 2ce5 ac11 29b1 282d ac0d a371     .(.'.,...)-(..q.
44008d70:	a9f2 2b90 2b91 a9a7 ad5c 255f ad33 a94a     ...+.+..\._%3.J.
44008d80:	aeac 29f5 aa09 a85c 2a14 2c0e 9cdd a8e1     ...)..\..*.,....
44008d90:	aab2 260e ae2a a920 1f57 2bb5 2ce5 ae7e     ...&*. .W..+.,~.
44008da0:	98ca a7b7 2af1 292f 9d95 aa30 2ce1 ad57     .....*/)..0..,W.
44008db0:	a531 2e74 a8bb a458 a520 2cdb 1c24 2069     1.t...X. ..,$.i 
44008dc0:	2cb2 a3c5 30a7 1dad 1d6d ac2e 2276 2caf     .,...0..m...v".,
44008dd0:	2be2 ad03 2e27 2c2c aa92 1a1c 275b a891     .+..'.,,....['..
44008de0:	2637 287e a871 9d02 2cc5 a7b9 ac6c 2e58     7&~(q....,..l.X.
44008df0:	acb9 2f38 b06b ae48 a5de 26e1 2d53 2e81     ..8/k.H....&S-..
44008e00:	ac2a 2d1f a169 2acf 27b7 ac37 20a0 2864     *..-i..*.'7.. d(
44008e10:	164f 2ae5 2937 ab9b 15e2 1094 2c99 300c     O..*7).......,.0
44008e20:	23c0 2948 2aa7 2d0c a813 ad18 2cab 2e90     .#H).*.-.....,..
44008e30:	a898 2fa5 2d28 2b63 a81f 2da2 aefc 1f49     .../(-c+...-..I.
44008e40:	9b12 ab9a af84 2f6e 2caf 2cb8 ae7b ace8     ......n/.,.,{...
44008e50:	2cf5 a4d0 221d acf7 a529 a6d0 2dbd 227f     .,..."..)....-."
44008e60:	a4f4 ac52 2bbd 2f71 acdf 24df a7f3 2404     ..R..+q/...$...$
44008e70:	a529 a642 aa9f 3064 2c20 ad63 2534 242f     ).B...d0 ,c.4%/$
44008e80:	210e 2ad8 a882 ac84 a32e ad37 ab8d 2862     .!.*......7...b(
44008e90:	2756 ab12 2a97 2e2c 2dc5 af23 2d71 2c07     V'...*,..-#.q-.,
44008ea0:	2682 265b 84be 26f2 ac20 ae2d 2db1 ae59     .&[&...& .-..-Y.
44008eb0:	2a2f 291d 287b ab3d 2821 ad1b acec 293f     /*.){(=.!(....?)
44008ec0:	aa35 253a a522 a6d1 a564 9c76 aca6 2989     5.:%"...d.v....)
44008ed0:	2c12 ac61 ae41 a0d1 ac36 a65d a37b 29ed     .,a.A...6.].{..)
44008ee0:	acda ad94 26ad ae1b 2a74 a814 2c22 218e     .....&..t*..",.!
44008ef0:	2b6d 289d a526 2ab1 1a9d 2c02 ab77 a67b     m+.(&..*...,w.{.
44008f00:	2c2c a7fc 1ff6 2a4c aa37 144b 1724 ad03     ,,....L*7.K.$...
44008f10:	ac78 2b0c a901 ada4 ac0f adfe aa7a 1549     x..+........z.I.
44008f20:	ad95 2bc0 ae35 2ca3 2cb9 a802 9f6a 21d8     ...+5..,.,..j..!
44008f30:	a614 aaec ae1b 2463 2b75 ac33 ac61 244d     ......c$u+3.a.M$
44008f40:	a9ad 9f5a a661 aa89 250f 1a02 a4a0 2ba8     ..Z.a....%.....+
44008f50:	2c59 9c58 1c07 2aa3 2b4a a846 aca3 ad3a     Y,X....*J+F...:.
44008f60:	ad65 1ec7 a818 acfd ac44 27eb 155c aad4     e.......D..'\...
44008f70:	a2a5 ad56 a5cc ad59 ac60 2cee ab19 26d6     ..V...Y.`..,...&
44008f80:	abe6 2d3a ac71 ade3 a838 2acf a887 a9e0     ..:-q...8..*....
44008f90:	aa1f 2452 aa29 a587 2bc5 ab47 ac27 a89e     ..R$)....+G.'...
44008fa0:	2bce 25d4 1d04 ad5f a433 ac34 2477 a9ea     .+.%.._.3.4.w$..
44008fb0:	9b3d 2b83 264b ac43 2c72 1efd 2697 9df6     =..+K&C.r,...&..
44008fc0:	2876 adcc a834 a8d3 a99d 19ba ad6d 2a10     v(..4.......m..*
44008fd0:	ae19 adde 28a0 247b a36b 2735 2999 a1d2     .....({$k.5'.)..
44008fe0:	2753 2b4d a9de 1bb0 297e 2c95 1d94 aae0     S'M+....~).,....
44008ff0:	ac74 2542 2a56 28c0 2a48 284e 2c87 aaea     t.B%V*.(H*N(.,..
44009000:	294b 2b13 a5a2 ac81 a9e9 ac26 a9f9 ad58     K).+......&...X.
44009010:	a0ae a606 0d79 aebd ad85 2b96 23a8 2191     ....y......+.#.!
44009020:	93b0 ac18 24c6 2166 ace3 aab9 280e ad07     .....$f!.....(..
44009030:	ada0 aa9a 1df5 2935 28ea a51c 29be aec0     ......5).(...)..
44009040:	a0e8 a8d2 a348 9aca 2b9a a8e6 aced 2a7c     ....H....+....|*
44009050:	2a75 ac8e ac9c 2c40 2817 aa38 aeb7 9dd2     u*....@,.(8.....
44009060:	945d adaa adca 2311 ac63 acd8 aa5a a96c     ]......#c...Z.l.
44009070:	ad12 2a2b a88f 9c58 a787 aede a114 add4     ..+*..X.........
44009080:	2bd2 ae53 2d97 aaeb 2c87 2f1b 2b5a 1326     .+S..-...,./Z+&.
44009090:	a8ba 2844 2ae6 aa76 290e a8c4 aa6f 9eca     ..D(.*v..)..o...
440090a0:	a623 2df5 2ed7 a360 29ad a811 1f6f a303     #..-..`..)..o...
440090b0:	ae7a 2820 2aeb 2f99 2696 2e6e 2584 ae47     z. (.*./.&n..%G.
440090c0:	af64 2d0a 3151 2c14 2aa9 2bff 29dd ab4d     d..-Q1.,.*.+.)M.
440090d0:	2d67 2d94 2dcc a075 2e26 abbc abd1 2e33     g-.-.-u.&.....3.
440090e0:	29c6 2c69 a755 aa5c 2a19 2f89 aa3a 21f2     .)i,U.\..*./:..!
440090f0:	a3d5 2854 a77a 2592 24ea a471 28a8 29c3     ..T(z..%.$q..(.)
44009100:	ad5f a040 adf2 2d68 2ded aeb8 2d99 25a7     _.@...h-.-...-.%
44009110:	2d0f a6a2 2e24 a864 2c06 2d7c 1fec ac25     .-..$.d..,|-..%.
44009120:	2727 acfa a3ef 2d4c a9cc a98f aae5 a894     ''....L-........
44009130:	ae5f a301 2aa3 ad46 2de6 2f4b b0eb a5ba     _....*F..-K/....
44009140:	2cd4 ac39 316b ad4f 2f53 30a7 ad9f ac88     .,9.k1O.S/.0....
44009150:	2f61 ad80 2d04 abb6 2980 2d30 2bfe b000     a/...-...)0-.+..
44009160:	2891 958b a8e7 abd4 2bb1 a893 2ff2 9a33     .(.......+.../3.
44009170:	2d41 2c92 adea a39c a9cf aee4 28f5 ad42     A-.,.........(B.
44009180:	ab73 250e 20ac 2b14 aad0 25a8 ae56 1ec0     s..%. .+...%V...
44009190:	aaef ae6a ae06 230c abc5 aa93 aaee 287c     ..j....#......|(
440091a0:	aba2 ad24 228a 2a3d a5c1 26b4 ad04 aa8f     ..$.."=*...&....
440091b0:	2a0e 1780 2af4 2b1a ac3b 2c11 2354 a79b     .*...*.+;..,T#..
440091c0:	a78c a9b4 acb3 aa29 2477 a8f5 a5e5 2c16     ......).w$.....,
440091d0:	24a7 a8b8 218d aa1d 2cab 24d2 ac48 a065     .$...!...,.$H.e.
440091e0:	2afc adad a0ab 2981 292b ac60 ab69 2553     .*.....)+)`.i.S%
440091f0:	aebd a8e5 add9 a6a6 2ca8 adcf 2c00 ac73     .........,...,s.
44009200:	2264 2e5a 29b1 ac09 1cfd 2622 aa3f 24b0     d"Z..)...."&?..$
44009210:	ac63 26a8 1c21 ac47 2049 2a8c ad0c 2451     c..&!.G.I .*..Q$
44009220:	ad67 a891 a687 abfe adda ad9f 29f3 a888     g............)..
44009230:	2308 ad93 a701 9b2c ae76 2bc6 abd9 28fe     .#....,.v..+...(
44009240:	ad48 2982 9e9f ae37 a875 25f4 ab9c 296d     H..)..7.u..%..m)
44009250:	a167 2bc4 9f7b 22aa a5ce a5ee 28a6 a43f     g..+{..".....(?.
44009260:	aa54 28c2 a301 a670 2d99 ada0 a67c ac0b     T..(..p..-..|...
44009270:	1fb0 a4f6 a4d0 99a6 aa5a adee adc5 a743     ........Z.....C.
44009280:	2ceb 2a5d abec a89b 2b3c 2c3a a97c ab7d     .,]*....<+:,|.}.
44009290:	2d2f a851 a552 2a02 a1d4 adbf 972f a621     /-Q.R..*..../.!.
440092a0:	289a ace6 a5ae acd9 a879 ac75 a03f 2852     .(......y.u.?.R(
440092b0:	9cfb 2745 90bc a80d ac24 253e 1daa 2c08     ..E'....$.>%...,
440092c0:	2da7 2cc2 a82b add4 a7d5 a861 2aad a9e6     .-.,+.....a..*..
440092d0:	2b4d 2357 a71e 24cd 9c4a 2818 a3f9 a929     M+W#...$J..(..).
440092e0:	ad8f adc6 a8a3 ae61 ae17 2b4d 99e2 2a71     ......a...M+..q*
440092f0:	a96b 2a9c ab4d a269 197b 28b3 a458 a8b2     k..*M.i.{..(X...
44009300:	1fa7 2258 aab3 a0c1 2da8 ac25 995f ae5f     ..X".....-%._._.
44009310:	ac13 2aea 2144 2488 a76a a494 2b73 abd7     ...*D!.$j...s+..
44009320:	ad5f acad 2358 ad1b a764 ad8b aa19 2cdf     _...X#..d......,
44009330:	27af 2493 aaeb add2 2c9d 258f a0a3 2799     .'.$.....,.%...'
44009340:	29b3 273c ad26 ae1a 2069 ac37 2a55 2919     .)<'&...i 7.U*.)
44009350:	a792 2b6c 2be9 24c3 1bea 30aa 2a8e 20bf     ..l+.+.$...0.*. 
44009360:	2894 acff 2953 2885 acad ad49 2cca 2586     .(..S).(..I..,.%
44009370:	a7e3 2c4f 2cb0 2e9e 2832 2a72 aabd 2c2b     ..O,.,..2(r*..+,
44009380:	ad0c 28bd a9ba a525 a8ed 2d42 2c51 ad74     ...(..%...B-Q,t.
44009390:	2cb6 adc5 2c5c 1b09 2d90 301e a55c ac72     .,..\,...-.0\.r.
440093a0:	a2bf ab25 aecd 2d06 9a5c ae06 2c2d a790     ..%....-\...-,..
440093b0:	a8b5 2f09 9936 ac13 2d96 aa3e ae0d 2ce4     .../6....->....,
440093c0:	a7b6 adf8 2cbc ab24 2977 28e7 a291 2ad3     .....,$.w).(...*
440093d0:	11c8 28de 28be a80a 27a5 a778 a240 29ef     ...(.(...'x.@..)
440093e0:	2ce4 2a96 273c aee0 2e3d 2d29 2c44 ada9     .,.*<'..=.)-D,..
440093f0:	2c1a 2e39 28b0 98d3 ac5e 2abf aaf8 2cfc     .,9..(..^..*...,
44009400:	ab1f 2d60 9cfa 307f 1fc2 9a55 9571 2dc2     ..`-...0..U.q..-
44009410:	9cd0 29d2 28c9 2d7c a7ee 2575 2d22 2c70     ...).(|-..u%"-p,
44009420:	a633 28a8 ad45 aa5f 2140 302a ac25 af3d     3..(E._.@!*0%.=.
44009430:	a67d 22ff ad40 add0 23be 29c7 9928 1960     }.."@....#.)(.`.
44009440:	2a63 20ea 2732 1d1a aea9 30c0 acd8 2bf1     c*. 2'.....0...+
44009450:	2a33 2d62 2dd3 a62f af88 9f16 a0e3 2024     3*b-.-/.......$ 
44009460:	2c73 a441 29a3 26fc a0c3 ae83 2c4a ac23     s,A..).&....J,#.
44009470:	b073 231b a734 2d7a aa29 3050 a90f 2b5b     s..#4.z-).P0..[+
44009480:	b038 a890 2d58 a265 ad1c 2722 2e27 9494     8...X-e..."''...
44009490:	ab03 2b65 9749 2b57 2920 2ce9 ac75 a8d9     ..e+I.W+ ).,u...
440094a0:	ab2f 2e93 26e1 2499 2d01 a546 ae3e ab24     /....&.$.-F.>.$.
440094b0:	2970 2c35 2bd3 ac63 17fc 30c3 2b35 aa5a     p)5,.+c....05+Z.
440094c0:	2d46 ac10 aa37 14b1 2989 a7ca ac99 2a84     F-..7....).....*
440094d0:	a625 ae7a 2564 aac5 2c41 2cfa 2a49 b086     %.z.d%..A,.,I*..
440094e0:	2c68 a98d a753 2c66 2ea3 306a 2976 2e55     h,..S.f,..j0v)U.
440094f0:	aa17 297e a869 1895 2bbb 230a a9ea 2c09     ..~)i....+.#...,
44009500:	a82d 2971 27db 2322 2eda 222e a24e a90f     -.q).'"#..."N...
44009510:	a98b 136f 15aa ae69 2c29 a92c aa34 a1c6     ..o...i.),,.4...
44009520:	16e4 acb5 a7d6 a9af aba3 2cdc 2d9b 2a5f     ...........,.-_*
44009530:	2d3b a8de a593 219a aa89 2d4b a48d ac01     ;-.....!..K-....
44009540:	ab96 a626 a883 a0c3 a499 2489 ac74 a351     ..&........$t.Q.
44009550:	a789 aabd ab84 2829 28cf 258d 28d2 a8e9     ......)(.(.%.(..
44009560:	ad56 1dea a8de ae26 28b7 ae48 2da8 2ad0     V.....&..(H..-.*
44009570:	a63d a0fa a47c ae02 1aa7 28d0 ac23 a80c     =...|......(#...
44009580:	2137 25de 2865 ae2a ad91 2c96 a999 274e     7!.%e(*....,..N'
44009590:	2724 accc a09f a99e aa76 a91b ae7c a9f1     $'......v...|...
440095a0:	2d21 a97f 933f 9f30 2d47 2cbb ab33 ac30     !-..?.0.G-.,3.0.
440095b0:	9a2c 262b 23d9 ad42 29e1 a955 29e7 ada5     ,.+&.#B..)U..)..
440095c0:	28a0 a7ae 2613 a959 2c6c 2b96 abad 291c     .(...&Y.l,.+...)
440095d0:	add9 25c9 2c15 2c64 ad22 aaad aca0 aac1     ...%.,d,".......
440095e0:	a6d4 ab5c 1c21 2018 ad5d 2890 ac5e a4d0     ..\.!.. ]..(^...
440095f0:	2cbb 2a54 ab84 ae07 aba0 a013 a80c a623     .,T*..........#.
44009600:	27a1 2c5c 2cc8 2c25 2b02 a07c 2d0e abb8     .'\,.,%,.+|..-..
44009610:	2da0 2d16 ad85 a813 2c46 9fc1 2839 2273     .-.-....F,..9(s"
44009620:	a30a 2157 2c11 2c6d 29f2 a5af a3c4 ac7e     ..W!.,m,.)....~.
44009630:	25c8 a964 2d23 200c 2c9c ada9 2b66 2c34     .%d.#-. .,..f+4,
44009640:	ab90 a3e4 a935 a821 2d50 ab12 af24 a846     ....5.!.P-..$.F.
44009650:	2018 2c5a 2301 aa17 a5a8 adb7 1fb1 1bcc     . Z,.#..........
44009660:	ad17 a2bb 24dd ab2d a864 ad28 adbf ae28     .....$-.d.(...(.
44009670:	a9b0 a055 2b04 ae64 2410 ab69 acc5 a7fa     ..U..+d..$i.....
44009680:	2509 1f48 250d ad16 25e1 adf8 a8a5 26c5     .%H..%...%.....&
44009690:	a8c9 acfa 260e 2bc3 2834 2936 2979 acc8     .....&.+4(6)y)..
440096a0:	055b 17bc 277d ac30 2783 a92e ac39 aed4     [...}'0..'..9...
440096b0:	aa09 2929 29af af05 a5fd aa68 ae62 a903     ..)).)....h.b...
440096c0:	a43d acbe 9fc1 28d7 2791 2a4b 9e1a 9a6f     =......(.'K*..o.
440096d0:	ab11 a45e 2dd6 2809 24a4 ad01 ab13 ab55     ..^..-.(.$....U.
440096e0:	ada1 103a a389 aa06 a1d8 ab2e 2ac7 2cee     ..:..........*.,
440096f0:	a644 aedf 2770 2832 8e10 1402 2ad8 abc5     D...p'2(.....*..
44009700:	2531 2b91 aa18 2ab6 ab4d 2287 aed1 1ddf     1%.+...*M.."....
44009710:	a8e2 2a26 22a5 a857 2a01 1e3a 260d a70f     ..&*."W..*:..&..
44009720:	2f7e 2c5e 2c0b 2c57 9c21 aab3 ae77 a909     ~/^,.,W,!...w...
44009730:	2b14 2b20 2ccf 27cd a641 26f5 acb2 2867     .+ +.,.'A..&..g(
44009740:	3227 acad 2d41 2166 ad42 2d1b ac00 ad03     '2..A-f!B..-....
44009750:	2575 3014 b141 aea7 ade0 2b56 2f55 aa6d     u%.0A.....V+U/m.
44009760:	2e9d 2e23 aea2 2de0 a5d6 29a5 aba2 2905     ..#....-...)...)
44009770:	a603 2dcc a5d4 a9ce a4d2 a122 ad02 ad7a     ...-......"...z.
44009780:	9d00 2ced 2280 2ca6 2c22 2a11 2ce3 246d     ...,.".,",.*.,m$
44009790:	adea 278b 2a31 b005 a4e4 93ad 2f7f a820     ...'1*......./ .
440097a0:	ac7a aa21 289b a14c aa67 aa0f aec3 1928     z.!..(L.g.....(.
440097b0:	ab8b ad45 a836 2338 3080 31a0 95c9 2a1e     ..E.6.8#.0.1...*
440097c0:	a186 2da4 8d48 2d3b 2d6c af06 2fba 2a1f     ...-H.;-l-.../.*
440097d0:	af8b adef 2cc9 ae08 a817 abef a5e7 2271     .....,........q"
440097e0:	2b49 b032 2e3c 2d03 2e87 ac06 af1a 3272     I+2.<..-......r2
440097f0:	2ce1 aa2a ad12 a8b1 118a a4b9 2b18 2941     .,*..........+A)
44009800:	acca a882 ae5c 2abb 2ca4 2f13 ac92 acee     ....\..*.,./....
44009810:	2c81 2c7c 2847 1fd5 2ba6 a68a 2e6a 2716     .,|,G(...+..j..'
44009820:	aceb 2e25 a86a 2bd3 29ea 29fb a8dc 2a74     ..%.j..+.).)..t*
44009830:	ad32 999c aad5 2099 a106 3059 a801 acb3     2...... ..Y0....
44009840:	ac94 aa6f 0e34 abfb a95f 9dce 2983 ac5e     ..o.4..._....)^.
44009850:	2c9b 28d6 1b25 a697 2bdc 2813 a600 2d8e     .,.(%....+.(...-
44009860:	2e04 aaf5 26b6 19c8 2b14 acc1 a73b a9f5     .....&...+..;...
44009870:	2c49 20de ae41 ac74 a86b 2faa a311 a274     I,. A.t.k../..t.
44009880:	293c 1f9b a649 a62d a953 2c3e aca0 2c77     <)..I.-.S.>,..w,
44009890:	a663 a172 270a 2e4d a2a4 2747 a8f0 8ffb     c.r..'M...G'....
440098a0:	2f06 9fed 2c4c 288c 292e 2f4a a6c7 282c     ./..L,.(.)J/..,(
440098b0:	2575 2be0 2d2b b0ae 28e5 ae9c 2ddb 28da     u%.++-...(...-.(
440098c0:	adb7 a91b a6cd 2bb4 28a5 2a76 284c a87f     .......+.(v*L(..
440098d0:	222d a3f0 2fdb 2c54 ab34 a2c1 a887 2f46     -".../T,4.....F/
440098e0:	2598 2d21 24f2 aa30 aa0e 23d1 acbd aa20     .%!-.$0....#.. .
440098f0:	a905 aa43 2c8e 2da4 1f8f 2b1d ac3f acd0     ..C..,.-...+?...
44009900:	a890 2fc1 aed6 2627 a544 1da2 2b5b ad36     .../..'&D...[+6.
44009910:	a4ff 28d7 2b7c a38a 255a 94f9 a915 2cbf     ...(|+..Z%.....,
44009920:	2231 a417 23d2 2e02 2df8 2c52 aa6e a8d6     1"...#...-R,n...
44009930:	25be b038 2dfc ae4c a2b0 afad 2a15 2ce7     .%8..-L......*.,
44009940:	2eee 2e28 2d02 ad61 acd2 ab21 2a90 2c89     ..(..-a...!..*.,
44009950:	ad19 a5c3 1e05 a165 2d53 2cfe 2de4 2c90     ......e.S-.,.-.,
44009960:	a8e1 ab0f 23b3 27b7 2c43 a5f7 a016 add1     .....#.'C,......
44009970:	295a 228b 2693 a8a8 2b54 2756 2324 2b56     Z).".&..T+V'$#V+
44009980:	accb 9cb5 2b2c 2e7f 9a11 a982 92b0 2e26     ....,+........&.
44009990:	ac3b ab20 2e5a a920 aca8 b1b0 ae57 aa93     ;. .Z. .....W...
440099a0:	2721 2c3f 2b96 b164 2c7d 2c2d 2c0d a98c     !'?,.+d.},-,.,..
440099b0:	a884 abcb 29d1 a0a7 2a9b 2632 aa4c a77a     .....)...*2&L.z.
440099c0:	2e7e 28e1 1cbc ac1e 29e8 2477 b005 2c31     ~..(.....)w$..1,
440099d0:	2604 2184 2c34 200a a0b3 256c a8d8 a993     .&.!4,. ..l%....
440099e0:	ab1c 280a aaa3 a6d3 a17c 2ab7 ac32 13fa     ...(....|..*2...
440099f0:	a60b adcd 1f8b a341 abed a816 1b59 a669     ......A.....Y.i.
44009a00:	a45c 165b a7fc a81f 255b aa9a 243d 2c88     \.[.....[%..=$.,
44009a10:	275c 2cd8 276a 2ac2 ab93 a31a 21ba acd5     \'.,j'.*.....!..
44009a20:	acb8 2a70 a808 28eb aeb2 2cad 26e8 aa47     ..p*...(...,.&G.
44009a30:	23ca 2c9c a1d4 a928 2ae5 aa26 2d43 2cbe     .#.,..(..*&.C-.,
44009a40:	2a53 2b03 ab11 2082 a69c a407 2b9b aca7     S*.+... .....+..
44009a50:	aa17 2969 2550 2606 ad7a 28f8 2827 acd3     ..i)P%.&z..('(..
44009a60:	9fd1 255d 1972 a90b ade8 a75b 2784 2b0b     ..]%r.....[..'.+
44009a70:	ad2b 2a6f ad11 a659 27e9 aede a2c7 ac40     +.o*..Y..'....@.
44009a80:	20a2 29e6 2cb2 26a9 28c9 22f2 ab63 ad0b     . .).,.&.(."c...
44009a90:	21be ab34 2429 a793 2ae6 acbf 2e6c a9e8     .!4.)$...*..l...
44009aa0:	aee2 2a55 a890 231a aa7f acf8 2a24 24b5     ..U*...#....$*.$
44009ab0:	ac54 a695 29eb 2503 ad5b a43d 2518 2c25     T....).%[.=..%%,
44009ac0:	2b5d 2302 a908 ac4c 2cb4 1ba0 ad78 a6eb     ]+.#..L..,..x...
44009ad0:	2a1a acf4 1d82 9662 ae75 283c 2a9c 2c4d     .*....b.u.<(.*M,
44009ae0:	25f7 1c32 ae77 adc5 ad00 a7bc ac60 250f     .%2.w.......`..%
44009af0:	18d9 2ba4 ad3f 9a48 23ef 2a24 ad64 a8bd     ...+?.H..#$*d...
44009b00:	24d1 a648 a601 a284 aad4 2b00 ad38 ac0e     .$H........+8...
44009b10:	2da5 a67d 313a 31f9 2bc9 aacb a462 ace1     .-}.:1.1.+..b...
44009b20:	a1b3 ac14 2e0d 2dcc a472 2d64 2bed 2913     .......-r.d-.+.)
44009b30:	a858 2d72 a5dd 2ecf 2bbf 24fd 2c3d 287e     X.r-.....+.$=,~(
44009b40:	2099 ad80 9857 a41b a39f 30bd 266e ac5b     . ..W......0n&[.
44009b50:	2ea4 ac09 2c48 acee 2811 a377 1e87 a4e2     ....H,...(w.....
44009b60:	ad63 2363 2e4f a5d3 28f0 a02f 2caa a7da     c.c#O....(/..,..
44009b70:	23a3 a1c2 2cf5 2569 2fdf 2b7a ae54 ad16     .#...,i%./z+T...
44009b80:	2c46 2cc5 2177 9edf 2cd2 a49f 30bf ae17     F,.,w!...,...0..
44009b90:	2e83 a90c 1852 ae02 ad97 2abc 2ef7 279e     ....R......*...'
44009ba0:	2e35 a212 2cb1 ac35 a4db a09d ae44 ab2e     5....,5.....D...
44009bb0:	adaa 1965 2b96 af01 9501 31a9 2c39 ac5e     ..e..+.....19,^.
44009bc0:	26f1 a02a 2590 2623 a17c 2a2c 27a1 aa8e     .&*..%#&|.,*.'..
44009bd0:	2809 2d3d 99bb 2be8 aa05 ab23 2c13 2e8f     .(=-...+..#..,..
44009be0:	ab1d 283d 282d abbb a97c a967 28a0 a98b     ..=(-(..|.g..(..
44009bf0:	222c 257e 2ce6 2441 acb9 2ecd 2e08 2911     ,"~%.,A$.......)
44009c00:	aff4 a4ce 2c56 ae03 a5e8 2ff4 a461 2925     ....V,...../a.%)
44009c10:	2c71 ac4b 2d4c a86c ac1a 20f0 1996 ad2e     q,K.L-l.... ....
44009c20:	a900 a84f 2a79 a67a a43a aa42 2b5d 2f58     ..O.y*z.:.B.]+X/
44009c30:	a8b5 27ba 2c99 ae3a 2c93 3037 2d07 99c2     ...'.,:..,70.-..
44009c40:	2d65 3049 2dc3 2d38 306d 2a68 29e7 2da1     e-I0.-8-m0h*.).-
44009c50:	ad65 2557 2fc4 a49b 1ca3 9901 1cc7 adc7     e.W%./..........
44009c60:	adda 1a5b a922 add7 a423 ae22 2ca2 aecb     ..[."...#."..,..
44009c70:	a274 aaf3 a4e5 a95b 25e1 2965 2547 9c49     t.....[..%e)G%I.
44009c80:	ae4f ad47 1c7a a8e5 1a39 2c3f 2d0b 2d8b     O.G.z...9.?,.-.-
44009c90:	29ee aac9 aa79 ac6b 2615 2ca5 2ba8 1d8b     .)..y.k..&.,.+..
44009ca0:	294a 2ac1 ad95 29c3 2ac6 20b9 ac01 28f9     J).*...).*. ...(
44009cb0:	aa6a ad69 2c27 280f 2a0c 30fe a43a 2348     j.i.',.(.*.0:.H#
44009cc0:	28b8 a8ff acd0 ac4b a979 2691 254f 2087     .(....K.y..&O%. 
44009cd0:	ae8d acf9 abfa ac85 227c 2bcc 29f5 a650     ........|".+.)P.
44009ce0:	2c1e aa40 2dbe 200f ab35 b041 2d0b adfc     .,@..-. 5.A..-..
44009cf0:	a8cb ac2e 2672 2ba0 ab10 30e7 2cfb 2d37     ....r&.+...0.,7-
44009d00:	ae23 2c58 aff1 2b8e a58e 26e5 ac1b 2a76     #.X,...+...&..v*
44009d10:	262e 2fb5 9a47 2e2a ac64 2ee9 b069 22ba     .&./G.*.d...i.."
44009d20:	2d6f 29a9 2472 27c6 2653 a8c9 269a adbd     o-.)r$.'S&...&..
44009d30:	25e3 af3f 2a3a ac05 ac2d 24b5 2d9e a3ee     .%?.:*..-..$.-..
44009d40:	2ab9 0218 25b6 acc7 a9e6 2cd2 2d00 2c14     .*...%.....,.-.,
44009d50:	2bcb 2f1d aa08 28be a9bc adb5 2261 234f     .+./...(....a"O#
44009d60:	28be af03 2917 a4dd 2b2f 2f8d aef1 a1e4     .(...)../+./....
44009d70:	2bac 2b21 300a 23b5 a61f 2ea0 8be8 adf0     .+!+.0.#........
44009d80:	a391 a031 ad83 2ca3 ac76 3082 276f 2b58     ..1....,v..0o'X+
44009d90:	a8f2 abe9 abba a837 a3cc 2d4d 2857 1e7b     ......7...M-W({.
44009da0:	2b91 a4b0 28d8 2962 26ff a0f2 a919 aef2     .+...(b).&......
44009db0:	2a89 2caa 2b4d a973 ac91 a27a a97e acce     .*.,M+s...z.~...
44009dc0:	a8bf 2d1a a4a1 a41e 2a1c ad4b 1a67 a862     ...-.....*K.g.b.
44009dd0:	a960 a9d5 3061 2cb0 2a0d 2b6f 2c8c 1d94     `...a0.,.*o+.,..
44009de0:	adbb acd2 2f79 24d6 ac96 9e47 aef0 25a2     ....y/.$..G....%
44009df0:	26a1 1d9f 2e2a adde 2b18 abff 2de0 aceb     .&..*....+...-..
44009e00:	a961 ac82 abcb a930 2676 2d07 2e4a 2917     a.....0.v&.-J..)
44009e10:	2ce9 ac8a b01b ac97 acd7 303b aab7 2ef8     .,........;0....
44009e20:	aa5c 25dc a839 1cb7 2c97 2d37 a0a5 2da0     \..%9....,7-...-
44009e30:	2171 2b9d 2a50 188d 2d9a 2dec aca8 23b4     q!.+P*...-.-...#
44009e40:	285f b000 aa36 2ae7 ad0a b032 aa98 af07     _(..6..*..2.....
44009e50:	2e21 9a27 adf6 a42b a5a3 a86d 2da5 acee     !.'...+...m..-..
44009e60:	2442 2f42 2f93 a227 2d5d 2b44 a877 22e4     B$B/./'.]-D+w.."
44009e70:	2fa9 2d8d 2de8 a8cd 2c8f 30ba adc3 28df     ./.-.-...,.0...(
44009e80:	ac59 ab51 2fa5 a115 a243 acac aafb ad79     Y.Q../..C.....y.
44009e90:	2d2b 328c a62b a9ee 26dd ad1b 2bad 2c8d     +-.2+....&...+.,
44009ea0:	adde adbe 2ddf a84a a139 29cc 2f6f ab42     .....-J.9..)o/B.
44009eb0:	29ab 2c87 2c32 aa70 a885 a488 aafe 2d3f     .).,2,p.......?-
44009ec0:	a94e 2dc5 abd0 29ea 1cdf a4db a713 1c94     N..-...)........
44009ed0:	29b3 a7d2 aff5 2e01 a6cc 2b31 a748 2e74     .)........1+H.t.
44009ee0:	ac45 2a1b 250d 22ef 2ccb 2608 2709 9e7b     E..*.%.".,.&.'{.
44009ef0:	29bb 2df9 1da9 20b0 2cdc adba 9cd7 a71f     .).-... .,......
44009f00:	2c50 2b86 2e1a 1ffe 212f a909 ae59 ad22     P,.+..../!..Y.".
44009f10:	a92d 2d51 a717 2c03 aa45 aabd 9cf4 272b     -.Q-...,E.....+'
44009f20:	ad0f a8b6 ad5f 1db4 209e adc4 a6aa ad97     ...._.... ......
44009f30:	2c11 3039 aae5 267a 1239 3041 203e 2df1     .,90..z&9.A0> .-
44009f40:	2d60 22ab ac3f a23a af05 b016 abb5 a772     `-."?.:.......r.
44009f50:	2070 1cc5 b1cd 2c27 2a2a 2cfb 214b a7f6     p ....',**.,K!..
44009f60:	acbc acc0 af7c aada 1e40 aa89 3032 a8c2     ....|...@...20..
44009f70:	2b0d a50d 2989 2dcc 2651 a3f8 2abf 2b57     .+...).-Q&...*W+
44009f80:	2abf add2 26d8 2ca0 2b77 97ff 2626 a443     .*...&.,w+..&&C.
44009f90:	a2d8 2da6 24fa ac94 2536 b00d 29c5 2ba5     ...-.$..6%...).+
44009fa0:	25a3 299b 296a acff a6eb 29b9 2cf1 285a     .%.)j).....).,Z(
44009fb0:	2a7d ab66 2a28 20c2 ab00 2c4c a96b 2d9f     }*f.(*. ..L,k..-
44009fc0:	2877 aa14 2faa adad 9835 acde ae26 2c05     w(.../..5...&..,
44009fd0:	acde 9d07 291b 2643 ac79 ac6d aa66 25d2     .....)C&y.m.f..%
44009fe0:	aa90 aebb 2d63 14a8 25d7 2bca 2447 a47e     ....c-...%.+G$~.
44009ff0:	2801 a8d4 a653 a549 ac87 9dc5 2cc9 aa79     .(..S.I......,y.
4400a000:	2e0f 2d09 2cb0 ad27 abef 2049 a804 1a7f     ...-.,'...I ....
4400a010:	a98a 25c4 29dd a8f0 2849 a803 2858 a226     ...%.)..I(..X(&.
4400a020:	a2d2 2523 2824 ad18 28b2 ad6e 2cbd 2bb8     ..#%$(...(n..,.+
4400a030:	2d35 26b1 acca 2ddc ab30 aa57 26d4 a8bc     5-.&...-0.W..&..
4400a040:	ac67 25d6 2614 2c79 acc6 a87b a61e aae9     g..%.&y,..{.....
4400a050:	24c1 2d1f a4f3 2bc9 18db 236f a671 adea     .$.-...+..o#q...
4400a060:	acf8 2c5f a466 ac47 ac83 a583 a60c 268c     .._,f.G........&
4400a070:	27ad ac5f aea6 297d 2a39 aed9 a1d5 ada0     .'_...})9*......
4400a080:	a4a1 9f96 adbb a386 29c3 a724 ada0 a89c     .........)$.....
4400a090:	2af0 2c42 2570 ab0e 2b54 ab76 aecc a150     .*B,p%..T+v...P.
4400a0a0:	aad6 24a4 29d2 9f81 aec3 a96e 1af2 af33     ...$.)....n...3.
4400a0b0:	0202 aa5c ac2a 22b1 2678 a823 26e3 a915     ..\.*.."x&#..&..
4400a0c0:	aada ac49 a59a a63e a8d9 2d75 ad18 ae16     ..I...>...u-....
4400a0d0:	a55d 989f 2afe 2a1a add5 a7af 2900 af8d     ]....*.*.....)..
4400a0e0:	9c12 24f3 2866 2a30 a682 28fd a60f abb1     ...$f(0*...(....
4400a0f0:	23b2 27ae a55b 2997 afb6 28d0 aa78 adcd     .#.'[..)...(x...
4400a100:	2aee 2bbe a45a 2793 2dc9 ac99 ae8c 24ac     .*.+Z..'.-.....$
4400a110:	27ea 279d aded a361 ac7a 1c4d ad0a ad15     .'.'..a.z.M.....
4400a120:	2026 2c4f 2cea 2851 a19e aeea ad6c ad78     & O,.,Q(....l.x.
4400a130:	0a4d a8a3 ae74 a5b7 a8bb a143 a805 aca4     M...t.....C.....
4400a140:	2837 a52d aac8 ad5e 953c 28a7 ac4f abb2     7(-...^.<..(O...
4400a150:	27a1 2c08 ac90 aec8 292b 9e89 8592 ad3c     .'.,....+)....<.
4400a160:	ad57 2a88 ad5d a829 2c14 1cd9 a89b 2c87     W..*].)..,.....,
4400a170:	ace2 a9d4 ace6 24a2 1b7b 2c9e 26b4 2bf9     .......${..,.&.+
4400a180:	2cad 2cd1 295e a242 28fa 249f aa46 1c1d     .,.,^)B..(.$F...
4400a190:	21ca 26a7 292f a40a 22a3 a91a 2206 2c3b     .!.&/)..."...";,
4400a1a0:	a88a a52f 219a 223a aa18 2d1c aabb 2885     ../..!:"...-...(
4400a1b0:	2500 a4ca ac26 ac65 ad06 28de ac11 aea3     .%..&.e....(....
4400a1c0:	1c43 a90a acaa 2a23 abae aad4 2c80 adbe     C.....#*.....,..
4400a1d0:	abc3 23ba a722 2506 a468 2bb6 2bd0 a900     ...#"..%h..+.+..
4400a1e0:	acff abc9 a45d 241a 2cbc aaf1 ad67 ad84     ....]..$.,..g...
4400a1f0:	205f aadb ad14 2386 2ca5 acf4 a192 ad7a     _ .....#.,....z.
4400a200:	a96e aebd 95b9 ad15 ad62 2a05 2c6f a77c     n.......b..*o,|.
4400a210:	ad1c adac 2825 a061 aa83 98e5 a9b5 a877     ....%(a.......w.
4400a220:	a7c3 2905 2aee 047a 2cbf acd9 9d8d a198     ...).*z..,......
4400a230:	ab5e a00e a2f8 a8b3 a1ac 2cdc 2c7a 2c5f     ^..........,z,_,
4400a240:	22c3 1c24 2afa 25ea 2c0c ade2 9e34 ab4f     ."$..*.%.,..4.O.
4400a250:	a073 2927 2252 2aa3 2da1 a963 2b0a 264c     s.')R".*.-c..+L&
4400a260:	a8c8 ac90 aaca 2817 ac1a a80d a425 2da5     .......(....%..-
4400a270:	2f71 23dc 1e8d 2d9b a40b 29ba 28db 271b     q/.#...-...).(.'
4400a280:	26fa 2b40 a869 2dfe ac03 a9b9 a67e 1c33     .&@+i..-....~.3.
4400a290:	22b0 afa6 2fec 2d8d 2f96 2d42 a826 2d58     .".../.-./B-&.X-
4400a2a0:	b05e 2654 ad01 29b4 a146 a41d a69b acde     ^.T&...)F.......
4400a2b0:	a703 ad3e a629 2a0d 2e4d 2bdd ac85 2ba0     ..>.)..*M..+...+
4400a2c0:	2957 ac48 aae2 acf9 997d 25c2 ad85 2bd5     W)H.....}..%...+
4400a2d0:	2bfc 2c01 3025 ac0a a175 2e3a aa50 2dc1     .+.,%0..u.:.P..-
4400a2e0:	24c7 2546 a1e1 2cbf a7f2 2b58 2b99 2862     .$F%...,..X+.+b(
4400a2f0:	ad9e 2ac5 27d6 a9dc a71f 2c16 9626 28d3     ...*.'.....,&..(
4400a300:	ac0f 2eed ac16 27c2 aa3f 29da 2e2b 26d7     .......'?..)+..&
4400a310:	a94c 1ceb 2dbc a454 a055 223c 2d19 a8c9     L....-T.U.<".-..
4400a320:	2cf3 1a90 2a1c a26b 2f63 2ebb 2c5a 20d6     .,...*k.c/..Z,. 
4400a330:	a0d8 a5c8 af0b a7b0 2f20 2f05 aa7a a326     ........ /./z.&.
4400a340:	a3c0 ac1e abe3 2b73 3018 1be9 03f4 acc2     ......s+.0......
4400a350:	21b4 2be8 a9b0 27ca a8a1 304d aec3 aba0     .!.+...'..M0....
4400a360:	2d30 2d44 2ce2 aa60 acaf acc9 2c5d 2928     0-D-.,`.....],()
4400a370:	a8d4 a901 3034 1f94 acb8 a67d acb1 af4d     ....40....}...M.
4400a380:	261d acbd 2e3a 2d55 ad6e aa4e a811 ac11     .&..:.U-n.N.....
4400a390:	a85b 2f51 a029 242f ac5b acd3 2c92 219f     [.Q/)./$[....,.!
4400a3a0:	a6e6 2ce3 adcf 3009 2d88 300d 20cc ad1d     ...,...0.-.0. ..
4400a3b0:	2bae add6 2962 28f7 1cb2 add4 26f1 a5ae     .+..b).(.....&..
4400a3c0:	a77f a65a ab41 a8a1 2233 1cbd 3002 29ee     ..Z.A...3"...0.)
4400a3d0:	2bc8 24c0 2a0d 2c1e a809 2f86 2cd0 2dbf     .+.$.*.,.../.,.-
4400a3e0:	a9a2 ac3f 25e2 9443 2770 a5b3 2d4b a2a6     ..?..%C.p'..K-..
4400a3f0:	19d9 a90b ad29 1cd4 2ccf 2ff3 a027 2d8b     ....)....,./'..-
4400a400:	2d4b 2e6e 2851 a668 2c7a ab6e a9e0 2b41     K-n.Q(h.z,n...A+
4400a410:	a5d6 2c15 2caa a854 a993 ab2b ae2a a4a0     ...,.,T...+.*...
4400a420:	2cb5 ace6 06d6 2b5b 2487 94f6 2ad5 2b06     .,....[+.$...*.+
4400a430:	2782 ad9e 94e3 95dc 2e6c a390 a975 a38c     .'......l...u...
4400a440:	27b2 1ac9 2aa4 2726 215b 2dfe 2618 2c7d     .'...*&'[!.-.&},
4400a450:	92f5 a839 26d4 2a45 ae50 a6df a561 2a73     ..9..&E*P...a.s*
4400a460:	21df 9eca 2e28 2b37 a61a aa46 27e5 a8d0     .!..(.7+..F..'..
4400a470:	af0f 304f ad12 aa0e 286e 1a9b a808 a6ea     ..O0....n(......
4400a480:	30ed 2c96 2d20 9369 29c9 ab73 a944 ad09     .0., -i..)s.D...
4400a490:	27c8 2d35 28ab 2d60 a9a6 2b31 25e1 91a9     .'5-.(`-..1+.%..
4400a4a0:	2d35 ad37 25e9 aa29 29d4 2419 acd7 ac69     5-7..%)..).$..i.
4400a4b0:	aa21 ac87 a962 2d32 aafd 2d1d 3085 aabb     !...b.2-...-.0..
4400a4c0:	2858 a796 a474 ae1d a933 aa87 29ed 2bde     X(..t...3....).+
4400a4d0:	2ff3 a55b 2e6b 2b15 2c00 2c83 2dc1 2424     ./[.k..+.,.,.-$$
4400a4e0:	a8e5 a822 acfa ad0f a7bc ab63 b0ed a94e     ..".......c...N.
4400a4f0:	ab85 ab43 adb1 2342 aa4e 9b2c 139e 2c78     ..C...B#N.,...x,
4400a500:	a96c 2503 a0d9 2a96 ac37 2834 aa07 306f     l..%...*7.4(..o0
4400a510:	a817 1fad 2db4 2863 28dd b0a1 2a8e a9a5     .....-c(.(...*..

4400a520 <conv3_weights>:
4400a520:	27a9 a5fe a749 213e a97a 2721 a958 a9d1     .'..I.>!z.!'X...
4400a530:	a0c8 212b 2490 a48f 8063 a7ff 27aa a6e2     ..+!.$..c....'..
4400a540:	28c8 25bb a974 ab40 ab6a 2562 2814 2405     .(.%t.@.j.b%.(.$
4400a550:	2757 24f8 a419 aa9e a023 a9fb aa00 a494     W'.$....#.......
4400a560:	ab25 0d57 a929 20ec a9ec a975 ab0d a0c4     %.W.).. ..u.....
4400a570:	9e0a aa0b a9f4 9f35 a80e a2e5 a2d1 2054     ......5.......T 
4400a580:	ab48 ab88 ab1c ab18 aa5b a8ef 27c5 ab9c     H.......[....'..
4400a590:	246d a919 aa3c aa05 aa76 a40d 2679 a849     m$..<...v...y&I.
4400a5a0:	271a 1ed4 a321 25e1 9c58 abbc a7a6 2822     .'..!..%X....."(
4400a5b0:	a972 a0ba a803 aa9b 9a1d a885 a08d a06a     r.............j.
4400a5c0:	a3a4 aafd a501 1e91 2689 21b6 2677 aa79     .........&.!w&y.
4400a5d0:	1d6f 2053 aa3b a91f 280a a8a9 2569 a966     o.S ;....(..i%f.
4400a5e0:	a9eb 245f 1793 1a71 24bf 2743 aadf a403     .._$..q..$C'....
4400a5f0:	a575 a532 20ac a549 273c a854 a5f8 a88a     u.2.. I.<'T.....
4400a600:	23b6 976d 26b9 2604 96b1 a899 27c0 223e     .#m..&.&.....'>"
4400a610:	22a2 a440 a97a 1f82 205d a942 a4e2 1265     ."@.z...] B...e.
4400a620:	aba0 9d1c 228b 209f 25a6 aac8 2290 a9fe     .....". .%..."..
4400a630:	9a6f 20ee 2752 a743 aa52 230a 2799 245b     o.. R'C.R..#.'[$
4400a640:	a639 9e0e aae6 9baf 160e a7a9 2816 a925     9............(%.
4400a650:	a8c3 1f04 2836 aacf a8b0 a36b 244b 2816     ....6(....k.K$.(
4400a660:	a85b a3d7 a94e aa06 a761 252a aa6d 1893     [...N...a.*%m...
4400a670:	a52f a724 a5e3 23be ab98 a91f 15aa a4da     /.$....#........
4400a680:	18d1 155a 1fdf aa00 2417 a8f1 23c7 a9ad     ..Z......$...#..
4400a690:	a1ea a070 a606 a920 a3f8 a37c a4c9 a889     ..p... ...|.....
4400a6a0:	aa71 287d 2463 a7a7 a7ad 1944 9e54 a718     q.}(c$....D.T...
4400a6b0:	ab8e 97dc 22c2 281d 28e0 9d05 2666 28e6     .....".(.(..f&.(
4400a6c0:	2878 a724 2a3d a9aa a50f ab80 227b a806     x($.=*......{"..
4400a6d0:	aa8b abbe a691 9f73 ab0d 21be 227e 269b     ......s....!~".&
4400a6e0:	a897 aad4 282c a657 a398 9d06 a8e6 1501     ....,(W.........
4400a6f0:	a963 2261 a651 2764 24af 95b6 abbd a6d7     c.a"Q.d'.$......
4400a700:	28b3 27d3 285b 9ad4 a845 27e6 2523 ab1d     .(.'[(..E..'#%..
4400a710:	26de ab9f a94c a702 21ef 2303 a327 2877     .&..L....!.#'.w(
4400a720:	a061 2402 a8cb 1e85 2535 28da a140 19b8     a..$....5%.(@...
4400a730:	27c8 257a a5d1 27b8 2781 ab81 9a9c a6a4     .'z%...'.'......
4400a740:	a3c8 ab2b 0aaf 21b9 a4c6 ab81 a68b 287e     ..+....!......~(
4400a750:	250d a7b4 a991 1dc6 2570 9f9a a137 991b     .%......p%..7...
4400a760:	24d4 28bd a985 252e a010 259f 2402 aac9     .$.(...%...%.$..
4400a770:	a89f a02d 275c 28e7 a909 a8af a081 9ea8     ..-.\'.(........
4400a780:	250a a91b ab8b 1d76 aac6 9db2 a67b a4c7     .%....v.....{...
4400a790:	aafd 28e5 a94a 24f5 a28a a20f 1dd7 9fd0     ...(J..$........
4400a7a0:	9d2f 2262 26ac a917 a1dc 9958 a5ac 9dcf     /.b".&....X.....
4400a7b0:	9f2b a616 a89c a5d1 a69a aa3f abbd abc8     +.........?.....
4400a7c0:	2459 2009 2841 231b a936 aa5c 25d1 2696     Y$. A(.#6.\..%.&
4400a7d0:	2095 0990 a35f a829 28a2 a009 a439 a947     . .._.)..(..9.G.
4400a7e0:	a906 a88f 9d85 240e a040 a5ac 2778 274a     .......$@...x'J'
4400a7f0:	aa54 a458 a923 9fa5 281d a06b aa52 a9f9     T.X.#....(k.R...
4400a800:	a904 aae1 a8d6 1bb6 28b7 9f97 264e a953     .........(..N&S.
4400a810:	a9db 224b 9f6a 1c3d 27d4 28b2 abb0 2215     ..K"j.=..'.(..."
4400a820:	a3b7 ab32 a980 a948 2832 a997 201b a5a6     ..2...H.2(... ..
4400a830:	a873 1ac5 a3db 9873 a56e 1e9a a145 1905     s.....s.n...E...
4400a840:	190f 1d9a 295e a40a 203a 2106 a902 aa8d     ....^)..: .!....
4400a850:	a177 254b 2ae7 20f2 2538 2017 aada aa56     w.K%.*. 8%. ..V.
4400a860:	2aec 12a1 29cd 2443 a436 99a5 a1f5 2b84     .*...)C$6......+
4400a870:	2d3a 2ecf 3018 a806 a840 aeb0 2e44 2b12     :-...0..@...D..+
4400a880:	ac2d ad4d b1da 2638 2a08 2b57 a019 9858     -.M...8&.*W+..X.
4400a890:	94e6 0ae0 a63e 2659 3056 b00f 9eff ac0f     ....>.Y&V0......
4400a8a0:	2ca4 2cc4 b362 2bbd 2d95 30c8 30c7 28ee     .,.,b..+.-.0.0.(
4400a8b0:	2c17 a7e2 a1de 2f80 9e64 ad20 a0b7 a407     .,...../d. .....
4400a8c0:	a9a2 29a3 a4b5 96d7 acaf b050 299c 2e16     ...)......P..)..
4400a8d0:	9a9f a7e5 a846 308e 269c ad06 2c31 a932     ....F..0.&..1,2.
4400a8e0:	2430 2b5a 9df6 b054 b3ed ac79 a853 24ee     0$Z+..T...y.S..$
4400a8f0:	a47b ae6d adcd b034 ad76 29e8 a29a b114     {.m...4.v..)....
4400a900:	b22a a7a7 2d8e 2696 29a8 2baf ab67 287b     *....-.&.).+g.{(
4400a910:	2bc7 a3b6 2707 2425 afe6 b304 ac72 218a     .+...'%$....r..!
4400a920:	a2a5 a7cf aecf ac58 ae0c 1e91 26e7 2c8c     ......X......&.,
4400a930:	acc5 b1bb 93a1 2e18 2f59 2e36 2d31 9cd9     ........Y/6.1-..
4400a940:	a003 a570 ac23 a906 a9db 24d4 2cdf 2d8a     ..p.#......$.,.-
4400a950:	2d77 a357 234f 29f0 2767 287d a54f 2c8a     w-W.O#.)g'}(O..,
4400a960:	9053 a32d 9428 2957 1ec8 a388 2fb1 28d3     S.-.(.W)...../.(
4400a970:	a619 af77 a9b1 9dd2 ab4e acd4 aa2b a6b0     ..w.....N...+...
4400a980:	afd1 a1ac aa9e ae19 20ae acc9 242f 297e     ......... ../$~)
4400a990:	2ae2 2a88 aa2f ace8 2550 a45d 281f 1a95     .*.*/...P%]..(..
4400a9a0:	2e67 2f6d ad60 ab57 2dd8 2b39 26aa aff5     g.m/`.W..-9+.&..
4400a9b0:	ad50 ab5f aa87 2544 a63c a95b b1e1 af2c     P._...D%<.[...,.
4400a9c0:	aa79 113f 2d32 b31c b0a3 a9f2 a61e 2b2d     y.?.2-........-+
4400a9d0:	99da 26f5 2d12 2cf8 2eb5 2d5a 2a5e 2908     ...&.-.,..Z-^*.)
4400a9e0:	2c41 3234 2666 9d91 2c12 a218 2c0f 2c9e     A,42f&...,...,.,
4400a9f0:	2dec 28d6 a93e abdf 26d5 2c2d 2cdb a535     .-.(>....&-,.,5.
4400aa00:	a0a3 2d5d 2a60 a4fa ab3b 303f adf3 ac74     ..]-`*..;.?0..t.
4400aa10:	2d13 a6cf 2620 a789 a04c aa34 ad77 b133     .-.. &..L.4.w.3.
4400aa20:	2dac a8b5 9e75 a653 acfd 2a0f 1788 9db7     .-..u.S....*....
4400aa30:	2f8d 2d34 2f33 2a5c 2598 a8dd ae56 2d03     ./4-3/\*.%..V..-
4400aa40:	20de a516 b13a b33a a2d2 a193 a65d aa7e     . ..:.:.....].~.
4400aa50:	a014 accd ac47 a0d4 1d02 30cb b1f0 ade3     ....G......0....
4400aa60:	a260 2edb 3180 2a41 2679 1ca5 294a 2e01     `....1A*y&..J)..
4400aa70:	adbb ae89 aa7d 2e59 31f5 ad09 aa02 2362     ....}.Y..1....b#
4400aa80:	ad09 b127 a6fc 9ccc a970 aa9e ad8b a7a8     ..'.....p.......
4400aa90:	2f8a 2d5b 26d7 a289 2966 26d9 1f43 201a     ./[-.&..f).&C.. 
4400aaa0:	ac9a 242f 2d33 a974 1c63 ad25 2797 254f     ../$3-t.c.%..'O%
4400aab0:	a8b2 279d a909 2da2 96d3 243f 2919 a41e     ...'...-..?$.)..
4400aac0:	a682 ab6c 1a89 9fff 2da0 291c 2723 24ab     ..l......-.)#'.$
4400aad0:	ac1f 280c 1c35 24ce a712 26cf 2a86 2965     ...(5..$...&.*e)
4400aae0:	2905 abd9 2114 2ab3 961b 253d 25a8 2397     .)...!.*..=%.%.#
4400aaf0:	a22d 151b 1bac 28a3 2804 ac2e acc6 aa4c     -......(.(....L.
4400ab00:	ab79 ae6d ae37 ab69 acdb 2bb0 a6db 28e3     y.m.7.i....+...(
4400ab10:	2667 2b95 254a 2e37 2bb2 2d4e 2894 2e2f     g&.+J%7..+N-.(/.
4400ab20:	2dc1 2cd5 2f5c 2c2c 2d63 a823 1c90 2d19     .-.,\/,,c-#....-
4400ab30:	2dc0 2c1b a4d3 287c 18b5 a183 abef 2d54     .-.,..|(......T-
4400ab40:	2ea2 2881 2977 2738 25d7 a446 9d81 281d     ...(w)8'.%F....(
4400ab50:	2b06 2b75 ae57 2a66 29e6 8ce3 2e4d 2890     .+u+W.f*.)..M..(
4400ab60:	29b7 a4ed 2f95 2e1a 2e1c aa4e 2388 2e7a     .).../....N..#z.
4400ab70:	2f40 2c6b a1ac ab37 20b3 2990 aba4 944a     @/k,..7.. .)..J.
4400ab80:	aa21 aa31 a53e ac33 2f7e 2b70 a8cd 2760     !.1.>.3.~/p+..`'
4400ab90:	20c2 aaff aff4 aa36 2a49 2c53 aa8a aa96     . ....6.I*S,....
4400aba0:	2872 a680 2a44 a023 2561 2ba1 255d a9aa     r(..D*#.a%.+]%..
4400abb0:	ac17 a772 2b42 2423 a600 ac8f ac7f 1cc1     ..r.B+#$........
4400abc0:	24e7 a669 2d94 af1f aa8c aee7 ad34 2535     .$i..-......4.5%
4400abd0:	2705 a7b5 14d1 2d21 aa32 a595 2a00 308b     .'....!-2....*.0
4400abe0:	2f36 2973 298a 2d6f a892 aac7 27d7 2c6c     6/s).)o-.....'l,
4400abf0:	2538 2e4a 2519 aba0 ad0b ae4e 9e19 ae3e     8%J..%....N...>.
4400ac00:	a52d aa51 2d2c 271d 25f4 adac 952c 22f2     -.Q.,-.'.%..,.."
4400ac10:	a66b a8a6 a49c aec4 ac24 2c4c 292e 98aa     k.......$.L,.)..
4400ac20:	215d 2d2e 2cfc 2fe5 ac11 ad70 ab2d aaee     ]!.-.,./..p.-...
4400ac30:	ad3b aad7 272d 2daa a913 2c13 a83c 276b     ;...-'.-...,<.k'
4400ac40:	a7c8 ab38 a9ba aa4a aafb 9b78 29cd 2d8a     ..8...J...x..).-
4400ac50:	9e05 28d4 28c8 2f48 312b a480 2d22 2c88     ...(.(H/+1.."-.,
4400ac60:	30b9 1fe5 2bfe 2513 2af0 2425 2330 a7c9     .0...+.%.*%$0#..
4400ac70:	2d5c 2c5f 2954 a6a2 23f0 27a4 2bfa a8c7     \-_,T)...#.'.+..
4400ac80:	a5da 1e18 24dd a652 ae97 b006 a9d5 a820     .....$R....... .
4400ac90:	a9ce 950b 28a4 a8d0 29d6 28ae 2dd9 2c46     .....(...).(.-F,
4400aca0:	ac00 2733 2b82 13f2 2632 a827 ad90 a8b8     ..3'.+..2&'.....
4400acb0:	a835 210f acf5 a30d 2825 268d 9741 acf7     5..!....%(.&A...
4400acc0:	b1f9 ae78 a8bd 29b2 aa9a a690 a82e 2c84     ..x....).......,
4400acd0:	2cb9 ac96 1022 1ae6 2c7e 25fa b100 b03a     .,.."...~,.%..:.
4400ace0:	2c69 9960 1e7b aceb aa97 9eb0 2b0f aa1a     i,`.{........+..
4400acf0:	2be1 21d6 a6bb 28e9 b02f 2ba2 2cfa 2c81     .+.!...(/..+.,.,
4400ad00:	1ccd 28f6 2c1b 2e60 2b24 2cbc a6b9 2a85     ...(.,`.$+.,...*
4400ad10:	2564 a7d0 ab60 b047 2872 2402 a6e3 ace8     d%..`.G.r(.$....
4400ad20:	adba 2dea 2951 2ce1 a07b a7ac 24e2 1b66     ...-Q).,{....$f.
4400ad30:	2c0e 2fda 2fe7 2352 a8a6 2b8b 2517 a8fe     .,././R#...+.%..
4400ad40:	a909 19c5 aca2 a94f 25ea 2ae7 aae4 24e4     ......O..%.*...$
4400ad50:	28f3 0da9 a888 ac3d a708 2887 2f11 ae0d     .(....=....(./..
4400ad60:	adcb 2661 2e91 2bd7 1a5d 2893 2faa 23e5     ..a&...+]..(./.#
4400ad70:	2b8c a4bd ac6e 2309 2d10 2e47 acf6 a706     .+..n..#.-G.....
4400ad80:	2c62 243a 2ac9 2487 2769 2c28 aebf b02e     b,:$.*.$i'(,....
4400ad90:	a099 2e3a 2573 217c af46 a74c 2274 2eed     ..:.s%|!F.L.t"..
4400ada0:	29a2 abc0 aca6 2d4e a24c 2125 af76 ac2a     .)....N-L.%!v.*.
4400adb0:	a4fb 1ce6 2732 9c26 1945 299c 1e83 2e48     ....2'&.E..)..H.
4400adc0:	2dcb a854 9982 2802 2e56 a053 a6c9 a782     .-T....(V.S.....
4400add0:	2891 2c03 a615 a355 2392 a27e 22e5 240b     .(.,..U..#~..".$
4400ade0:	2dae a3a4 9827 2077 2511 2bfe 230c 2d0a     .-..'.w .%.+.#.-
4400adf0:	295c 289a 2237 a48e 294b a580 2402 af50     \).(7"..K)...$P.
4400ae00:	2491 2934 279a a833 29c6 2a76 244e ad29     .$4).'3..)v*N$).
4400ae10:	acbf 3097 2978 a675 a425 ad16 2cd8 a6aa     ...0x)u.%....,..
4400ae20:	2295 218a 24b1 ace8 af71 ac2a ad14 9dda     .".!.$..q.*.....
4400ae30:	2b8a a217 af27 a860 9409 3155 2d7b 260f     .+..'.`...U1{-.&
4400ae40:	a816 a942 3230 3010 ad33 adc3 acdf ac1e     ..B.02.03.......
4400ae50:	2b80 2644 2c98 2258 2c9a 29bb 2c7b 2a60     .+D&.,X".,.){,`*
4400ae60:	2070 1fb6 29b7 2e3b 242d 969f 2412 19f0     p ...);.-$...$..
4400ae70:	a541 abdc a7ae 212f a45c a370 1fa4 a97b     A...../!\.p...{.
4400ae80:	b011 a3e1 aaa0 23c3 abdf 1e1f aa67 a898     .......#....g...
4400ae90:	25d2 24f1 98af 281d 2b4f 2a98 2e2b 26b5     .%.$...(O+.*+..&
4400aea0:	2c42 2545 2c83 26df aa56 a8f5 1195 22b9     B,E%.,.&V......"
4400aeb0:	a9a0 a856 aae9 a84b 2835 a4c6 1f33 a36d     ..V...K.5(..3.m.
4400aec0:	a702 a6f8 244e aaf4 a42a ab39 a0f4 1db9     ....N$..*.9.....
4400aed0:	2afd 219a a885 a8db 2c6d 2a43 2803 a9a7     .*.!....m,C*.(..
4400aee0:	a9f9 26ba 317d 2e94 2997 2ff3 2843 2bb7     ...&}1...)./C(.+
4400aef0:	adfa 2839 9f56 a7d2 a715 21ae 2627 adfc     ..9(V......!'&..
4400af00:	a9e5 299f 0a50 9ce6 a52e 2e68 2e7b 2f36     ...)P.....h.{.6/
4400af10:	2ba3 2d38 2c9c aa8a ac9c 2718 2592 ab67     .+8-.,.....'.%g.
4400af20:	a5eb 9d67 a2fc a1b7 a641 2bba 9f32 aba8     ..g.....A..+2...
4400af30:	28df aa68 1dda a091 a678 2b8e 28bb a99f     .(h.....x..+.(..
4400af40:	ae78 ade8 a811 a722 ac15 a26a 2e46 21ac     x....."...j.F..!
4400af50:	25ff a45f 2740 2032 a12c a9c0 25be 211e     .%_.@'2 ,....%.!
4400af60:	a91e a3c2 9e18 194d 9e58 afb7 2585 27ab     ......M.X....%.'
4400af70:	a0e3 ad21 b07f ae84 2c7f ad93 ab35 25f1     ..!......,..5..%
4400af80:	162e a416 a4ba aeca a683 98b1 a907 1983     ................
4400af90:	aa81 2a30 2d58 2e25 2ca0 25b8 2533 2ea2     ..0*X-%..,.%3%..
4400afa0:	3070 a339 24e3 a611 24b4 207f 1e55 a999     p09..$...$. U...
4400afb0:	ac36 a94c abbd a863 aa40 ac0e a93e 239a     6.L...c.@...>..#
4400afc0:	0c6e a9f3 a7e7 231e 2d75 9a11 a9b9 2234     n......#u-....4"
4400afd0:	2d85 2f7c 2855 a996 8b65 27c7 a7ef 2d23     .-|/U(..e..'..#-
4400afe0:	2e3f a41f 2a31 a4fe a964 a4e7 28f5 a75f     ?...1*..d....(_.
4400aff0:	ae91 2528 a775 2885 adc7 abbf 2cd4 25f5     ..(%u..(.....,.%
4400b000:	a456 a84d 20a8 1dae a629 995c 2caf 2c2b     V.M.. ..).\..,+,
4400b010:	2793 99ec a87f a470 2d53 ad14 b014 a1a4     .'....p.S-......
4400b020:	ae26 a645 af24 21e8 2849 aadd add8 29ff     &.E.$..!I(.....)
4400b030:	2cee 2e11 2deb 309f 2a91 28c4 2d07 2d3e     .,...-.0.*.(.->-
4400b040:	2b2c aa77 ac72 9ca3 19fb ab94 a3f3 24c8     ,+w.r..........$
4400b050:	a94c ac4e 9e45 2df2 29f9 a9d9 a9c0 1d26     L.N.E..-.)....&.
4400b060:	2af7 2955 262b a8a2 2de5 a3ea 29db 2206     .*U)+&...-...)."
4400b070:	a41e 9d12 2910 abef 2cc0 2b18 aaf8 a969     .....)...,.+..i.
4400b080:	2882 950b a651 a8b4 a7be a863 18b0 a82b     .(..Q.....c...+.
4400b090:	a32b 2cae 2c0e 26b4 1ddf 2ca6 2908 256b     +..,.,.&...,.)k%
4400b0a0:	a8e2 a6ee 9aa7 aa96 ad61 265a 2a77 aa3c     ........a.Z&w*<.
4400b0b0:	9fad aa42 3078 2bc4 acb3 2abb 2a14 2d6c     ..B.x0.+...*.*l-
4400b0c0:	1dc3 acea 951c ae82 2693 a83b 1d1a 26e7     .........&;....&
4400b0d0:	acd1 9d47 0e5c ab87 a86d a72b a454 abe9     ..G.\...m.+.T...
4400b0e0:	aaf5 253b a2af 2317 2367 2217 a8d5 a19f     ..;%...#g#."....
4400b0f0:	9d78 20b2 2906 2ad9 28ca 26d2 a6bc 2729     x.. .).*.(.&..)'
4400b100:	2ba7 20a1 a8f1 26f2 950f ae0e 94b0 a9f2     .+. ...&........
4400b110:	284b ac2e 24c8 a023 1327 2c73 297e 28b7     K(...$#.'.s,~).(
4400b120:	a84c 2532 295b 2792 2877 2495 a564 1f96     L.2%[).'w(.$d...
4400b130:	2bc7 aa29 aa20 204f ab8c 2aa3 ab24 27bd     .+). .O ...*$..'
4400b140:	a426 a594 ab5d 2ad3 277e a21d 2f12 2cb3     &...]..*~'.../.,
4400b150:	a150 2745 2c43 2fde 2e13 a917 aba5 1985     P.E'C,./........
4400b160:	acf4 1cca 20ae 2418 aa53 b040 ad0d 2552     ..... .$S.@...R%
4400b170:	a879 aa15 ac5a ab8e aa92 a2b0 abfe 2535     y...Z.........5%
4400b180:	a49e a9c3 2952 a48b a0c7 24ef 2a52 2e9f     ....R).....$R*..
4400b190:	a8cf 2d37 2fbe 1e8b 2496 10f9 2ca2 1fcf     ..7-./...$...,..
4400b1a0:	2169 a85a 1ea1 a67d 1656 267e 2ae9 a454     i!Z...}.V.~&.*T.
4400b1b0:	299a a886 1ae7 26f3 2485 92e6 2e8e a95d     .).....&.$....].
4400b1c0:	2ad5 2c4d 22e5 2e0f ac73 2849 27ae 284e     .*M,."..s.I(.'N(
4400b1d0:	a12e a4da 2bd5 a809 a804 2837 a7ec a08d     .....+....7(....
4400b1e0:	2ad6 ac07 27d7 22d4 2ac3 2c8d acbe a8e6     .*...'.".*.,....
4400b1f0:	a20d a4c9 2c7f a7fa 1521 2970 2de6 2659     .....,..!.p).-Y&
4400b200:	1722 26d1 2490 2b45 2c78 28a1 249c ab5b     "..&.$E+x,.(.$[.
4400b210:	aa43 18c9 9820 a9a9 a957 21fe a92a 2bf6     C... ...W..!*..+
4400b220:	23d7 ae95 a85b 2c48 2bde 2e6b acd5 af21     .#..[.H,.+k...!.
4400b230:	20a6 a4df a527 2524 2cc0 2802 9d8a a529     . ..'.$%.,.(..).
4400b240:	1d95 2555 a1d9 1efc 2c3b 2cb8 283c 2ed4     ..U%....;,.,<(..
4400b250:	a859 2585 2a10 2ed4 244c ac06 924d 2b39     Y..%.*..L$..M.9+
4400b260:	2d4c ad83 b0d9 a5e6 2795 2b32 239d 2947     L-.......'2+.#G)
4400b270:	a9ad 26e3 a991 2456 2f85 2d82 2cae 1851     ...&..V$./.-.,Q.
4400b280:	231f ac53 9d14 2cd3 2f53 ac47 af56 ad75     .#S....,S/G.V.u.
4400b290:	2cba 2aa0 ab29 b1d5 b063 a859 ad90 aa83     .,.*)...c.Y.....
4400b2a0:	24a0 2825 25f8 2495 aa56 ae98 9853 2734     .$%(.%.$V...S.4'
4400b2b0:	22f8 280a a385 2c30 a049 a459 1a59 28dd     .".(..0,I.Y.Y..(
4400b2c0:	2c7c a4b0 27ad 2b09 2877 2c45 91f2 2d77     |,...'.+w(E,..w-
4400b2d0:	2991 a845 2424 2495 289f a835 a8d4 1c2d     .)E.$$.$.(5...-.
4400b2e0:	29bf 9e61 2bb8 29c4 298a a54c 2d70 2a2e     .)a..+.).)L.p-.*
4400b2f0:	2777 2cea 1c2e 2cf8 9a34 2833 2819 3025     w'.,...,4.3(.(%0
4400b300:	2c40 9d93 22e5 22ae 3097 2a57 28e4 a50a     @,...".".0W*.(..
4400b310:	a817 2e35 ac73 a12a 195b a8aa 2a62 2c1f     ..5.s.*.[...b*.,
4400b320:	a213 a6b8 2c10 2c6b 25a7 24bb a75b a0a7     .....,k,.%.$[...
4400b330:	acb0 ab20 a0af a836 2b9f a877 afa2 b016     .. ...6..+w.....
4400b340:	ae4f ad09 a98a a9f5 ab32 a994 292c adec     O.......2...,)..
4400b350:	a75f 2ab3 2770 2d9a a086 ab40 2af8 9fc4     _..*p'.-..@..*..
4400b360:	2c7f ad75 2bf9 2b12 a7a7 a8b0 aca5 a60a     .,u..+.+........
4400b370:	acc5 9cfe a1b5 a421 a14b 26c4 2df0 2858     ......!.K..&.-X(
4400b380:	a893 2ab3 1de1 26fc a0b1 ac9c 2990 2850     ...*...&.....)P(
4400b390:	1b05 28c3 2884 2d49 2610 a673 a9e0 2c58     ...(.(I-.&s...X,
4400b3a0:	a4f3 aca4 aa9a 27b8 2d7b 2760 2d49 aa4e     .......'{-`'I-N.
4400b3b0:	2452 2c51 a7dd 1de4 a652 2a5e 2ccd 2158     R$Q,....R.^*.,X!
4400b3c0:	217d a866 9350 2011 1b66 28ed 2134 a42f     }!f.P.. f..(4!/.
4400b3d0:	29e4 a5e7 8a72 257c 223a 1cdf ab7b 2757     .)..r.|%:"..{.W'
4400b3e0:	2b6f 2e57 2a4e 2466 2657 22c4 adb9 2c94     o+W.N*f$W&."...,
4400b3f0:	239d acea a9d1 ad68 a97c 21b6 9cb8 a995     .#....h.|..!....
4400b400:	a5ec 26a6 2aba a451 2bd1 21ac 1743 1cbe     ...&.*Q..+.!C...
4400b410:	2773 2b65 26e1 a8fe 21a3 2b10 2cbb 2cfa     s'e+.&...!.+.,.,
4400b420:	9f73 2d65 2944 2a4d 28a0 28e2 a5ab a06f     s.e-D)M*.(.(..o.
4400b430:	2750 224a 251f 2712 2ab4 2801 a108 2dc4     P'J".%.'.*.(...-
4400b440:	2c1f 2b1a 2add 265f abc8 a216 a5be 261b     .,.+.*_&.......&
4400b450:	2cda a942 2981 2c69 20ab 2809 acf7 ae19     .,B..)i,. .(....
4400b460:	ae30 a54e a0ca aa22 2c08 307a 2e8b 2e42     0.N..."..,z0..B.
4400b470:	ab4c 2d9d 2b55 286a 9e55 b192 ac9b 939f     L..-U+j(U.......
4400b480:	a5a5 2996 aff2 0db6 a06f 1b98 2b17 a0c5     ...)....o....+..
4400b490:	209f ac34 2772 acd1 a94e 1d3b 9167 a6fa     . 4.r'..N.;.g...
4400b4a0:	ac37 28df 292c 2356 a6b1 2c09 294c a746     7..(,)V#...,L)F.
4400b4b0:	2669 2c5b 2cc7 2440 1c68 284a 2c15 20f1     i&[,.,@$h.J(.,. 
4400b4c0:	a7b4 26f8 193c 2d32 2a4e a8be a068 9b3e     ...&<.2-N*..h.>.
4400b4d0:	2d2b 26e6 2083 2c75 2ca2 2408 2cf0 2511     +-.&. u,.,.$.,.%
4400b4e0:	2757 a762 28c9 28a7 2ac9 ac6f adb6 a8e2     W'b..(.(.*o.....
4400b4f0:	ab15 ae0d ac49 a5e6 2b43 9a45 251c a1ba     ....I...C+E..%..
4400b500:	a8a0 2c59 2aea 245d ac60 a982 a63e aaf3     ..Y,.*]$`...>...
4400b510:	a779 ad83 a027 25d4 a51d ac5d adf3 2444     y...'..%..]...D$
4400b520:	2aa6 a278 1556 9bce a161 af15 a6ca 2ca5     .*x.V...a......,
4400b530:	2d7c 24fc 27c8 0dbf a2a4 a71e acef 2cea     |-.$.'.........,
4400b540:	2ad9 a5b6 a234 2d1b 2e98 2bf4 2a19 2f20     .*..4..-...+.* /
4400b550:	2f0a 29b1 b074 ac26 a822 a688 9b74 aa3f     ./.)t.&."...t.?.
4400b560:	25be a88f a990 290d 2d15 9633 ae6b 1d3e     .%.....).-3.k.>.
4400b570:	1e2a 2dea adba aa82 25b4 2486 ad3c 2e66     *..-.....%.$<.f.
4400b580:	2d09 2d13 22b7 a66e a79f a8e3 a874 2196     .-.-."n.....t..!
4400b590:	aa30 9fe9 a9d8 2477 2ea9 2e38 a855 aeb4     0.....w$..8.U...
4400b5a0:	ad21 ab9a 2c41 24b2 a7b2 2a66 ae0b ab4b     !...A,.$..f*..K.
4400b5b0:	248c 2b84 2f9b 2e31 ac1d a90d a5d7 2c92     .$.+./1........,
4400b5c0:	301e 2908 1de0 249e a1fd aaf7 ab9f 9607     .0.)...$........
4400b5d0:	2de3 2c6c a97e a8cf 25bc 2c4c 2976 282b     .-l,~....%L,v)+(
4400b5e0:	1738 9b8a ac23 ad5b a882 9f0d abab a63d     8...#.[.......=.
4400b5f0:	a8ac 2a60 2d2b 984f a906 a83c 2608 2710     ..`*+-O...<..&.'
4400b600:	a4b5 acbc 2b44 2c16 18fc ab3c 2707 28a1     ....D+.,..<..'.(
4400b610:	28c4 ad01 282d 22f8 240f acea 2218 adfe     .(..-(.".$..."..
4400b620:	ad40 ad10 aa16 2bd1 225e a42d ad17 2954     @......+^"-...T)
4400b630:	2c10 9ab7 ae9b aeeb 2725 28c3 aa9d ae18     .,......%'.(....
4400b640:	2be8 2e46 a3c9 ac70 2486 284c a08e 9eac     .+F...p..$L(....
4400b650:	a802 a0a2 29a1 2cd7 a8e8 82b7 92ae aa0a     .....).,........
4400b660:	ac02 ad43 a63c 2d2d 2c89 24ae 282f 2f1f     ..C.<.--.,.$/(./
4400b670:	2fba 314f 289b 23b8 aaef ab54 24b0 ad24     ./O1.(.#..T..$$.
4400b680:	ae0a a895 257b 2a0d 276d abb8 2c74 96bd     ....{%.*m'..t,..
4400b690:	a8f3 285c 217b 1db1 202a a931 2d06 93c4     ..\({!..* 1..-..
4400b6a0:	27d0 2136 21ee a4c1 29cd 2a5b a90d acf5     .'6!.!...)[*....
4400b6b0:	a474 a974 ae8b a08d adfb a105 2465 ad0d     t.t.........e$..
4400b6c0:	ad42 a677 2e37 2fa3 a950 a335 913e 2c34     B.w.7../P.5.>.4,
4400b6d0:	a8c8 ab7d a935 24e2 a44f a7b0 ac07 1c5d     ..}.5..$O.....].
4400b6e0:	2cfa a882 a94b 21c2 2d53 2eec 1ef3 b01e     .,..K..!S-......
4400b6f0:	2a94 2573 a561 b25c b0a2 24a6 9f3e 90e6     .*s%a.\....$>...
4400b700:	2c0d 2d86 2677 268a 9b6e a580 ac16 2509     .,.-w&.&n......%
4400b710:	1671 28a8 a6ac b150 2933 aaad a7e2 a4c9     q..(..P.3)......
4400b720:	2cd1 27d0 29d5 297f 2b20 2c86 2d7c a547     .,.'.).) +.,|-G.
4400b730:	aaad 2432 20f3 2c04 aa36 1fb8 204c a1b9     ..2$. .,6...L ..
4400b740:	a88d 128c 1c04 2562 a451 166c 227b 2926     ......b%Q.l.{"&)
4400b750:	2ce2 9080 ab07 9f83 29c6 ab0a a89b abf2     .,.......)......
4400b760:	2ed4 2cb8 a2a1 a946 27b1 2419 96ba 2816     ...,..F..'.$...(
4400b770:	2a4d 2b29 ab5b ae23 27af 26c8 a22d ac0b     M*)+[.#..'.&-...
4400b780:	a942 a5a0 283a a78c ac08 aab3 a473 a9b6     B...:(......s...
4400b790:	2c73 1509 24ee ac0e a118 2ad0 29df 1363     s,...$.....*.)c.
4400b7a0:	afd5 a8ef 3004 ac7d ae18 29fe 2d99 23f0     .....0}....).-.#
4400b7b0:	9d4c 2b87 29b2 28ea 2c6f 280c a827 a8bb     L..+.).(o,.('...
4400b7c0:	aee0 2c86 29c3 9e67 24a4 2483 2660 25cb     ...,.)g..$.$`&.%
4400b7d0:	2cd7 2965 2011 abd3 a85a a0ed a76a af14     .,e). ..Z...j...
4400b7e0:	a31e a838 a3af 274a 24ed 236d a976 26d6     ..8...J'.$m#v..&
4400b7f0:	aa82 a93d 2166 1fc9 234a 2501 21c6 1f8f     ..=.f!..J#.%.!..
4400b800:	a0e5 2057 2884 a533 2812 aa6e a5fb aaad     ..W .(3..(n.....
4400b810:	a808 287a aa91 a4df 2837 203a a107 24f7     ..z(....7(: ...$
4400b820:	a6f0 a81a a99f 2218 a578 ab10 ab70 a74b     ......."x...p.K.
4400b830:	a352 a9dc a751 17d3 a0be a4e0 a7c3 24be     R...Q..........$
4400b840:	a397 9895 9f67 24b6 a9b1 a7c4 aa73 2731     ....g..$....s.1'
4400b850:	a362 9ea1 1dbd a9a8 ab6c a400 1fb8 a0c4     b.......l.......
4400b860:	aa8d 197b a6e7 9ef5 a85e a421 ab40 26ce     ..{.....^.!.@..&
4400b870:	a123 aa71 25ee 2834 a697 a21d 192d a116     #.q..%4(....-...
4400b880:	04a4 ab36 abdf a79b a922 2847 25ce 2083     ..6.....".G(.%. 
4400b890:	2526 273f ab52 28d2 aa6f aa08 28db 2358     &%?'R..(o....(X#
4400b8a0:	a4b7 9f93 ab65 a82c a62e 258c a68e a056     ....e.,....%..V.
4400b8b0:	a855 1d93 a9ce 253f aa75 a8f7 a801 1cc3     U.....?%u.......
4400b8c0:	289e a737 2679 2b48 a8bf 26bc ab87 9e5f     .(7.y&H+...&.._.
4400b8d0:	aa4d a9ff 2955 202c a8e7 2030 226e aad5     M...U), ..0 n"..
4400b8e0:	a532 22e1 a919 28b5 aad9 ab23 aaca aa9c     2.."...(..#.....
4400b8f0:	a34b 9631 2563 a8ea 246e 2032 a0c2 2812     K.1.c%..n$2 ...(
4400b900:	aa20 27c0 a2e1 1b6d 9acb 25c8 971b a6fc      ..'..m....%....
4400b910:	2376 2253 a513 a7b5 a8aa 1130 9d74 22b5     v#S"......0.t.."
4400b920:	27d6 28d5 268a 2a91 2590 281b 1c53 26f2     .'.(.&.*.%.(S..&
4400b930:	a1f8 aa75 abb1 a841 2876 a4f2 a95e 2676     ..u...A.v(..^.v&
4400b940:	a8ba a852 a11d a2fd 2504 aa8c 250d a49b     ..R......%...%..
4400b950:	a880 2297 23c8 a357 27a6 a910 a7e3 9c7b     ...".#W..'....{.
4400b960:	23e0 260f 9cd4 a952 aa03 a55e a50b 2673     .#.&..R...^...s&
4400b970:	a38d 2874 a71c aa11 aa78 9929 2480 ab88     ..t(....x.)..$..
4400b980:	abb0 a7bd a9f4 25fb 1d52 1ed0 a8d1 a3cc     .......%R.......
4400b990:	a890 a846 2737 26ac 2322 9a1c a393 2008     ..F.7'.&"#..... 
4400b9a0:	a28f a716 ab00 94a3 983c a5e8 a553 207d     ........<...S.} 
4400b9b0:	ab1a a401 9fe9 23df a9ed a4e4 a026 a64c     .......#....&.L.
4400b9c0:	a64a 2210 aaa2 a045 9d1e abd2 0401 2512     J.."..E........%
4400b9d0:	21f2 a843 28a0 98c2 a667 24cc a241 287f     .!C..(..g..$A..(
4400b9e0:	a201 2552 a83e a8be a8cc a86b 24d7 9d35     ..R%>.....k..$5.
4400b9f0:	25e6 a49b a870 2806 2644 a58b 267d a8d0     .%..p..(D&..}&..
4400ba00:	25b7 2347 a542 2303 20f6 abac 9826 a6c4     .%G#B..#. ..&...
4400ba10:	a5fc a993 abc8 abbe a8a2 a803 a810 a8f9     ................
4400ba20:	a26d a442 a9c0 9d24 a8d5 1f7f 90e2 a864     m.B...$.......d.
4400ba30:	a9b4 a6a5 9d27 aa38 aa88 abbf 2872 274f     ....'.8.....r(O'
4400ba40:	a541 a895 24f5 12e0 abc6 a31e a88d a89e     A....$..........
4400ba50:	a7a7 a8a5 24ab a70f abb9 abb3 196e a939     .....$......n.9.
4400ba60:	a441 a6f0 a779 258c 1fed a69a 21e1 a6b3     A...y..%.....!..
4400ba70:	9c08 a8de a3bd a23f a4d8 a7e4 273a 253d     ......?.....:'=%
4400ba80:	185c aa4d 1f4b a8f7 a955 ab81 a736 a823     \.M.K...U...6.#.
4400ba90:	17b7 a388 2308 2103 a96d a984 a76d 94ee     .....#.!m...m...
4400baa0:	282c abe4 9f08 251e aaf1 22e4 a832 a3f5     ,(.....%..."2...
4400bab0:	271d 28b8 2909 21e5 90c9 1cec 282e 2830     .'.(.).!.....(0(
4400bac0:	a15e ab42 a6ad 2844 2771 a738 a518 22d1     ^.B...D(q'8...."
4400bad0:	255d 1836 a089 a83b a115 ab1f aa85 2a6d     ]%6...;.......m*
4400bae0:	a7a6 280d a300 2837 90e3 26f9 1b82 ab99     ...(..7(...&....
4400baf0:	2818 ab48 2743 a78e 0d0d 2b82 aaa6 a27d     .(H.C'.....+..}.
4400bb00:	2b3d 2bda ab58 a633 1e3e a67b a67d 27f9     =+.+X.3.>.{.}..'
4400bb10:	a4d9 a5f3 99e9 a708 a941 a885 2ada 1662     ........A....*b.
4400bb20:	aa41 a9b0 a4dd 2c14 ab59 a9b2 ac0f 2573     A......,Y.....s%
4400bb30:	ac89 2c75 2654 a6d6 ac9c b039 2683 a4b6     ..u,T&....9..&..
4400bb40:	a4e1 aa01 acd7 27a1 9fe8 2680 9a05 2dc7     .......'...&...-
4400bb50:	ab06 23ed a6bb 2677 2ace adbb a38e 2aa7     ...#..w&.*.....*
4400bb60:	28e8 a946 aaaf 2c19 2612 2d70 30b7 a42d     .(F....,.&p-.0-.
4400bb70:	2836 2e44 2c41 2aec 234d 289a 2e7c 2298     6(D.A,.*M#.(|.."
4400bb80:	abfe 2eb2 19f9 9fd8 26c0 24b3 2fc0 2dad     .........&.$./.-
4400bb90:	91c1 2ef0 2cb6 2c12 a5e5 2895 2cb1 2774     .....,.,...(.,t'
4400bba0:	215d 2d89 2ca2 a981 ad46 2806 a4c1 212a     ]!.-.,..F..(..*!
4400bbb0:	a9a2 a21d ae6a a8f2 1e5e 25dd 2dae 1ff4     ....j...^..%.-..
4400bbc0:	2759 2dee 3112 ac26 28f5 2836 2f69 a00d     Y'.-.1&..(6(i/..
4400bbd0:	26a3 2b7b 2e2c 987a ae12 b39d 18b3 ad13     .&{+,.z.........
4400bbe0:	2b40 2b9d a87c a3f4 a196 2771 2fdc 2721     @+.+|.....q'./!'
4400bbf0:	255b 2a1d 3135 2fec ab3c 2be2 2c2e 2143     [%.*51./<..+.,C!
4400bc00:	a80d a4b5 1c2a 9b0e a67c 2cd4 280a 200b     ....*...|..,.(. 
4400bc10:	25ae 2c4f 2bed 2c8d 1acb 2825 2954 2b57     .%O,.+.,..%(T)W+
4400bc20:	29d0 a8f8 a293 a576 ac8b a43d a5b4 29de     .)....v...=....)
4400bc30:	239b ac18 ad8e 1ea2 a7e4 2995 20fb 280f     .#.........). .(
4400bc40:	a8f2 2c89 a5ef a6e3 a42c ad29 ad5e 28a7     ...,....,.).^..(
4400bc50:	a639 a879 a1a9 28a6 2a70 297f a8c4 a69c     9.y....(p*.)....
4400bc60:	26ca 2ea8 29d7 27f7 a53d 2ec1 2b24 a571     .&...).'=...$+q.
4400bc70:	abb9 2cb0 3011 29f0 a793 a3f4 adee 13dc     ...,.0.)........
4400bc80:	2567 a69a 2b44 afab 2a8a 2147 2c65 2997     g%..D+...*G!e,.)
4400bc90:	2952 299c 276d 21ac 873e 9bbc 2be2 1e1a     R).)m'.!>....+..
4400bca0:	30a3 2c81 225b 20eb 9f47 2c1a a867 27db     .0.,[". G..,g..'
4400bcb0:	a751 24a7 2ab7 1d49 a274 ac28 2474 aa3d     Q..$.*I.t.(.t$=.
4400bcc0:	985d 27b7 ab33 a8bf a50d 2bb4 2954 20f3     ]..'3......+T). 
4400bcd0:	249f 1c9d 1ddf 2d6e a82d a510 219e a37d     .$....n--....!}.
4400bce0:	1cc4 9f7c a4cf 2d7e a116 240a 9cf2 a9ec     ..|...~-...$....
4400bcf0:	225a 2542 2ded 2da4 209d aaae a414 2c95     Z"B%.-.-. .....,
4400bd00:	2cc7 a79d acab ae6e 2286 2d83 9478 21b0     .,....n..".-x..!
4400bd10:	a030 2680 a5c9 2935 2dc6 25e5 ab95 1d85     0..&..5).-.%....
4400bd20:	2beb 9e7a aa4c a788 a828 aa3b 2eb8 3167     .+z.L...(.;...g1
4400bd30:	acd1 ab2e 2670 2efd 313c 1eda 9df2 aa47     ....p&..<1....G.
4400bd40:	9cc9 b128 97cf a76f 26f1 2b42 a0b0 25ab     ..(...o..&B+...%
4400bd50:	2612 a14f 2583 9cc9 29db 2895 a9cd 19b3     .&O..%...).(....
4400bd60:	272e 2906 2249 26c4 a923 a874 277d a76a     .'.)I".&#.t.}'j.
4400bd70:	a9c0 9f0a 2970 2922 a848 aac5 a2d8 21e3     ....p)")H......!
4400bd80:	a952 a3fc a74b 283c 2a62 2953 9b5f a788     R...K.<(b*S)_...
4400bd90:	aca2 8b73 a1a9 999c acae 2a72 26fe a894     ..s.......r*.&..
4400bda0:	9937 296e 9fbe 2caf 2aef 9ca5 21a1 2591     7.n)...,.*...!.%
4400bdb0:	28f6 2476 ae5d ab3d acba a846 22d8 2eb4     .(v$].=...F.."..
4400bdc0:	295c a802 a5a3 19a9 a8e4 a67b 28b0 a751     \)........{..(Q.
4400bdd0:	ab3e 202f a544 2e06 26f6 24e9 208e 1cdc     >./ D....&.$. ..
4400bde0:	a440 aa6e 2f5d a6b5 adba 9f34 a295 2b9d     @.n.]/....4....+
4400bdf0:	a97a a400 a6ba 9877 2202 a14a 275a 20a5     z.....w.."J.Z'. 
4400be00:	2bd8 2d77 a8a4 1997 2c2b a971 22d2 aa0d     .+w-....+,q.."..
4400be10:	a6b1 9d13 2a1d a9f4 97cf a800 a837 ab65     .....*......7.e.
4400be20:	a808 a45d 2b52 acb4 aa0f acac 2772 2676     ..].R+......r'v&
4400be30:	1d38 ac23 25a0 295c 2460 a4b1 aa4f 22ff     8.#..%\)`$..O.."
4400be40:	a57c aac4 a67d a5ed a490 ae9c 24f8 15d3     |...}........$..
4400be50:	a3a0 2a99 1fe3 2e01 a5f5 af33 208f a270     ...*......3.. p.
4400be60:	2d0e 1e46 8e2a 9554 a7c8 2c32 255b 29e7     .-F.*.T...2,[%.)
4400be70:	a685 a9ed 2ac4 2510 a558 a38e a728 24b6     .....*.%X...(..$
4400be80:	2a66 2c1d a6dd a08f 2bcb 2d2c 2c6f ae9a     f*.,.....+,-o,..
4400be90:	9e49 23b4 284d ad28 1f70 2cfd 2cae 25c8     I..#M((.p..,.,.%
4400bea0:	ab24 a550 2c3f 2bcb 297a a854 29fd 2950     $.P.?,.+z)T..)P)
4400beb0:	2a47 a951 aff3 25b5 2b17 261f 2b73 19a0     G*Q....%.+.&s+..
4400bec0:	21c9 a9ff 2807 2987 0d20 a8c8 a834 22e6     .!...(.) ...4.."
4400bed0:	2cff 2e37 a87b ac95 2ea4 251f 2838 2a30     .,7.{......%8(0*
4400bee0:	26a0 2c35 ab82 aedb 2bf7 2bae 2b3a 2d32     .&5,.....+.+:+2-
4400bef0:	aa17 a8a7 2599 2d03 2d2b abec 2ad7 1d2c     .....%.-+-...*,.
4400bf00:	2f71 202f 2865 a045 2b0f 31e7 ae27 ab63     q// e(E..+.1'.c.
4400bf10:	2916 1df1 30a3 ac35 b1fd ac53 a4c7 aa1e     .)...05...S.....
4400bf20:	ab58 adf0 a7d8 a81e a2b4 0d8d a75a 288a     X...........Z..(
4400bf30:	2967 1f2f ac7c ada7 aa64 ad65 a861 a29f     g)/.|...d.e.a...
4400bf40:	a60b 29f8 29f2 2b9b 2d09 3104 aab3 2815     ...).).+.-.1...(
4400bf50:	2b53 2972 ac60 a207 247b a60a a96f a51f     S+r)`...{$..o...
4400bf60:	29fa 2a84 a923 2573 a9e1 a205 9e5c 2b6d     .).*#.s%....\.m+
4400bf70:	ab16 1a05 2333 2933 ac18 a5a1 2dc4 28ff     ....3#3).....-.(
4400bf80:	297b 2f84 28d7 ab2c 9787 ac1f 9e28 28ec     {)./.(,.....(..(
4400bf90:	a29a 28e8 aaa3 14ec 28ef a4f9 a138 2c38     ...(.....(..8.8,
4400bfa0:	231b 2544 ade5 2b6d 2d06 2855 a61f a38b     .#D%..m+.-U(....
4400bfb0:	a7bd aa9a adcd a451 a731 24a8 9c36 1f3e     ......Q.1..$6.>.
4400bfc0:	2869 adcb a4fe 173e 28de 252b 1b0c a6c6     i(....>..(+%....
4400bfd0:	2563 a2e3 2868 98fe a9af a93e 2bd3 2c74     c%..h(....>..+t,
4400bfe0:	a257 adc2 a99c 2a03 2a71 2725 a878 ac5f     W......*q*%'x._.
4400bff0:	1490 2023 ab80 2406 2616 25c6 2c74 a73c     ..# ...$.&.%t,<.
4400c000:	ab57 1e1a 2ba3 a225 ad41 22fb a7b4 a09b     W....+%.A.."....
4400c010:	25e7 ad99 257f 2c5f 2d09 24ad a8d0 134c     .%...%_,.-.$..L.
4400c020:	a8c2 901c 2afa a92b a7d6 a5b6 273a 28c7     .....*+.....:'.(
4400c030:	2804 2ae1 a4fb 2c87 a774 abe5 a8f8 a2f3     .(.*...,t.......
4400c040:	a5fa 29e7 a56d af77 28c9 ad1c 2cc6 2ebc     ...)m.w..(...,..
4400c050:	ab62 26fc ae7f 20de 2d5d ac8b 29fb abe7     b..&... ]-...)..
4400c060:	2c55 298d 2586 2337 aadc a970 2ad4 267b     U,.).%7#..p..*{&
4400c070:	2819 2851 a767 a936 a60b a163 a209 17e4     .(Q(g.6...c.....
4400c080:	a943 a72c abc7 a8cf a64e 224b 2969 185d     C.,.....N.K"i)].
4400c090:	1ece 9c2e 9b62 2440 1f6a 9c2a 2b5b 25ce     ....b.@$j.*.[+.%
4400c0a0:	a871 a658 26f1 256c 2afb a9f4 21db 2ab8     q.X..&l%.*...!.*
4400c0b0:	1bbc a9bf a859 a735 aa3a a8cf 1d2a 28ac     ....Y.5.:...*..(
4400c0c0:	ab89 ab46 aa56 a990 2925 22d8 ac91 2d73     ..F.V...%)."..s-
4400c0d0:	2c07 9e1a ae14 a1f7 2bcf 2f5a af24 a5dc     .,.......+Z/$...
4400c0e0:	288c 9c34 9a73 1e89 260e 9d97 2b33 a3a0     .(4.s....&..3+..
4400c0f0:	a8a1 1f29 ad46 20ae aaeb a8d6 29f4 0dd8     ..).F.. .....)..
4400c100:	a50a 2f7f ae48 a9c6 243a 2aa9 2f5e aa41     .../H...:$.*^/A.
4400c110:	223a 2714 abf6 a5f9 aba0 18fb a7b8 adee     :".'............
4400c120:	a29c a8bd aaee 1f77 2606 a941 a365 a86d     ......w..&A.e.m.
4400c130:	2a38 2594 2124 acd7 254f 2d7b 2a55 24c9     8*.%$!..O%{-U*.$
4400c140:	aea0 ad3d af8c ac21 a4d9 a84f a771 a8ac     ..=...!...O.q...
4400c150:	19c1 2400 21c0 9c39 2a1a 2a6b 2152 1df1     ...$.!9..*k*R!..
4400c160:	2c16 2ae3 291d 2282 263a 2662 9813 2c37     .,.*.).":&b&..7,
4400c170:	25bd 2dec 2af4 2a45 2870 1f84 2a50 9a88     .%.-.*E*p(..P*..
4400c180:	2193 2058 a19a a7aa a8ec 2480 a97e aac2     .!X .......$~...
4400c190:	209d 10d6 2c92 a479 28c2 2d26 1e84 a1a1     . ...,y..(&-....
4400c1a0:	a75b a406 aa79 a5e0 21e6 2da3 2c15 adfd     [...y....!.-.,..
4400c1b0:	ae92 a9a0 a4d6 2c05 a9ea a999 2343 210e     .......,....C#.!
4400c1c0:	a26e 0fff 2d75 2ae1 18df a64d 2b09 a6d0     n...u-.*..M..+..
4400c1d0:	292a a899 a593 aa01 2c31 326b 3082 3155     *)......1,k2.0U1
4400c1e0:	a502 2365 2a6b 178a 2c46 97c9 2841 9c49     ..e#k*..F,..A(I.
4400c1f0:	245d a4b2 2634 28da a5d4 aa0c a0f1 24b2     ]$..4&.(.......$
4400c200:	a9ee aaab af84 2bf9 292b 2ea3 302b 3167     .......++)..+0g1
4400c210:	2f60 a9fa 2c20 2a95 27fb aa84 25c8 1c5c     `/.. ,.*.'...%\.
4400c220:	2747 acd2 ad4e a90a 245e a123 b0dc 21ba     G'..N...^$#....!
4400c230:	a856 a877 ad85 ac92 a99b 99ae a881 b011     V.w.............
4400c240:	ad33 ae5f a9c4 a6d0 ac14 a391 a7c6 a551     3._...........Q.
4400c250:	9d6f 2d16 a369 21ef 229d 2905 29e7 2db8     o..-i..!.".).).-
4400c260:	1f96 24e1 2cca 2b80 2c8b 2850 28b0 29ca     ...$.,.+.,P(.(.)
4400c270:	a6d8 abd8 a84e 9c92 a7a8 26a7 2011 aba8     ....N......&. ..
4400c280:	2d3c 2a9f a0b5 2033 aa6c 2b7e 2bc1 a63e     <-.*..3 l.~+.+>.
4400c290:	2834 2a83 2641 2ba8 232d 1fbb 206b 2fe6     4(.*A&.+-#..k ./
4400c2a0:	315e 2def 3053 2f4e 9883 a950 a8b7 ac2c     ^1.-S0N/..P...,.
4400c2b0:	ab32 a914 2726 2b07 9e54 ae2e 2cf3 2cae     2...&'.+T....,.,
4400c2c0:	2b57 266b 1df9 2aaf 2c4f a690 a9cd 299f     W+k&...*O,.....)
4400c2d0:	ad9f af98 b0cd afcd 2579 b048 b07d b0dc     ........y%H.}...
4400c2e0:	af74 a62e a585 aa97 20a2 2437 2702 25dd     t........ 7$.'.%
4400c2f0:	a2f7 9c03 2c95 2c9c 249a 2a32 294e 2d8c     .....,.,.$2*N).-
4400c300:	2e87 b053 a991 9d1d 2732 2cea ae0a ab5b     ..S.....2'.,..[.
4400c310:	2984 2372 a640 1b1f 261b 256e 291c 9bfa     .)r#@....&n%.)..
4400c320:	a405 2365 2c07 9e0a 2684 2b83 1d39 9ac4     ..e#.,...&.+9...
4400c330:	a7fb 28b7 2a62 28f9 2ee0 2c24 2cbe 28c9     ...(b*.(..$,.,.(
4400c340:	2c36 a2f2 a8ba a7f5 a026 1542 aa0e ac62     6,......&.B...b.
4400c350:	a7e5 2c72 a9a2 9f74 a210 aa4a 2d3b 2889     ..r,..t...J.;-.(
4400c360:	29ca 28cf 2622 b051 afff 9f2e 2cd9 2f24     .).("&Q......,$/
4400c370:	ac33 12c1 a25a 2f99 2ed0 205b 2b32 a6d4     3...Z../..[ 2+..
4400c380:	9ee5 aabf 259e a0b6 1dc1 ad2b abe2 28dc     .....%....+....(
4400c390:	204d a5f1 a325 ab53 a82f a69c ac8d ac88     M ..%.S./.......
4400c3a0:	aa18 23ff 2844 260b a77b 2966 297c 2b8d     ...#D(.&{.f)|).+
4400c3b0:	a14b 232e 1eed a37f a3c9 2b17 a406 2b4f     K..#.......+..O+
4400c3c0:	2065 252a a005 a9e1 a421 ac5c ad98 a8ac     e *%....!.\.....
4400c3d0:	abcc a34c 2a94 28c6 a01a 9462 a206 2f0d     ..L..*.(..b..../
4400c3e0:	259e 293c 2d56 26d2 26f3 a06c 22ca 2e94     .%<)V-.&.&l.."..
4400c3f0:	2d09 1686 9caf 9abb 2a84 9554 ab43 1bad     .-.......*T.C...
4400c400:	a136 a402 ae8e 2cca 2e9f 2a4f a75a a642     6......,..O*Z.B.
4400c410:	30c4 293b 303b 2c66 aa00 a8d7 ab58 a6d1     .0;);0f,....X...
4400c420:	2461 287d b0c7 ae15 a609 9ef5 a80f 274b     a$}(..........K'
4400c430:	2417 ab22 98fc a8dd 2704 1f7c a4a1 a89f     .$"......'|.....
4400c440:	ac55 aa8c 24e0 a609 a60f 298d 2af9 2a53     U....$.....).*S*
4400c450:	2acc 2ce9 1d6b 2778 2445 234d 284a 2d91     .*.,k.x'E$M#J(.-
4400c460:	1d8d 2724 2cab 2ac2 22c9 1e45 a878 2e6c     ..$'.,.*."E.x.l.
4400c470:	2b6a a7de 9134 a104 a7a0 a684 ad67 a00c     j+..4.......g...
4400c480:	ac0b a45d a9b4 a70f 1920 a999 9ef7 ab34     ..]..... .....4.
4400c490:	9922 abaf ad86 ad1f abef 2095 2a6b 9dc8     ".......... k*..
4400c4a0:	2c1b a083 2816 28c7 2cab 2942 1e64 a884     .,...(.(.,B)d...
4400c4b0:	2993 a89f 1f2d 2cc6 a64e 9096 203c a057     .)..-..,N...< W.
4400c4c0:	288a 24d6 aeb0 a883 a097 21b4 a4f6 ae1d     .(.$.......!....
4400c4d0:	a057 2156 a7ee ad9f a48e ae07 2142 2e03     W.V!........B!..
4400c4e0:	2cb3 ab63 a4e8 2e1c 2a4e add1 a93c 233f     .,c.....N*..<.?#
4400c4f0:	259a aa18 ab37 2bd3 286a ad71 afd0 b1fb     .%..7..+j(q.....
4400c500:	9e04 2554 26c4 a6c6 2b60 9f2a 28d5 2ab6     ..T%.&..`+*..(.*
4400c510:	a97f 3047 9c27 1645 23ba a56d aa07 2f8d     ..G0'.E..#m..../
4400c520:	2d49 2d72 2d71 319a 2aa7 9a80 ad7d b0d6     I-r-q-.1.*..}...
4400c530:	b2c2 2bfc ab23 ad52 a6e5 2f72 286c a47a     ...+#.R...r/l(z.
4400c540:	2c93 a8fd 2685 2448 0e3e 2c00 2a00 1dee     .,...&H$>..,.*..
4400c550:	2924 2bee 2cae 2b40 3018 a592 1b23 1e7b     $).+.,@+.0..#.{.
4400c560:	2db5 300a ab17 a0fe 2d3d 25ff a4e0 2a8b     .-.0....=-.%...*
4400c570:	261a 90db ac78 a9ae 2833 2a9f a328 ac8b     .&..x...3(.*(...
4400c580:	ab9a a6a9 a946 aa0e a69b ac17 28fb 2bf4     ....F........(.+
4400c590:	a425 28e7 2dd0 2e5a 28f3 a89a 94c2 8f42     %..(.-Z..(....B.
4400c5a0:	2031 2c40 a3cf 9675 29ae aa43 2b81 a81c     1 @,..u..)C..+..
4400c5b0:	a84c a819 1c60 2454 1a39 a926 a0aa af23     L...`.T$9.&...#.
4400c5c0:	afa6 ae9d af1d ac78 29ff 278f a78a 2eac     ......x..).'....
4400c5d0:	2ce9 0973 add9 2a9a 2ec4 24c5 aff9 abef     .,s....*...$....
4400c5e0:	2b81 238a a2b6 270a 290d 9ee8 a96b a473     .+.#...'.)..k.s.
4400c5f0:	b094 25bf 299d 2b1a 2689 ae78 283b 20c0     ...%.).+.&x.;(. 
4400c600:	a845 acf2 a52a aa52 291e 25b0 22e6 ad27     E...*.R..).%."'.
4400c610:	9e6c a833 a6db b18a aa91 aa05 1eb2 9ce0     l.3.............
4400c620:	b03f 9b0a 2a54 2f3e 9f75 adf0 a543 187c     ?...T*>/u...C.|.
4400c630:	2980 2b67 2dbf ac12 ac02 1db6 2b3a 9d24     .)g+.-......:+$.
4400c640:	2838 2831 a3a7 21d3 997c 240f aa3d 205c     8(1(...!|..$=.\ 
4400c650:	a61e 9f57 1afd a94f abb0 ac62 af69 a52b     ..W...O...b.i.+.
4400c660:	9251 2444 2aff 2e42 2b02 2863 2d3d 27ed     Q.D$.*B..+c(=-.'
4400c670:	27fa 2a33 1f7d 1780 2c0a a2a4 21c8 2109     .'3*}....,...!.!
4400c680:	91d3 a3d1 2b22 a91f 30d9 30fc 2672 ae1e     ...."+...0.0r&..
4400c690:	a835 2bf1 aed5 b033 b0b4 aac0 a96e 2189     5..+..3.....n..!
4400c6a0:	2caa 2ad3 a7a1 2c38 2da5 a2ed ae7b 2690     .,.*..8,.-..{..&
4400c6b0:	25db 256a a8ad a9c1 a947 a64f 2ac3 2e86     .%j%....G.O..*..
4400c6c0:	2c93 a704 2163 2e10 222b a52f 25f4 a96e     .,..c!..+"/..%n.
4400c6d0:	a549 27d1 a572 2a01 2245 a9db a56b a043     I..'r..*E"..k.C.
4400c6e0:	aab3 2267 2ad1 a75a 1f31 2c75 a822 2494     ..g".*Z.1.u,"..$
4400c6f0:	26de 2d9a a46c a18b 23c2 a518 27f0 2add     .&.-l....#...'.*
4400c700:	2126 992c ab01 a6ca 2558 a914 aaf1 a8b0     &!,.....X%......
4400c710:	a68e 1ffa 2c1b a4ef 9c90 25da ac78 ae50     .....,.....%x.P.
4400c720:	aa3c 9c77 295f b076 a03f a9c2 2690 9332     <.w._)v.?....&2.
4400c730:	98e0 2e8e a755 adb4 a6b1 2a35 1b6f ad4a     ....U.....5*o.J.
4400c740:	a9a0 2561 a79f 2c8c 245d a56b 2b62 a83e     ..a%...,]$k.b+>.
4400c750:	22c9 2cb5 292e 24f2 228d 2302 2e1d a932     .".,.).$.".#..2.
4400c760:	2543 1eb9 2704 2663 a24a 2284 a1d0 a931     C%...'c&J.."..1.
4400c770:	2812 a57c af76 a6e4 a80a a7bb a648 ab04     .(|.v.......H...
4400c780:	a9cb a036 2834 1e34 a842 a428 23e9 ab8c     ..6.4(4.B.(..#..
4400c790:	aae9 a60d a813 2609 a7a5 1d74 2719 a118     .......&..t..'..
4400c7a0:	24d1 a95c 15a9 a92e a9a5 aa0d a628 a761     .$\.........(.a.
4400c7b0:	2110 a5c7 284a 2aad 8c9a a7de 2688 a84c     .!..J(.*.....&L.
4400c7c0:	28a4 2375 a03a abb5 a89b a00e a25e 2946     .(u#:.......^.F)
4400c7d0:	a443 a184 a8bd 27f3 a2ff a2d3 2782 ab03     C......'.....'..
4400c7e0:	a8f6 a9d3 27e4 23d1 aae2 aade 2781 1fa6     .....'.#.....'..
4400c7f0:	27f5 2279 ab6f 26a8 23b0 a95c a940 aba5     .'y"o..&.#\.@...
4400c800:	20f8 157d 20ac 1fe1 a1fa a95f a947 a970     . }.. ...._.G.p.
4400c810:	a5b6 249c a506 8d32 1710 aad1 a7a5 a50c     ...$..2.........
4400c820:	a19c a878 ab51 a50c 287b 24c6 a72c ab95     ..x.Q...{(.$,...
4400c830:	a4eb ab25 aa69 22c0 1e79 a823 230e 1ff8     ..%.i.."y.#..#..
4400c840:	aa11 ac01 a8eb a82f 8e3f 1777 a973 1f5b     ....../.?.w.s.[.
4400c850:	a9ab 2192 aa6e a94d 23dc 2b6d 225e 9dd6     ...!n.M..#m+^"..
4400c860:	15fa ab00 276a 2c0f 23db 2408 1850 24cb     ....j'.,.#.$P..$
4400c870:	a401 9fa7 a24d ac07 9745 a111 9f9f 24e0     ....M...E......$
4400c880:	a72d 206c 2301 9148 21b8 1d39 1a6d a288     -.l .#H..!9.m...
4400c890:	27e5 a149 a10f aa8a abd9 abc1 a6ce 2062     .'I...........b 
4400c8a0:	aaaf a5f6 a89e a7ff 9b6e 2524 99ac a04d     ........n.$%..M.
4400c8b0:	a359 a4eb 990e a823 24fa ab3c aba0 a50d     Y.....#..$<.....
4400c8c0:	a949 a947 aad3 a7d9 1abb 26f2 a6bb 25f9     I.G........&...%
4400c8d0:	2221 a1a4 2a59 aae3 a5b9 215a aa2a a37e     !"..Y*....Z!*.~.
4400c8e0:	a268 224d a38e ab7b 21f0 a946 22ae a4f0     h.M"..{..!F.."..
4400c8f0:	27c3 2807 9aa3 aa5d 9fec a43d 2415 27a8     .'.(..]...=..$.'
4400c900:	a2cb a9fa 2680 29e0 a7f4 a0ce 2803 aa6c     .....&.).....(l.
4400c910:	ab8d a07f a6df 2a10 a467 1793 a9fb a4d3     .......*g.......
4400c920:	ab48 27c1 a34c abad 9e12 295a aa0f a6c4     H..'L.....Z)....
4400c930:	a87d a911 26a6 aa4c 2862 2ac6 ab00 22f0     }....&L.b(.*..."
4400c940:	aa4e 9584 abd6 a12f 2a9c 26ec a8ad a96b     N...../..*.&..k.
4400c950:	aab3 a6f9 26de 1b45 21a0 a258 2876 a496     .....&E..!X.v(..
4400c960:	aa03 a5bb a84e a86e 265b 2730 2ac3 a5b0     ....N.n.[&0'.*..
4400c970:	2702 245b 2400 1ff6 a708 a77f 21d2 1f89     .'[$.$.......!..
4400c980:	aab4 ab5f a9c3 a930 24f6 a83a 22f0 a619     .._...0..$:.."..
4400c990:	2183 a2a8 ab04 2296 a8a9 2076 abf5 aa77     .!....."..v ..w.
4400c9a0:	964f a6e5 a42c 9b73 969e 2800 2aa7 9ea2     O...,.s....(.*..
4400c9b0:	2867 28b8 2595 9e0a 21d1 ab01 2758 26ff     g(.(.%...!..X'.&
4400c9c0:	a9aa 24e7 2157 a751 a6a1 22dd 2815 a585     ...$W!Q....".(..
4400c9d0:	27c7 206c a9f4 1c56 a718 a915 1d5b 1eab     .'l ..V.....[...
4400c9e0:	a9a8 a318 ab2a 26a5 a13c 0ae1 227d a7cd     ....*..&<...}"..
4400c9f0:	abb7 a528 a926 289e aa78 a8dc 27e4 ab99     ..(.&..(x....'..
4400ca00:	28e6 a387 a948 9dab 2538 1dd0 aa09 a296     .(..H...8%......
4400ca10:	a9a8 a847 a925 aa77 9c6b 234e a2cd 1ca4     ..G.%.w.k.N#....
4400ca20:	a2b3 a8f4 a8b7 a4d3 2957 a6e5 aa28 a464     ........W)..(.d.
4400ca30:	a9a7 25d3 a545 abb7 1529 a8c6 ab46 1c76     ...%E...)...F.v.
4400ca40:	a0f2 a672 1e95 25b4 ab50 1fea 2816 1e1c     ..r....%P....(..
4400ca50:	96dd a1f7 a9a3 24af 281b a750 26e9 299e     .......$.(P..&.)
4400ca60:	28aa 1e26 287f 2a7e 93cc a9cf a4b1 aa09     .(&..(~*........
4400ca70:	a5db a80c 97f1 a9b8 a978 2318 aaa9 2265     ........x..#..e"
4400ca80:	a627 aac6 24ef a7ed 2811 aade a844 2ae0     '....$...(..D..*
4400ca90:	1fb4 a98f ab62 a654 a09b a979 a85a 2b8c     ....b.T...y.Z..+
4400caa0:	a8e8 a506 276a a732 abbf 193c acdf a5b8     ....j'2...<.....
4400cab0:	167d ac78 a5f2 1d70 1d2f a8b3 a090 2586     }.x...p./......%
4400cac0:	ab64 a598 a919 9e71 1985 a864 2431 24be     d.....q...d.1$.$
4400cad0:	1969 ad60 aad3 a5a9 a666 a538 a727 25dd     i.`.....f.8.'..%
4400cae0:	a3a5 1d73 a8c4 a769 17e2 a829 a714 acc4     ..s...i...).....
4400caf0:	a9ee a72f aba0 a461 22ab 1b79 ace0 266f     ../...a.."y...o&
4400cb00:	2691 a1c4 9acc a569 a9af 2464 2426 a17a     .&....i...d$&$z.
4400cb10:	a6ae a28a a8dc 9cb7 2937 2286 ad9c 1867     ........7)."..g.
4400cb20:	a98d a525 a9c9 a0e1 a81f a704 a8bb 1f54     ..%...........T.
4400cb30:	ab6b aac1 27a3 ac33 a4c5 2729 aa7a aa9b     k....'3...)'z...
4400cb40:	2740 aa57 ab5d aa9e a62f 9b34 1d3f a91c     @'W.].../.4.?...
4400cb50:	a6ba ac10 297b 24fc aa78 a70a a009 205b     ....{).$x.....[ 
4400cb60:	21b0 a599 a66d a4e8 ac05 207f a87e a8a6     .!..m...... ~...
4400cb70:	aa98 975e aa9d abb6 aaee 9683 ad2a a85c     ..^.........*.\.
4400cb80:	269a a4e6 1a68 9c8c 8e22 1c01 a969 1649     .&..h..."...i.I.
4400cb90:	98c2 a294 a9b0 281f a60a a902 a5e3 aab9     .......(........
4400cba0:	2820 9c75 1df7 abdf a718 a948 ad53 9fa1      (u.......H.S...
4400cbb0:	9817 aa6e a8d6 aa55 aa26 a47a 2211 a740     ..n...U.&.z.."@.
4400cbc0:	2518 1ddf a3ab a597 a853 a676 a0a6 abd2     .%......S.v.....
4400cbd0:	2833 aad6 1e50 216d aaa0 a574 a435 a88b     3(..P.m!..t.5...
4400cbe0:	a2eb 9270 a9ef 08ad a9b3 a998 ad49 ac29     ..p.........I.).
4400cbf0:	ad72 9cc4 282f aa51 acf9 22d0 ac53 2b69     r.../(Q...."S.i+
4400cc00:	ac0a 2359 a83e ac99 a6d5 1966 2ba0 2736     ..Y#>.....f..+6'
4400cc10:	aaf0 a3db a81d acb2 233b ab9a ab31 1fca     ........;#..1...
4400cc20:	a6ad ab49 aced 24c0 a9da a85f 20d7 a9b7     ..I....$.._.. ..
4400cc30:	ac3e 9ce4 ac1e ac9a aab9 9b6c aab0 a419     >.........l.....
4400cc40:	ac66 a55f a954 a813 241a ab1e a942 a6cf     f._.T....$..B...
4400cc50:	ac55 a8d2 a85d a259 ac8c ab28 201b ab61     U...].Y...(.. a.
4400cc60:	aa67 a936 1cd0 1663 a515 a63a 2864 aa2c     g.6...c...:.d(,.
4400cc70:	abc8 257c 9d14 a4f8 ab8a aa6e a986 a997     ..|%......n.....
4400cc80:	2324 a68b a3ea 91fc a35b 1673 a391 15a2     $#......[.s.....
4400cc90:	ab62 a12a 89d0 a910 a097 1b27 25dd a69b     b.*.......'..%..
4400cca0:	25e9 a6c3 a6e6 a4a8 213d aa21 aab9 aa54     .%......=!!...T.
4400ccb0:	9ff6 13c3 1a33 14fb a885 aba1 ab63 a6f9     ....3.......c...
4400ccc0:	23f5 a3fd aa03 a82b 229c 26af ad74 ae3e     .#....+..".&t.>.
4400ccd0:	a8cb 9e97 9bbf abda abf6 a62b a5f7 0d30     ..........+...0.
4400cce0:	1c2a a4e0 ab7b ac6b 9e88 29c1 a9b7 1723     *...{.k....)..#.
4400ccf0:	ad4f a932 aab5 adad a834 28a7 278b 9b8b     O.2.....4..(.'..
4400cd00:	a910 2674 21c2 a9cc abf2 a05b a8d5 a41f     ..t&.!....[.....
4400cd10:	aa9a a9a4 1006 2227 ab3b ac4e 2414 a9f7     ......'";.N..$..
4400cd20:	a9db aa65 a9a5 acbb 9dda aa85 9c10 aa6d     ..e...........m.
4400cd30:	241b a854 2699 a18d 2518 1a4a a3aa a0d9     .$T..&...%J.....
4400cd40:	aa1a a702 1ba5 1e5f a0bb 2143 ac95 a69b     ......_...C!....
4400cd50:	ac6c 2346 a723 ab21 accf 2338 9d8f 9c20     l.F##.!...8#.. .
4400cd60:	245c a27e a54a aa5e 207a a1a5 aaf5 a66e     \$~.J.^.z ....n.
4400cd70:	ab21 22e8 aa0c a96a a875 a813 a84c a67a     !.."..j.u...L.z.
4400cd80:	a9a3 1f14 ac4f a3c2 a89c 9c78 1fe0 a947     ....O.....x...G.
4400cd90:	aba6 239c 268a a041 1b37 298c a860 ac8b     ...#.&A.7..)`...
4400cda0:	a760 abd5 2322 a836 a549 9bbd a854 a96f     `..."#6.I...T.o.
4400cdb0:	a39e aa3d a69e a1d3 1ed7 a7bb a250 946d     ..=.........P.m.
4400cdc0:	2be0 2a21 20c4 a7bd 2cb4 a91e a273 a3c1     .+!*. ...,..s...
4400cdd0:	2b30 2c6f a2f4 9c6b 9d54 a54d a49c a31a     0+o,..k.T.M.....
4400cde0:	a0c3 1f20 2909 a872 a960 a0b3 240c a84a     .. ..)r.`....$J.
4400cdf0:	1384 2ce2 26c2 2c4f 27bc 2b94 27f5 2f3a     ...,.&O,.'.+.':/
4400ce00:	9c49 9fe2 a13a a649 267e 1851 2804 a9db     I...:.I.~&Q..(..
4400ce10:	9e62 208f 285f 28d2 26cc a906 22c5 995b     b.. _(.(.&..."[.
4400ce20:	26a3 ae69 aff0 210e a720 aa3d 2ddb aed4     .&i....! .=..-..
4400ce30:	ae17 ad3e a3ca 2ca5 ac41 aef3 a7a4 2929     ..>....,A.....))
4400ce40:	2e1e 2c11 a3ec acbf a573 ac18 a312 b0a0     ...,....s.......
4400ce50:	a4c7 2592 9fe7 300c 2937 a653 3046 2c51     ...%...07)S.F0Q,
4400ce60:	9c52 2619 a5a6 2a9c a1bb a107 a748 a9ea     R..&...*....H...
4400ce70:	a872 b157 aaa7 28fd a037 a85a ae14 27e4     r.W....(7.Z....'
4400ce80:	257b 9257 2751 2cfe 2c28 2402 91a4 2cb3     {%W.Q'.,(,.$...,
4400ce90:	315a 2828 2c47 a9f7 a9b5 275e a958 2ce8     Z1((G,....^'X..,
4400cea0:	9d75 a83c b024 a85c 2cb7 287e a8d9 aa5f     u.<.$.\..,~(.._.
4400ceb0:	1cad 295f 2313 2984 295d 2e35 19b5 a929     .._).#.)])5...).
4400cec0:	a7fd a9f6 2194 94e1 2b71 a96e 2125 295b     .....!..q+n.%![)
4400ced0:	2739 2b4a 9619 a795 a71b 2b25 2c62 2159     9'J+......%+b,Y!
4400cee0:	acbd 2a4c 2bf8 1d6a ab87 abb6 2b56 27af     ..L*.+j.....V+.'
4400cef0:	2577 a5db 2d2e 21de 2ac0 28ec 28f6 2d86     w%...-.!.*.(.(.-
4400cf00:	99f8 2107 224c 2481 28cc abb2 20e8 a9db     ...!L".$.(... ..
4400cf10:	aa07 a1f8 a665 a91a 2ab7 27cd 9e87 a84a     ....e....*.'..J.
4400cf20:	a3bb aab4 2b54 299f a7c1 a739 a6af 25ba     ....T+.)..9....%
4400cf30:	a052 a0ed 2ab1 ac25 9b4b 2335 ac2b abed     R....*%.K.5#+...
4400cf40:	a94e 29c4 9577 a415 ad33 a4d4 238c ab98     N..)w...3....#..
4400cf50:	a62a 2533 ac57 ab82 2a37 ab97 a942 ae5b     *.3%W...7*..B.[.
4400cf60:	ab6e 2b77 2209 1e26 2dac 2678 2f49 a43e     n.w+."&..-x&I/>.
4400cf70:	a833 05e7 19cd ae5f a6a1 9f61 1892 ac44     3....._...a...D.
4400cf80:	a7b8 9fd9 a87c a56d a463 307f a93e 11c8     ....|.m.c..0>...
4400cf90:	283c 256a 2daf a08b 1820 aaf5 aad0 a92b     <(j%.-.. .....+.
4400cfa0:	a53a 24af ab04 a696 9405 acab aaca a94e     :..$..........N.
4400cfb0:	2c4e 2c80 1f53 26ea a42a 2d99 284d 2a15     N,.,S..&*..-M(.*
4400cfc0:	28c3 1d48 9f60 a85a 2a1f 2a67 2846 2632     .(H.`.Z..*g*F(2&
4400cfd0:	b061 252f 253f a811 9af2 ac0c ac2b a824     a./%?%......+.$.
4400cfe0:	2975 2e28 2d8a 2d26 262d 2a06 aec6 2d43     u)(..-&--&.*..C-
4400cff0:	a01f ae30 addb a4c1 2e4b a60c ad4a a736     ..0.....K...J.6.
4400d000:	aceb ab4a aaf6 1b59 9e41 ad29 b301 287a     ..J...Y.A.)...z(
4400d010:	2b03 2baa 2b74 22b6 a7f9 2a41 a729 28cc     .+.+t+."..A*)..(
4400d020:	2c34 2c89 2896 2c11 a7b4 9cfb 258e 27a2     4,.,.(.,.....%.'
4400d030:	2b2b 268f a387 2221 29d1 a54d a4eb 242e     ++.&..!".)M....$
4400d040:	248e 28dd 2536 a464 a92e a350 a402 a34c     .$.(6%d...P...L.
4400d050:	a306 2938 2457 29af 2c76 a2c7 2c2f a51f     ..8)W$.)v,../,..
4400d060:	2723 28ba 2852 294e 269d a2d7 1f56 a81c     #'.(R(N).&..V...
4400d070:	a5c2 a329 29f7 2503 a7d7 ad5a ae83 aca7     ..)..).%..Z.....
4400d080:	2896 ab7e a8f6 a489 28a4 2cd0 a235 a7d5     .(~......(.,5...
4400d090:	2c7a 2e61 2b08 2d95 a60c 2fa5 a998 a097     z,a..+.-.../....
4400d0a0:	2d45 185a 2cc5 2e7a 29b1 a6f4 a9e7 2935     E-Z..,z..)....5)
4400d0b0:	297b 2435 2702 2d67 2e93 2c03 a163 296c     {)5$.'g-...,c.l)
4400d0c0:	2e24 2b63 2e77 2d24 a69c 22f9 a575 aba6     $.c+w.$-..."u...
4400d0d0:	a91f ac08 abaf a7e5 22fb 2639 a514 a9aa     ........."9&....
4400d0e0:	2683 1c72 2b3e 29de a555 a74c 2ac7 2943     .&r.>+.)U.L..*C)
4400d0f0:	a93a ac24 a573 9e44 2998 28bf ad31 acb6     :.$.s.D..).(1...
4400d100:	a4c0 2586 2416 acc4 24a5 2b90 2a54 2b29     ...%.$...$.+T*)+
4400d110:	162f a880 a93c acdb a837 ad18 2669 a5d6     /...<...7...i&..
4400d120:	a877 ad62 a7af a198 2551 8eae a879 a8d8     w.b.....Q%..y...
4400d130:	aca7 2608 1805 2bcf a636 98e0 9f98 ae36     ...&...+6.....6.
4400d140:	2676 2690 a607 2c06 2413 28ad 2c9f a86f     v&.&...,.$.(.,o.
4400d150:	9bde aa0f 288a 2c6e 1d0b a602 a6ae 2d96     .....(n,.......-
4400d160:	2b61 2ac1 2c1e 294b ad10 ab2f 2adc a147     a+.*.,K)../..*G.
4400d170:	aad0 a813 a6a0 2b28 0923 a303 ae0c b00c     ......(+#.......
4400d180:	2d6a 244b 20fb a953 af3d ab49 ac4f 23b6     j-K$. S.=.I.O..#
4400d190:	ac88 b145 aced a945 1ae9 a9a5 2c19 ae17     ..E...E......,..
4400d1a0:	aac6 a8db 25d5 32ba 9f84 28d8 acba af09     .....%.2...(....
4400d1b0:	af77 a3b9 a0b0 1655 a544 b181 ad2e 29c4     w.....U.D......)
4400d1c0:	ad8b afde af74 af94 9e1c acae 2ba0 2c4c     ....t........+L,
4400d1d0:	ae62 ae72 a976 2a1f 335c ab91 aa5a 1f35     b.r.v..*\3..Z.5.
4400d1e0:	a022 a5dd ab41 9fc4 2629 1e50 295a 26b1     "...A...)&P.Z).&
4400d1f0:	2ce8 22de 2b17 a86f 2460 2994 95b0 29aa     .,.".+o.`$.)...)
4400d200:	ad12 29ec a914 a224 aab3 a386 2b24 25a9     ...)..$.....$+.%
4400d210:	2976 a660 2b86 9c3f a72b 2938 a918 a875     v)`..+?.+.8)..u.
4400d220:	20ff a819 2977 a13c a9fe 21bd a7a6 ab25     . ..w)<....!..%.
4400d230:	261a 252d ac80 a60c 2ae4 2cb2 263e 1cb3     .&-%.....*.,>&..
4400d240:	240c ac21 2182 292d a8f3 223f 9ff4 255a     .$!..!-)..?"..Z%
4400d250:	a4c1 afd8 af5a a806 20eb a957 b189 a5a7     ....Z.... W.....
4400d260:	275c 0fb6 a683 aa07 b078 ad41 2b8a 281d     \'......x.A..+.(
4400d270:	a88f 1821 2bf4 9c8a 2a8c a843 a5ff a88b     ..!..+...*C.....
4400d280:	ad05 a7d5 1c3b 2c4d 2585 2728 a5a6 2cbe     ....;.M,.%('...,
4400d290:	2c91 2b86 aab8 b130 1e42 2bb3 a8de ac46     .,.+..0.B..+..F.
4400d2a0:	a85e 2c4a 2d66 242c 28db 99b0 24ff 28a0     ^.J,f-,$.(...$.(
4400d2b0:	1ea4 298d 261c a00d 2a25 26d1 ad96 a485     ...).&..%*.&....
4400d2c0:	9a77 999a a672 23d8 a566 2000 a79e a887     w...r..#f.. ....
4400d2d0:	2c08 28b0 98fe ab67 ab31 aac1 2122 210f     .,.(..g.1..."!.!
4400d2e0:	254d 2849 22be ac14 aa54 a3f7 a17e 2194     M%I(."..T...~..!
4400d2f0:	ae5d ac3c ac61 2144 1e07 2969 ae4a ac74     ].<.a.D!..i)J.t.
4400d300:	aad2 2c43 2e96 2a1a 3033 2abd ace9 a5b0     ..C,...*30.*....
4400d310:	29b1 2ca3 a4d3 a57f a3fb 253a ac77 a847     .).,......:%w.G.
4400d320:	ac77 af82 a9e5 ab93 a596 ab1c b350 a2fa     w...........P...
4400d330:	2b84 2f16 2ee8 2cc3 adb2 a44b 26b8 2b25     .+./...,..K..&%+
4400d340:	2a15 abc1 2bc2 2cd4 aaaa a572 2531 2aca     .*...+.,..r.1%.*
4400d350:	2159 1bf1 aa3c 1e9b 24a1 28bd a945 a5ba     Y!..<....$.(E...
4400d360:	26d5 2919 a521 aa08 1ef7 a690 2034 27a0     .&.)!.......4 .'
4400d370:	29cc 1a69 ab2d 298b 2b29 a83b a9bd 2a06     .)i.-..))+;....*
4400d380:	2a66 28da a9f2 ad19 a577 2874 23f4 a52e     f*.(....w.t(.#..
4400d390:	a01a 28cc 2d16 2be4 aca5 1ef3 ac14 ae74     ...(.-.+......t.
4400d3a0:	a559 8065 2aa8 acf8 a0b3 0855 a5bd a7e7     Y.e..*....U.....
4400d3b0:	2c21 2954 295a aa0f aa8c 304c 21fe 8e50     !,T)Z)....L0.!P.
4400d3c0:	29ad 2b65 30f3 320b a2dc 260b 280a 2485     .)e+.0.2...&.(.$
4400d3d0:	2747 2c19 2cd4 2a4c 2d59 2501 1fac 237f     G'.,.,L*Y-.%...#
4400d3e0:	a8f6 2c2f 2b06 29d6 2ae2 ae01 2827 a603     ../,.+.).*..'(..
4400d3f0:	20d8 aafe ae7b 254b ac74 21b5 a12e 28eb     . ..{.K%t..!...(
4400d400:	22d3 21ba a901 a820 2194 a236 2ac1 a692     .".!.. ..!6..*..
4400d410:	2735 8d87 19e4 a42f 1927 abc0 a9ff a55e     5'..../.'.....^.
4400d420:	aae2 9f59 257c 276c 24f3 26c9 a171 2062     ..Y.|%l'.$.&q.b 
4400d430:	9225 2816 9eb4 25ce a574 a695 9ff4 a13e     %..(...%t.....>.
4400d440:	1c31 2461 2792 a61f 27ac a395 a735 26c5     1.a$.'...'..5..&
4400d450:	1d8f a0fa a92c a518 a0ca a8d9 a6a8 a9bb     ....,...........
4400d460:	26d4 2415 a569 a490 2516 a594 ac13 a8fd     .&.$i....%......
4400d470:	ab1a a9b3 aaed ab69 a9ea 26bc a5a2 2301     ......i....&...#
4400d480:	25d2 2828 12f0 0fd7 a7f8 ac38 262c a7d1     .%((......8.,&..
4400d490:	ab41 2570 a8b7 a926 a41f a888 24e0 a8cc     A.p%..&......$..
4400d4a0:	aa5a a894 225e 18e8 a450 a831 abdc a7d4     Z...^"..P.1.....
4400d4b0:	a1b1 aa7f a9e3 ac57 aa47 a827 a970 aa57     ......W.G.'.p.W.
4400d4c0:	9df3 aa96 a4ee a98a 2aa2 9971 a673 a76c     .........*q.s.l.
4400d4d0:	2983 9c6c abbb 24ae ac36 2469 98b2 21a6     .)l....$6.i$...!
4400d4e0:	1a72 abd9 9816 1cad 1c7e a4bf a345 294c     r.......~...E.L)
4400d4f0:	2a07 9c0b a9a9 2aac a823 ac21 9e43 1d5a     .*.....*#.!.C.Z.
4400d500:	8f61 1dde 2219 a465 1f22 1c8e 269f 2653     a...."e."....&S&
4400d510:	aabc a468 a7b3 a0fe a5d4 24ec a915 a9d5     ..h........$....
4400d520:	20c5 ac07 a981 9df1 9c58 1e02 a592 a770     . ......X.....p.
4400d530:	a1f8 2259 a022 2a93 2a1c 2495 a92e a9fc     ..Y""..*.*.$....
4400d540:	a4fe 2b9e a678 a631 208e a0a9 a605 2566     ...+x.1.. ....f%
4400d550:	25d7 1c15 2830 a367 a907 a4ee a837 a483     .%..0(g.....7...
4400d560:	284e 1c6d 9c0d a86e 26c1 a729 1cbd ab5a     N(m...n..&)...Z.
4400d570:	2932 1f9b 9d92 247b aa50 aa2a 2346 a6a2     2)....{$P.*.F#..
4400d580:	29b4 1b81 a8ff 269a 2472 1eca a827 a7d8     .).....&r$..'...
4400d590:	1fb2 1b97 a5cb 24d8 2403 26ea 276a a880     .......$.$.&j'..
4400d5a0:	2662 1dd1 21d1 2606 2a3b a948 27bb a571     b&...!.&;*H..'q.
4400d5b0:	aa4c 290b a920 1956 9b1e a956 21a1 2370     L..) .V...V..!p#
4400d5c0:	a89f a70c 24dc a296 a536 aaf5 1fd2 a1e3     .....$..6.......
4400d5d0:	a3bf a891 25a7 a25c a7ff 23a0 9558 a898     .....%\....#X...
4400d5e0:	a2cd a82b a98f aa13 a8bf a02d 213a aacf     ..+.......-.:!..
4400d5f0:	aace a8ff 1f70 1ea1 aa83 a8f1 a941 1b0f     ....p.......A...
4400d600:	aac2 a848 a829 aa71 2296 a6e1 a9c0 a778     ..H.).q.."....x.
4400d610:	1ad7 a312 a413 a6fe abcd 1856 20e0 ac81     ..........V.. ..
4400d620:	a1cd 9e66 2227 aa4b 27ff 2a55 a7c5 2091     ..f.'"K..'U*... 
4400d630:	a98e 21e7 1c73 a403 2a1b a5a4 29dc 1906     ...!s....*...)..
4400d640:	a446 1f91 ac16 a679 29f0 26d5 a83c a851     F.....y..).&<.Q.
4400d650:	a8e2 9e9b a8a1 a86a 28f6 9e85 abf7 a7ae     ......j..(......
4400d660:	a2a6 277f a4b9 94dd 2668 15e5 a76a a96a     ...'....h&..j.j.
4400d670:	a973 a919 286b a86c a8b6 a14b 24cf a741     s...k(l...K..$A.
4400d680:	222b 25fe 9862 22ab aa41 16d4 a1e9 a745     +".%b.."A.....E.
4400d690:	2449 a88d aaa5 aa8e a6b0 22be ab57 232c     I$........."W.,#
4400d6a0:	a0c1 a8bd a8cf ac4a 9d31 a851 aba8 213e     ......J.1.Q...>!
4400d6b0:	2485 ab58 251e a44e 9c70 a818 290d 2380     .$X..%N.p....).#
4400d6c0:	a0a6 a9e3 2748 a705 2860 2505 2723 a6ee     ....H'..`(.%#'..
4400d6d0:	1e19 a4a7 2245 a4c9 a88c 1745 8c1a a43d     ....E"....E...=.
4400d6e0:	23fa 29f1 28cd 2756 a8b3 20dd a159 248c     .#.).(V'... Y..$
4400d6f0:	a147 24ec a5ec 255c a870 290f 29a8 26a3     G..$..\%p..).).&
4400d700:	a4b2 1c1d 2131 2390 24aa 970f aac5 243e     ....1!.#.$....>$
4400d710:	a0e5 a959 9f07 2670 a98a ab5c 216f a996     ..Y...p&..\.o!..
4400d720:	2cf5 2ced 1c93 2c3f a143 a0db 2929 284c     .,.,..?,C...))L(
4400d730:	2826 2aa8 2d3a 1f23 a599 abe8 a8cd a862     &(.*:-#.......b.
4400d740:	2a2f a912 a5f5 2b7d a604 2569 a46b 292a     /*....}+..i%k.*)
4400d750:	2684 2ab2 a98d ad2a a47f 2421 2b00 2391     .&.*..*...!$.+.#
4400d760:	2766 95ce 2ba7 2b99 9ea7 a6eb 9fa1 2cb6     f'...+.+.......,
4400d770:	2b9a 9d94 aaa5 2325 22e4 239d 26c6 a0f3     .+....%#.".#.&..
4400d780:	aada 22ff a54f 29c5 2f45 2a5e aa85 9fad     ..."O..)E/^*....
4400d790:	298a 280c 2796 acdd 2891 a9b7 26a8 ae40     .).(.'...(...&@.
4400d7a0:	1d20 a964 25b4 ab3b 9692 9666 26ad 2bed      .d..%;...f..&.+
4400d7b0:	243f a77a 9d2b 2d0c 26d1 a850 b078 aef5     ?$z.+..-.&P.x...
4400d7c0:	2d90 2da7 a311 ac93 ac89 2d6d 2765 ac7a     .-.-......m-e'z.
4400d7d0:	2d09 2603 2ffc 205e 2b31 2c18 2b4e 9ea7     .-.&./^ 1+.,N+..
4400d7e0:	2974 29bb a1b8 9d1f 2c6c 2bc5 acc5 b2d2     t).)....l,.+....
4400d7f0:	b3aa 2f34 2606 a86a aa84 2c99 2c1f 2828     ..4/.&j....,.,((
4400d800:	28b5 2d65 2a20 2b8b 21e3 2b89 2c7d 2a90     .(e- *.+.!.+},.*
4400d810:	2b2b 15fd aa25 ae13 29c3 a52f aa88 ac4a     ++..%....)/...J.
4400d820:	2aee 2ef5 a985 a8a8 a54b 244a 2eeb 2c92     .*......K.J$...,
4400d830:	1493 acc4 2527 21ea 9494 28d9 a54a a8e1     ....'%.!...(J...
4400d840:	1dc4 2c2f 22f4 a2d2 aae1 22d7 2d0b 2221     ../,.".....".-!"
4400d850:	17fa a92e a05f 20ec 28d4 2782 2436 2c45     ...._.. .(.'6$E,
4400d860:	2930 2b08 ad68 2781 26ff 257b 26ed 2699     0).+h..'.&{%.&.&
4400d870:	26d4 8f57 2925 8e8d 2ad1 aac6 9ec4 ab49     .&W.%)...*....I.
4400d880:	14d0 a88d b146 af69 2fe5 2cda 2b4b 1fc6     ....F.i../.,K+..
4400d890:	a03d 29b5 2a21 a53a 2686 2cca 2f94 25a3     =..)!*:..&.,./.%
4400d8a0:	9feb 290d 1e5c 2c52 293f ab48 abec a2a0     ...)\.R,?)H.....
4400d8b0:	ac4d 23b3 2d32 2423 3017 adff 2d05 9c78     M..#2-#$.0...-x.
4400d8c0:	2c48 2f49 9d21 a735 220d a4e0 2353 2422     H,I/!.5.."..S#"$
4400d8d0:	ac0a a90e acf4 a5a3 26f8 1d58 a1d6 299f     .........&X....)
4400d8e0:	2cd2 a8ea 2a09 271f a8af ad08 200a 2a74     .,...*.'..... t*
4400d8f0:	2c7b a9c7 9d5b 2b77 28ca a7c3 1f13 9987     {,..[.w+.(......
4400d900:	a0dd 2651 9842 a93e 236c 29db 2bf9 2342     ..Q&B.>.l#.).+B#
4400d910:	a9a0 299c a5d1 a0c3 acef b16c afdd 2e27     ...)......l...'.
4400d920:	2050 a88a 2614 23e5 2f72 28b1 a65f 2284     P ...&.#r/.(_.."
4400d930:	2d42 25d1 96fd 2081 2517 2c9f 2970 2c8a     B-.%... .%.,p).,
4400d940:	aa5d a8d9 2c2a a4f7 219d 2737 99a6 a560     ]...*,...!7'..`.
4400d950:	256c a548 a6a5 a38d b033 aa1e ac24 245f     l%H.....3...$._$
4400d960:	2546 2a78 24b4 a87e a8d8 2d94 2d04 2849     F%x*.$~....-.-I(
4400d970:	a6dd acb0 a7d4 26cf a2aa 9ca6 2551 2ad9     .......&....Q%.*
4400d980:	2318 a3cb 2b2f 2af2 2929 a8af 2a40 244b     .#../+.*))..@*K$
4400d990:	26ff aa5e 2369 9912 9cd1 2721 a952 254b     .&^.i#....!'R.K%
4400d9a0:	2009 24b4 281e 2274 2c93 2ad7 2934 a6a8     . .$.(t".,.*4)..
4400d9b0:	27a4 2d29 2c1b 2a39 2c0d 2b71 2b30 2cfd     .')-.,9*.,q+0+.,
4400d9c0:	1d6e 21cf 24f3 ad03 9a22 1f93 258c acd9     n..!.$.."....%..
4400d9d0:	a467 a58f 2c3d 2c3a a057 9aff 25cb a546     g...=,:,W....%F.
4400d9e0:	2823 1811 2cd1 2f4c 2aea 249c a90b 2bf8     #(...,L/.*.$...+
4400d9f0:	9f7a abad 21ff aa47 acf0 a725 a8fa 243e     z....!G...%...>$
4400da00:	1f6c 23d9 afe9 2df4 2ee3 ab34 24d9 2632     l..#...-..4..$2&
4400da10:	93a0 2785 2cf1 2bfb a541 26c9 2655 22f9     ...'.,.+A..&U&."
4400da20:	28f6 2989 216f adcb 243a a3f5 2a50 a09c     .(.)o!..:$..P*..
4400da30:	2147 a0cd 281a 2a27 2852 9ec4 a5c1 2b8a     G!...('*R(.....+
4400da40:	a915 252b 274f a5d2 a10c ac16 a02b 288c     ..+%O'......+..(
4400da50:	21cd 2004 aa2c 2548 1bd8 9de4 29b8 9ff0     .!. ,.H%.....)..
4400da60:	24d7 9223 27ad 2591 29fb 2973 a237 2afc     .$#..'.%.)s)7..*
4400da70:	2a18 2619 292b 286a 2da8 a5e4 a076 1c0e     .*.&+)j(.-..v...
4400da80:	2be0 2175 a6af ad67 a3a9 a039 273d ac3f     .+u!..g...9.='?.
4400da90:	ac70 9f0f 28d4 a996 2359 267f aa4c a848     p....(..Y#.&L.H.
4400daa0:	94ea 2c47 32b8 3040 2d45 2928 24e4 2caf     ..G,.2@0E-().$.,
4400dab0:	2e52 27ea abb9 9fff 30de 2893 2556 25c5     R..'.....0.(V%.%
4400dac0:	a9d1 2fed 2aa4 2c4d 2c9a a50c 2cb0 2972     .../.*M,.,...,r)
4400dad0:	a19f 1f61 a288 a22d a53a a79c acde ac56     ..a...-.:.....V.
4400dae0:	acde af60 ad65 294f a7a2 af8f ac0a 278c     ..`.e.O).......'
4400daf0:	1f22 0f7c a26c a9b8 2c3b 1f40 a889 260b     ".|.l...;,@....&
4400db00:	a57b 253a a8d3 af24 a856 aa5a a05e 2a22     {.:%..$.V.Z.^."*
4400db10:	a826 aa71 a7f1 1d54 2ccd aef9 af24 af08     &.q...T..,..$...
4400db20:	1d9f a48e b00b a1ae aa99 2a21 ad66 b18c     ..........!*f...
4400db30:	1f54 a9b1 2c83 a980 aba0 21b7 2e70 2f00     T....,.....!p../
4400db40:	2c62 2631 2a4f 2e00 2b1a 23b7 ab3e 9185     b,1&O*...+.#>...
4400db50:	2895 2b8b 296a 9891 ac23 aa9a 24c6 2c76     .(.+j)..#....$v,
4400db60:	3084 298c 2857 a24a 2c9e 2a67 2051 1959     .0.)W(J..,g*Q Y.
4400db70:	9c6b 2bb9 a947 ad9d ae18 286b 28b3 0f56     k..+G.....k(.(V.
4400db80:	aa36 ad85 21d4 2900 a665 27ea a89a 25c3     6....!.)e..'...%
4400db90:	2819 9c9b 2611 2980 abaf a866 2887 25c2     .(...&.)..f..(.%
4400dba0:	2c84 2daf 2c62 a12e ada7 adc6 9c54 1bc8     .,.-b,......T...
4400dbb0:	2416 b2ef ace5 a988 a920 aa6d ae12 a3c6     .$...... .m.....
4400dbc0:	24d2 260d ac76 2d1f 2b4a 1d87 9a1d 2c99     .$.&v..-J+.....,
4400dbd0:	30f6 2fb5 2f00 21fc a5fb 313c 2be6 2a75     .0././.!..<1.+u*
4400dbe0:	2805 acfb 2e74 26f1 208d 1479 a7db aa37     .(..t..&. y...7.
4400dbf0:	2ee8 2606 2a66 2dcb 28a9 a45c 2906 9b1d     ...&f*.-.(\..)..
4400dc00:	2893 29df a1a3 a50f 0258 ab25 2913 9ff4     .(.)....X.%..)..
4400dc10:	214c aa6f 1abd 2271 2806 a964 a5f5 a85c     L!o...q".(d...\.
4400dc20:	2591 2651 21ad a605 a8f1 203b 95cf 293e     .%Q&.!....; ..>)
4400dc30:	98d8 2881 a60c 2b56 26d6 2ab9 2b75 afbe     ...(..V+.&.*u+..
4400dc40:	1db2 a40f a7d6 2581 afcd a7ee a2a5 2ad6     .......%.......*
4400dc50:	a529 ad60 a601 2868 a71f ad87 2b8a 2c13     ).`...h(.....+.,
4400dc60:	2a49 2549 2923 15a2 2a73 ad21 b110 b0f3     I*I%#)..s*!.....
4400dc70:	9018 202e 2450 ad26 2b23 2208 2d07 2864     ... P$&.#+.".-d(
4400dc80:	2c0e a602 260a 2de2 a75d 21d7 2ab6 246a     .,...&.-]..!.*j$
4400dc90:	2b84 9b20 2a24 2957 2986 2b3c 280a a941     .+ .$*W).)<+.(A.
4400dca0:	25a8 a99d a39a a808 a7d7 9d07 aca7 aa83     .%..............
4400dcb0:	24c8 2a41 2b3a ac5b a996 a4ff 2b8e 2835     .$A*:+[......+5(
4400dcc0:	21a6 1b06 a5a1 2854 a57a ac41 a901 2256     .!....T(z.A...V"
4400dcd0:	a44f add4 a562 1762 2775 a8be 9ecb ab39     O...b.b.u'....9.
4400dce0:	ac5a a514 2235 2c34 a63f ac6c aadd 2c92     Z...5"4,?.l....,
4400dcf0:	2e4f 24b5 a9d5 a444 a21b 2342 a3c4 2901     O..$..D...B#...)
4400dd00:	235c 9215 ad23 2e34 a0a3 2dcc 1e1c 157d     \#..#.4....-..}.
4400dd10:	2940 a489 9865 9b2b 2b2a 297b 27fc acaa     @)..e.+.*+{).'..
4400dd20:	2be1 2b80 abd7 a95b ae8f 2e68 2d42 2ebe     .+.+..[...h.B-..
4400dd30:	1e15 2c05 26e7 1f6b 2b0b 235c 28ee 21f3     ...,.&k..+\#.(.!
4400dd40:	aaf5 ad5f aac3 13b7 2ab2 236a ac98 a669     .._......*j#..i.
4400dd50:	2046 1253 250f a3c7 2a1c 173b a8d7 2447     F S..%...*;...G$
4400dd60:	954c a4db 2d40 28fa 2d61 1b36 a718 2955     L...@-.(a-6...U)
4400dd70:	29d5 1f02 a741 2806 26c9 9f7e a9a0 29e6     .)..A..(.&~....)
4400dd80:	2c6a 1f3b a1ed a776 2b3a 2bee 2af5 a801     j,;...v.:+.+.*..
4400dd90:	208f ae24 aeac 2331 1209 2a45 a491 a605     . $...1#..E*....
4400dda0:	a906 2e33 2819 9037 ab7c 2575 23ad a960     ..3..(7.|.u%.#`.
4400ddb0:	a2f8 2a10 9407 283f a97e 1ea2 2527 20d5     ...*..?(~...'%. 
4400ddc0:	a47f a4f9 325b 2c1a 9d09 adab b06c 2f5a     ....[2.,....l.Z/
4400ddd0:	2b75 a88d a611 a978 a936 ac63 a77f 278c     u+....x.6.c....'
4400dde0:	2c53 2aac 9b7d 2bc4 2b1d a3ce 30c1 2bfd     S,.*}..+.+...0.+
4400ddf0:	1ba2 2873 28ea a961 ab30 ac55 adc3 a781     ..s(.(a.0.U.....
4400de00:	9fa8 a955 a89d 9a37 2d2e 9305 9ede ae9d     ..U...7..-......
4400de10:	2816 1d9d a9cc 2038 a98e 2a95 2a71 a25c     .(....8 ...*q*\.
4400de20:	224c a88b 29a3 2cb7 af5d ae60 ac69 af34     L"...).,].`.i.4.
4400de30:	ac0e a003 a483 aad9 a667 31b0 26fb 1886     ........g..1.&..
4400de40:	aedf aa63 2f03 2af0 ac19 ac12 1f4d 2ffa     ..c../.*....M../
4400de50:	1e70 a46f aaf5 2c10 3403 9f12 25a3 2ee3     p.o....,.4...%..
4400de60:	2a8b 2fdd a3b3 a978 24b9 2a5d a436 a77b     .*./..x..$]*6.{.
4400de70:	a1ba 2e02 2a4a 20d1 2a4a 28c2 230f 24b8     ....J*. J*.(.#.$
4400de80:	9d4a 992d 2b26 9c0c 9460 a97f ac22 ab3d     J.-.&+..`...".=.
4400de90:	981b a299 2cf2 aaa4 9b53 a59c 2347 293b     .....,..S...G#;)
4400dea0:	27e3 21ad 9c70 9f87 a4f3 2963 a8cc 23fb     .'.!p.....c)...#
4400deb0:	26ef 27bc 23e7 a00e 2aa7 2af2 a1ca a569     .&.'.#...*.*..i.
4400dec0:	ae61 b09d a971 20c9 9c21 ace5 9bcd 2c40     a...q.. !.....@,
4400ded0:	29b0 abc3 ac2b a073 27e6 28a1 a268 aa18     .)..+.s..'.(h...
4400dee0:	9e0f 29c2 a888 2565 a96c a276 a47b a846     ...)..e%l.v.{.F.
4400def0:	283d 2cb4 2cf2 2d0b ab3e 2052 2c86 2b77     =(.,.,.->.R .,w+
4400df00:	a8d2 a2f5 1c73 91a5 2c69 9cd0 a76b 2605     ....s...i,..k..&
4400df10:	2aa9 2bc5 9d0e 25a1 2d6d 2c44 2179 a9c3     .*.+...%m-D,y!..
4400df20:	202c 2a94 2d0d 29d0 2725 a8cf 2c74 2c51     , .*.-.)%'..t,Q,
4400df30:	2163 2947 2837 aa38 28cd 283d aa81 2a40     c!G)7(8..(=(..@*
4400df40:	2e5c 19df abee 26bd 23b6 29ca 2226 a7be     \......&.#.)&"..
4400df50:	25d9 26cc ac4f ac2b ac5e a72d 1933 afaf     .%.&O.+.^.-.3...
4400df60:	a077 18da 2d8c 2982 aca9 aa8e 245e 2409     w....-.)....^$.$
4400df70:	2085 1dac 25a8 ab28 293a a1e4 1f5f aab1     . ...%(.:).._...
4400df80:	a556 9f74 26a8 291c 2ad5 24f7 ac1c b144     V.t..&.).*.$..D.
4400df90:	28c0 2922 2c86 acc8 b1f4 9e88 21b1 2d53     .(").,.......!S-
4400dfa0:	a89f 2935 a6e6 27a7 a8ef a7ed 1819 99d2     ..5)...'........
4400dfb0:	a3e1 a85c 288b 2b73 20f5 a53e 9dc4 2a90     ..\..(s+. >....*
4400dfc0:	2921 aa4f 1347 2042 a5e3 29d0 223b 9f39     !)O.G.B ...);"9.
4400dfd0:	9c2f 2b79 29ae 2751 a43a 25c8 284e 2836     /.y+.)Q':..%N(6(
4400dfe0:	2c26 9c3d a121 2764 2c23 21cd a843 2a11     &,=.!.d'#,.!C..*
4400dff0:	2e2d 2d46 295f 2c03 2a66 2ae9 a925 9d2a     -.F-_).,f*.*%.*.
4400e000:	28f8 2415 2882 a8ac 2b11 2ab9 2c5d a8ec     .(.$.(...+.*],..
4400e010:	2604 24f2 291f 2a8b a6aa a885 29ed 1c44     .&.$.).*.....)D.
4400e020:	2361 2b0c 2c19 141a aa24 ac82 ab0d 2136     a#.+.,..$.....6!
4400e030:	2b37 1ec8 2553 2362 a505 2945 2d46 2939     7+..S%b#..E)F-9)
4400e040:	28da aa02 3203 2fbf 220d a2d4 2818 a6aa     .(...2./."...(..
4400e050:	a66a 2976 2c80 284a 2b17 1d76 9acd 2b74     j.v).,J(.+v...t+
4400e060:	ab30 2a8a 21ed 2ae4 2b87 a3f3 1496 9d9b     0..*.!.*.+......
4400e070:	a057 0f50 27b3 2c40 aafa 20fc 9fa4 9117     W.P..'@,... ....
4400e080:	2537 a621 a0ef a86c 23bb a672 26a9 a402     7%!...l..#r..&..
4400e090:	aaf7 aacc 2521 a991 227d 9826 25a1 2a42     ....!%..}"&..%B*
4400e0a0:	a406 2571 ab4a a697 248f 2677 a389 2723     ..q%J....$w&..#'
4400e0b0:	243a a92e a7dc 255b 8f32 1468 9e5c a92e     :$....[%2.h.\...
4400e0c0:	ab3b abe2 a518 22b8 272f a9dd 255f 2a43     ;......"/'.._%C*
4400e0d0:	22cf aa06 92b6 9fd0 1e05 2514 a819 ab05     .".........%....
4400e0e0:	a449 25a1 a5b3 9f64 a72f 2629 a409 2418     I..%..d./.)&...$
4400e0f0:	a99b aa07 29d8 214b a57a ad41 a50a 2a61     .....)K!z.A...a*
4400e100:	2694 a97d ac18 a9b1 aa41 a92a a83f 20be     .&}.....A.*.?.. 
4400e110:	28be a9c9 a93c a905 ab28 2297 aa53 ab86     .(..<...(.."S...
4400e120:	ac63 19a6 a49d a496 ad15 ac53 2171 9c40     c.........S.q!@.
4400e130:	a97b 286f a60e a32d ac16 167f 2bd5 a9ff     {.o(..-......+..
4400e140:	a46c ad01 1e2b 2789 a74b 1c37 a824 29d3     l...+..'K.7.$..)
4400e150:	173f a608 21d2 a57a 1e92 abab 26e9 2061     ?....!z......&a 
4400e160:	ab98 aacf 291f a833 a462 1859 a303 9ed7     .....)3.b.Y.....
4400e170:	ac10 a864 accb ab41 206b a2b8 25f9 a5b0     ..d...A.k ...%..
4400e180:	a615 2a59 a35e aa31 a6b3 a922 9a64 a6ab     ..Y*^.1...".d...
4400e190:	a862 ab54 a8e6 a121 a861 aae0 ac95 97ba     b.T...!.a.......
4400e1a0:	ab23 9f59 24c2 a751 296e 2002 210c ac88     #.Y..$Q.n). .!..
4400e1b0:	ab42 aa4b a988 abac 2455 26aa a95c a907     B.K.....U$.&\...
4400e1c0:	214a 19b0 a9b3 8c4e a8f1 26e8 213f 28b3     J!....N....&?!.(
4400e1d0:	2176 0dc3 21d9 a9f3 aa81 a855 ac48 2569     v!...!....U.H.i%
4400e1e0:	2b20 ad36 2522 a8e4 228a 277e aa7c a6e4      +6."%..."~'|...
4400e1f0:	ac81 1c44 a9f3 29e4 a865 2152 a830 ac9d     ..D....)e.R!0...
4400e200:	a990 9c99 a45d 272a a74b a515 98ce a87b     ....].*'K.....{.
4400e210:	abfe 9d4b a55f 9f4a 2afa ac77 95fd 24ae     ..K._.J..*w....$
4400e220:	a4a8 2aba ac6e 2159 ab94 a83b 25a7 a548     ...*n.Y!..;..%H.
4400e230:	a8d8 acd5 ac93 255e 2573 a8e2 12e3 2813     ......^%s%.....(
4400e240:	1233 a80a ac5d 9c4e a487 228d 219d a8df     3...].N....".!..
4400e250:	a9db a494 27bd ac8d a3fc 285c 2848 aa26     .....'....\(H(&.
4400e260:	a892 ac2f a717 1235 aa32 2ac0 a923 a149     ../...5.2..*#.I.
4400e270:	a84a a987 a52c ab55 a7d7 a8ed 1ec8 a0f3     J...,.U.........
4400e280:	a839 a594 2497 9d3c 10c4 213e 2906 a028     9....$<...>!.)(.
4400e290:	218e ac20 247d 21be ac1d 9ed0 2887 abad     .! .}$.!.....(..
4400e2a0:	aab3 acfe aa04 a73d a5b5 9fe0 266f a7a6     ......=.....o&..
4400e2b0:	227d abe7 a5db 2b33 2207 967e a6d7 a124     }"....3+."~...$.
4400e2c0:	ab88 a2ab 9765 1dd2 a921 1fba 2532 2614     ....e...!...2%.&
4400e2d0:	25d9 a8f3 2452 a5e1 a870 a9da a0fe a961     .%..R$..p.....a.
4400e2e0:	a02e a8ab a906 9bf1 a8a7 20b4 aa29 a811     ........... )...
4400e2f0:	2415 a44a 933c 9ebd a658 26fb 22d3 ac5a     .$J.<...X..&."Z.
4400e300:	a84f 227a 984f 24f1 1cbf a95d a916 ab14     O.z"O..$..].....
4400e310:	ab47 a563 aabe ac84 a596 a1f5 a640 a818     G.c.........@...
4400e320:	ac02 a9e8 280e a696 2c02 a7a5 a6b0 a149     .....(...,....I.
4400e330:	aada 23be 063e 9cd5 2298 ac57 96ef 1893     ...#>...."W.....
4400e340:	abda a8b9 290e a4be a84b a976 9e36 a811     .....)..K.v.6...
4400e350:	2700 a7e2 a951 215d ac18 2650 2625 a308     .'..Q.]!..P&%&..
4400e360:	21f5 aa37 23bd a96e ab23 9b45 a97c 1e0b     .!7..#n.#.E.|...
4400e370:	a517 a87b a478 a6be 2343 2285 a9fd a9b9     ..{.x...C#."....
4400e380:	2b18 a779 aa6d 1ce5 a17e 2918 a926 2837     .+y.m...~..)&.7(
4400e390:	a4af aa50 a719 2446 28c6 aac4 a4c8 a8d9     ..P...F$.(......
4400e3a0:	2716 a6a9 8ad9 a616 16be a887 2726 abfb     .'..........&'..
4400e3b0:	1c5e a4de 213f 28e2 2499 21e6 a745 a886     ^...?!.(.$.!E...
4400e3c0:	a45b aad5 a53c 2a60 ab5a 2823 a470 ab16     [...<.`*Z.#(p...
4400e3d0:	a0d1 24ef a9e3 a002 a52d 216c 1920 a520     ...$....-.l! . .
4400e3e0:	26e7 a751 a92f 22b3 2675 9faf aa31 29b2     .&Q./.."u&..1..)
4400e3f0:	a7d5 a83a 24b1 aa3c a3a2 2337 2084 2552     ..:..$<...7#. R%
4400e400:	aa8b a7ab ab67 a5d2 2915 2843 9a94 27a3     ....g....)C(...'
4400e410:	a044 17c5 a06b a66a ab81 a992 2736 aa11     D...k.j.....6'..
4400e420:	a59b 135d 2333 1957 a93e a9c7 a98f a1d1     ..].3#W.>.......
4400e430:	a0b7 ab5b 8461 a968 a9dc 2652 2469 a81b     ..[.a.h...R&i$..
4400e440:	29cf a19c 253e ac21 2461 9101 a00a a105     .)..>%!.a$......
4400e450:	9a64 a897 ab94 abcc a6ba 14dd 1dbf 16d4     d...............
4400e460:	a40f 1c8b ab7f 20f2 2bd4 95d0 a85c a578     ....... .+..\.x.
4400e470:	2a86 28da 19f6 a8d5 26a6 96d9 2454 a8bb     .*.(.....&..T$..
4400e480:	a201 28e3 ab2a 234b 2866 a806 a166 26cf     ...(*.K#f(..f..&
4400e490:	2417 a955 9bec 2807 a9fa a85b aa2b a867     .$U....(..[.+.g.
4400e4a0:	1960 a2c4 a377 22c4 ab7b ab88 9f0a ac2f     `...w.."{...../.
4400e4b0:	2843 26f4 ab49 9416 a4c1 9d49 25ff a98e     C(.&I.....I..%..
4400e4c0:	26df a93a 237a 22b3 a081 a9db a16d a564     .&:.z#."....m.d.
4400e4d0:	a498 20a0 a984 a6d0 a4a4 20c9 28b6 ac33     ... ....... .(3.
4400e4e0:	a8c3 2774 a1af a07f a972 2924 9c52 a60c     ..t'....r.$)R...
4400e4f0:	2042 2680 28b2 a56b aa41 24d7 28de a964     B .&.(k.A..$.(d.
4400e500:	28f4 28bd 261a a8d9 2871 a42f a05f abaf     .(.(.&..q(/._...
4400e510:	2891 1d55 2540 282e 1d4b 9a3e a61b 261c     .(U.@%.(K.>....&
4400e520:	ab0d a92c 2791 a687 15e3 9940 9cfe 1f24     ..,..'....@...$.
4400e530:	a967 2a53 2852 a809 a5d0 2823 271e 2818     g.S*R(....#(.'.(
4400e540:	a6c6 a834 9fcd a74b 2639 a47e a8cb 24f3     ..4...K.9&~....$
4400e550:	ab84 26d9 22f2 a926 a984 2827 a229 a885     ...&."&...'()...
4400e560:	a872 a872 2965 20ad ac0a a336 a818 24e0     r.r.e). ..6....$
4400e570:	a7fc a53c 241d aa41 1a41 ab7b a748 1fba     ..<..$A.A.{.H...
4400e580:	231e a751 ab33 a1f0 9c8b a901 a6ba a0de     .#Q.3...........
4400e590:	a81d 2654 24eb 2638 a941 abfc 9c88 a9a0     ..T&.$8&A.......
4400e5a0:	25ee 9d37 1ddb a839 a85b 2570 a10d 1b35     .%7...9.[.p%..5.
4400e5b0:	993c aa89 23fa 285b a750 2802 2108 9407     <....#[(P..(.!..
4400e5c0:	a8a4 a9ba a92a 8f4c 294f 274f 234e ab0e     ....*.L.O)O'N#..
4400e5d0:	a234 23ef a8dc 1cb8 a14e a751 2224 2461     4..#....N.Q.$"a$
4400e5e0:	9db5 28c8 a89d a27d a819 a5f0 a2ff a8a0     ...(..}.........
4400e5f0:	2513 a9c9 2a00 aabd 26d7 a0c0 15ef ab9a     .%...*...&......
4400e600:	a27f 19fb 2228 a340 a25d ab7c 2816 a1a5     ....("@.].|..(..
4400e610:	a8b5 22c9 2859 29d1 a0f7 ab44 a4b4 27a4     ..."Y(.)..D....'
4400e620:	abb4 9cd8 aa26 233f 2770 283b a37f 9ddf     ....&.?#p';(....
4400e630:	1568 a807 2014 a9ce 2119 a956 2801 2b35     h.... ...!V..(5+
4400e640:	a095 2809 a667 2532 ab44 ab05 a0a3 24e3     ...(g.2%D......$
4400e650:	9c1f a1b9 a4d6 a113 a50e 27cb a895 2671     ...........'..q&
4400e660:	2b66 a932 aba6 2977 ab62 a246 a0bd a6d2     f+2...w)b.F.....
4400e670:	a6a3 28ed 2bec 9b83 9f1b 23f4 a85d 2426     ...(.+.....#].&$
4400e680:	a9a8 9b9a 2ae4 a8d6 a3b5 9dbc a0fe 1cb6     .....*..........
4400e690:	251a 1c66 a145 235f 2727 9c29 a835 a896     .%f.E._#'').5...
4400e6a0:	a591 2975 1ecb a6aa a53f 2bb2 1b44 a855     ..u)....?..+D.U.
4400e6b0:	241b 2629 a82b 24f0 250a a3dd a856 2504     .$)&+..$.%..V..%
4400e6c0:	aa57 a98b 2059 a4ca 27e1 260d 272f 23e2     W...Y ...'.&/'.#
4400e6d0:	25ee 2682 aaa0 ab53 aac6 20bb 288d a1c8     .%.&..S.... .(..
4400e6e0:	a98a ab28 a983 ab21 a90e 221d 27a1 9cdf     ..(...!....".'..
4400e6f0:	1f08 a92b 2765 ab4f 26ac 2293 940e ab21     ..+.e'O..&."..!.
4400e700:	a25b a8d8 9fdd aa06 a977 aace a4ba 21d2     [.......w......!
4400e710:	26a0 a9b4 a8c4 a1de abee 19af a15c a928     .&..........\.(.
4400e720:	2287 a730 a082 ab38 9d17 a553 9a50 aaf1     ."0...8...S.P...
4400e730:	aa3a a6cc a924 26d6 a4b8 a564 a647 a9c4     :...$..&..d.G...
4400e740:	a839 a8c3 1c50 26f4 aa0e a589 a991 a474     9...P..&......t.
4400e750:	9d01 2594 247c a811 2803 14fb a87d 2219     ...%|$...(..}.."
4400e760:	2420 a9a0 a742 1be9 a7ce a80b 2382 205b      $..B........#[ 
4400e770:	a911 a8dc a612 aa34 984b a573 a3b3 aa79     ......4.K.s...y.
4400e780:	206f a6f4 a856 a987 a28a 9428 a450 289a     o ..V.....(.P..(
4400e790:	a4a1 a42f a464 1051 a8f4 a910 aadb 271c     ../.d.Q........'
4400e7a0:	a884 a869 a8dc a476 2066 a964 24d9 a9f3     ..i...v.f d..$..
4400e7b0:	2776 162a 2a5d 281b a848 a05d a09e 21bc     v'*.]*.(H.]....!
4400e7c0:	2287 a29d a312 947e 2886 1cdb a1cd a804     ."....~..(......
4400e7d0:	a340 a4e2 abc9 a98b 1fe5 27f2 aa9b abd9     @..........'....
4400e7e0:	ab68 252c 24a4 a84d 9569 a96d 11b6 a3f7     h.,%.$M.i.m.....
4400e7f0:	a565 283f a0bb 293b a7e2 9b8b a322 9ce5     e.?(..;)...."...
4400e800:	a970 27ef 28b5 a9da 262d 2831 279c 1c01     p..'.(..-&1(.'..
4400e810:	1d14 2432 aa3b a9a8 239e 2826 244a a794     ..2$;....#&(J$..
4400e820:	a489 9169 20d2 a831 aa12 a536 2476 a928     ..i.. 1...6.v$(.
4400e830:	a5ca aa37 283f aaad a297 a53c a866 a4e4     ..7.?(....<.f...
4400e840:	a9d7 a9ca a514 2437 2533 a744 a71c 26f3     ......7$3%D....&
4400e850:	9bb6 a717 2018 2990 289b 25a6 a569 aa3a     ..... .).(.%i.:.
4400e860:	a492 1e08 a7ec 1239 a47d 2239 19a9 1109     ......9.}.9"....
4400e870:	ab17 a65f aa89 a81f 24eb a7a9 245b a9f9     .._......$..[$..
4400e880:	20a3 a464 a908 279e aa04 abd1 96c1 2190     . d....'.......!
4400e890:	a50d 224e 2673 abd1 aa71 a203 9cb0 aa81     ..N"s&..q.......
4400e8a0:	248d a202 2609 ab88 9fd7 1113 a7c2 a97f     .$...&..........
4400e8b0:	abd0 a152 a828 2727 063e a1f5 a592 2439     ..R.(.''>.....9$
4400e8c0:	ab1d 28a3 a950 aa3e 26be a53e 1d53 2492     ...(P.>..&>.S..$
4400e8d0:	a9e8 aa3b a712 a75f ac03 ab88 a8e1 a9d6     ..;..._.........
4400e8e0:	2500 26fa aa58 9d9b 2095 a6cb aa7c a28b     .%.&X.... ..|...
4400e8f0:	abc4 944b 2789 1b42 2717 981a 9cc3 24d0     ..K..'B..'.....$
4400e900:	ab96 a6a6 aa80 28b1 27d9 a9bf 2440 20fc     .......(.'..@$. 
4400e910:	2073 2820 a8c1 9e11 ab31 ab87 2895 2080     s  (....1....(. 
4400e920:	9f7b 28ac 28ab 8f65 9f40 27dd 226a 2667     {..(.(e.@..'j"g&
4400e930:	1372 a0e4 a9b9 9ed7 24d1 a993 a60d 9f49     r........$....I.
4400e940:	209a 98be a9f7 262b 2664 a5c5 a50d 9241     . ....+&d&....A.
4400e950:	aa67 a77e a640 268b aa14 9afc a8ec a9fd     g.~.@..&........
4400e960:	1465 a84f abe0 9eb9 a99d 2400 aa33 aa4b     e.O........$3.K.
4400e970:	a4db a2f3 ab1c 2065 9fdc a417 a699 a516     ......e ........
4400e980:	a84d a8c5 a908 280b 209f aaa4 a458 a979     M......(. ..X.y.
4400e990:	2404 9c3b a9ae a84a 2808 9c19 a5cb 9a2a     .$;...J..(....*.
4400e9a0:	a95e 9f58 29db a903 a37e 226c ab62 26af     ^.X..)..~.l"b..&
4400e9b0:	a29f 9836 aacf aa5b 0fc1 abc8 aa4b 128c     ..6...[.....K...
4400e9c0:	a342 aa07 a8b2 240d aabb a44c 2841 a1ff     B......$..L.A(..
4400e9d0:	a901 2443 263b 96b0 a9b3 a5c3 1800 a85a     ..C$;&........Z.
4400e9e0:	aab9 aa10 2703 a833 ac02 ab57 a482 220c     .....'3...W...."
4400e9f0:	2899 a6e9 aab2 9f8b 2697 2e67 a04d a737     .(.......&g.M.7.
4400ea00:	a778 2d8d 2d00 2441 2c1b 2a54 2817 2da1     x..-.-A$.,T*.(.-
4400ea10:	3016 ad0b 24cf 1937 188b 9c57 a5b4 28f4     .0...$7...W....(
4400ea20:	2a6a a591 aeac aecc a511 2c8a ae34 ada9     j*.........,4...
4400ea30:	a864 aaec 3031 22d2 1c65 2c1b 2264 a919     d...10."e..,d"..
4400ea40:	22d5 2e32 3177 9e72 a7b3 2681 284d 29a9     ."2.w1r....&M(.)
4400ea50:	288d ade2 24b5 aa62 2c85 22d8 9eac 2f6f     .(...$b..,."..o/
4400ea60:	2c1e a725 27c7 2e98 ac0c ac45 a841 9de4     .,%..'....E.A...
4400ea70:	27f8 1166 2d6f ac2a aebe 88c3 acf0 acc4     .'f.o-*.........
4400ea80:	ad32 ac53 2965 27a6 ad76 af42 a820 2a31     2.S.e).'v.B. .1*
4400ea90:	ad17 a8c3 2511 a984 a4c0 af94 21b5 a189     .....%.......!..
4400eaa0:	acc1 a9f6 aeb3 2d86 18f1 9bfb a9cd 234f     .......-......O#
4400eab0:	ad43 ac75 1eb6 a179 a462 ac02 ad00 23e0     C.u...y.b......#
4400eac0:	2142 b03a aec9 1d3a 2c62 acf0 acea ae08     B!:...:.b,......
4400ead0:	228d a93a afb0 ae8f 24a7 19d1 2743 295f     .":......$..C'_)
4400eae0:	2860 a99e a703 2715 23bd ab31 ae74 ac19     `(.....'.#1.t...
4400eaf0:	2ca8 2870 2dac 2c76 2428 acaa 2ba7 2c64     .,p(.-v,($...+d,
4400eb00:	28b7 2cee 9db7 2d39 2867 2db1 2aa2 28a8     .(.,..9-g(.-.*.(
4400eb10:	1bad 2c7d ae43 a768 aba1 98d0 22e5 a8ed     ..},C.h......"..
4400eb20:	aab9 a8f4 228f 2cbb 26de 24f7 2cdf a914     .....".,.&.$.,..
4400eb30:	26b6 2d6f 9df4 2992 1eb8 2dce 2f5c 2bbb     .&o-...)...-\/.+
4400eb40:	2594 2697 2c90 29de aa11 b18b 2839 1f39     .%.&.,.)....9(9.
4400eb50:	26e1 b163 ad8d 993c a558 a9fa b096 ab87     .&c...<.X.......
4400eb60:	2b4f ad78 27cd a8ed a8f7 a588 21e6 2e81     O+x..'.......!..
4400eb70:	279e 2d64 27b6 29b9 a82d 2eaf 2713 ab2a     .'d-.'.)-....'*.
4400eb80:	aff6 b026 a4d9 25a9 2846 267e a967 aef1     ..&....%F(~&g...
4400eb90:	9c2b 25ea aae2 ab0f 2c05 2d65 25da 2c57     +..%.....,e-.%W,
4400eba0:	2439 2f4d 2f0c 2a18 2d54 8dad a083 ad63     9$M/./.*T-....c.
4400ebb0:	ab9f 28b7 2616 a64e 25ee 2e3a 1743 ab2e     ...(.&N..%:.C...
4400ebc0:	a476 a6c3 2aca aad4 a491 2b2c 2ce8 2d3f     v....*....,+.,?-
4400ebd0:	2938 2c5c 2cb1 ab44 2cbc 2e4b 2603 af8b     8)\,.,D..,K..&..
4400ebe0:	accf 2a75 2a80 acc4 adc3 af58 293b ac54     ..u*.*....X.;)T.
4400ebf0:	adf4 ac9e 1dc1 2595 a2d1 2c37 1ca1 1699     .......%..7,....
4400ec00:	2a1a 2589 2ec5 2dbc 2f74 a929 aca4 b387     .*.%...-t/).....
4400ec10:	290d 2c44 a2f4 a5e0 2234 9cc9 29b3 2bb8     .)D,....4"...).+
4400ec20:	2a2f a83a 1d17 2efb 2b6d ad99 aeb3 a369     /*:.....m+....i.
4400ec30:	1f7a 2abf 2538 9c91 ab11 2583 28c1 272b     z..*8%.....%.(+'
4400ec40:	28e2 acc7 2065 1b0a 241b ac23 acdd aecb     .(..e ...$#.....
4400ec50:	20aa 280d 278d acb5 a7e2 28a8 2cfa 2a20     . .(.'.....(., *
4400ec60:	2a62 2bb8 2dc6 29ab 2f27 a5b6 240f 2ac9     b*.+.-.)'/...$.*
4400ec70:	27f0 a15e a4e7 2835 2dd9 23e4 a7f0 a879     .'^...5(.-.#..y.
4400ec80:	a4db 9f01 2d8a 2b7f 28b0 af8a 9966 2807     .....-.+.(..f..(
4400ec90:	28ae 24b3 2cd2 2d77 2a4a 233b ab41 abc5     .(.$.,w-J*;#A...
4400eca0:	a4ce a555 ac5c aed7 a9e8 2f7a 2c20 2c89     ..U.\.....z/ ,.,
4400ecb0:	2e55 28a1 aa33 229d 2979 2cb1 27fb a90c     U..(3.."y).,.'..
4400ecc0:	311f 2d32 2d29 2b4c a463 2949 3024 1d98     .12-)-L+c.I)$0..
4400ecd0:	2ac3 2839 ac22 a733 266b 28e5 29f8 af15     .*9(".3.k&.(.)..
4400ece0:	aff7 aa4b 24ce 2f0a a3d1 1ac6 aa61 a487     ..K..$./....a...
4400ecf0:	28b7 a8ee acb3 2c9e 2a1a 2d33 1c2a 2f48     .(.....,.*3-*.H/
4400ed00:	9e86 a48e a82b a741 25a0 27c9 a889 a838     ....+.A..%.'..8.
4400ed10:	a1fd 285c a10d a9c5 ab33 288d a8f8 a9b3     ..\(....3..(....
4400ed20:	18fb a95c 278d 1b49 a5c1 24da 260f ab11     ..\..'I....$.&..
4400ed30:	a82c 9ddb 26d3 aa43 2593 2870 296c 28a8     ,....&C..%p(l).(
4400ed40:	a528 a05f aad2 9c04 28b4 220b a7f4 aafb     (._......(."....
4400ed50:	20be 22da 2861 9a87 a3ad 1a6d 20f3 2087     . ."a(....m.. . 
4400ed60:	2551 a268 aab4 a0f8 2760 a9d4 2635 a25d     Q%h.....`'..5&].
4400ed70:	a5f7 aaa2 287b ab2e 269c 286f 20ca a757     ....{(...&o(. W.
4400ed80:	a747 a8b3 abb3 22d6 275d a9ee 98c1 a3fb     G......"]'......
4400ed90:	25e0 a833 ab64 ab6a a949 9d8b 9ce5 297e     .%3.d.j.I.....~)
4400eda0:	9b51 19c5 26cc a633 a0da aa24 aa9b a991     Q....&3...$.....
4400edb0:	2860 a7aa a2af 97fd a694 aa34 a1b8 27c2     `(........4....'
4400edc0:	a82d 9c94 9f86 25e3 aa3a 9d06 a1af 19ce     -......%:.......
4400edd0:	a8b6 a62f 293c 9fd0 1bd9 a6af a336 21af     ../.<)......6..!
4400ede0:	a8b9 9db9 a1db a499 2676 2824 264e a86c     ........v&$(N&l.
4400edf0:	a490 a585 a81a 2732 a587 1cfb a825 99cb     ......2'....%...
4400ee00:	a952 16e0 a7d6 25fa 9ca8 aa35 ab8f 28af     R......%..5....(
4400ee10:	ab31 22e2 a9a5 a927 23ac a7d6 a7c6 a08f     1.."..'..#......
4400ee20:	a80c 2742 9d2d 20e4 ab5d 28b0 246a a64f     ..B'-.. ]..(j$O.
4400ee30:	a7de a2e8 aaf9 2444 a676 26b0 9d07 a658     ......D$v..&..X.
4400ee40:	28d0 9b2c 9fbd 28dd 9ec3 ab08 28fc 97c9     .(,....(.....(..
4400ee50:	aafb a7ac 27f3 1e76 a757 142b 2899 a632     .....'v.W.+..(2.
4400ee60:	97d4 27f7 a7e2 2765 2010 2992 a717 260c     ...'..e'. .)...&
4400ee70:	aa60 2302 a86c a461 22a0 2432 2151 a948     `..#l.a.."2$Q!H.
4400ee80:	a945 a61c 9f92 a87d 261e a420 2821 1cd7     E.....}..& .!(..
4400ee90:	aa26 a23a a884 1a5e 9df8 9f62 2087 249b     &.:...^...b.. .$
4400eea0:	aa5e a0c2 a7c1 283f a156 aa33 a55e a872     ^.....?(V.3.^.r.
4400eeb0:	a77e a958 239f a029 a963 24fb 2858 a46e     ~.X..#).c..$X(n.
4400eec0:	1f2b a4b1 a520 2251 268e a5ba 2a62 9cd3     +... .Q".&..b*..
4400eed0:	a19f aa7f a11a 2957 a570 a4b4 aaa5 a139     ......W)p.....9.
4400eee0:	a428 2691 26f3 9cb7 a981 22db a91b 2862     (..&.&....."..b(
4400eef0:	a992 26ca a72c 978a a648 2807 0c09 a8b4     ...&,...H..(....
4400ef00:	23c5 a922 a874 2678 1c7f a1ce a551 203a     .#".t.x&....Q.: 
4400ef10:	aa5b a56d a9c8 a69f 2887 a8ae a803 a608     [.m......(......
4400ef20:	a8ab a917 2876 a87a 25f3 a961 29f5 a9d9     ....v(z..%a..)..
4400ef30:	2014 20d1 a400 293e 2a13 1393 1ab3 2904     . . ..>).*.....)
4400ef40:	a83e a123 2633 96a7 a77f a6b0 047b 155e     >.#.3&......{.^.
4400ef50:	a3e4 aa2f a743 a714 a1fb 28b4 ab67 abb9     ../.C......(g...
4400ef60:	aa3d 2757 27ac aa48 2371 ab0c a873 aac4     =.W'.'H.q#..s...
4400ef70:	ab4b a9dd a162 a8b5 289c 23e9 2490 a052     K...b....(.#.$R.
4400ef80:	ab44 19db 13ad 1760 a02b 1b6a 283f 24dd     D.....`.+.j.?(.$
4400ef90:	a4f0 288f a9eb a541 a073 2895 ab88 a59b     ...(..A.s..(....
4400efa0:	2882 a1fd a833 a807 a9dd 228b a672 254c     .(..3......"r.L%
4400efb0:	2780 a3ab a5e3 19f8 20e8 a4f0 a368 a649     .'....... ..h.I.
4400efc0:	a9c2 9ec3 aad8 a8ba a527 9f6e ab5d a870     ........'.n.].p.
4400efd0:	1e8f 9e3d 1c8c a86b 277c 268a a889 2009     ..=...k.|'.&... 
4400efe0:	a9d7 9f34 2868 a00d a63c a522 9e0e a498     ..4.h(..<.".....
4400eff0:	1ed0 20d1 2542 2443 2977 28dc 2862 a5ac     ... B%C$w).(b(..
4400f000:	a483 28c8 ab6a a46a 2830 2916 a8ea a8dd     ...(j.j.0(.)....
4400f010:	a209 911b a689 0014 a7e4 2080 ab96 a85a     ........... ..Z.
4400f020:	a918 a9a6 ad6c aa62 a86c 1f19 aa1c 29a5     ....l.b.l......)
4400f030:	238c 2c6a 2678 20e6 2ac0 2c33 2e66 a6b6     .#j,x&. .*3,f...
4400f040:	2445 a732 a75c 1c64 a971 a927 2265 2315     E$2.\.d.q.'.e".#
4400f050:	ae30 1c7c 2e35 2767 ab12 add4 a496 a96d     0.|.5.g'......m.
4400f060:	ad83 a62a a893 222d 27d3 a9e2 2321 2d4b     ..*...-".'..!#K-
4400f070:	285a 270a 14a2 a144 a223 a9fa a593 1dcc     Z(.'..D.#.......
4400f080:	a614 ad18 af90 a756 28ed 29e2 2c52 abd6     ......V..(.)R,..
4400f090:	a225 abbd a9b8 ab3b a563 2981 2911 2001     %.....;.c..).). 
4400f0a0:	a5c0 adf7 aa0d ab2a 2b86 2d11 a1eb a6e6     ......*..+.-....
4400f0b0:	281c 8c0d 999b a090 2e7e 318a 31e0 3297     .(......~..1.1.2
4400f0c0:	28b5 2813 2d05 301f 2cdb 2c3d 2b73 2881     .(.(.-.0.,=,s+.(
4400f0d0:	28ce 319b a4f5 289d 2c77 a9d6 a53d 2032     .(.1...(w,..=.2 
4400f0e0:	2cd6 a4c6 ab92 ad74 2065 2ec0 305f 308c     .,....t.e .._0.0
4400f0f0:	3135 2c95 2776 2a02 2eee ac02 2a28 213c     51.,v'.*....(*<!
4400f100:	2e7f 2810 2c47 2dc8 2d47 a042 aeb5 9c20     ...(G,.-G-B... .
4400f110:	24b0 2db0 2ca0 ac8e aed7 220a ad07 b19e     .$.-.,....."....
4400f120:	b3c8 b2fb ad36 a953 ab52 adbe ac7e 2874     ....6.S.R...~.t(
4400f130:	287e ab01 aafe 2cdd 235c a803 234d a802     ~(.....,\#..M#..
4400f140:	2053 ac5f a7e7 a27a 29d6 ad2b 18fd a0bf     S _...z..)+.....
4400f150:	2bd2 aaa2 a4b1 24e5 a577 a226 ac80 26df     .+.....$w.&....&
4400f160:	9bbe 2b48 28c5 256a a784 a99d 9ad3 285a     ..H+.(j%......Z(
4400f170:	2aac 2057 249b 2549 9f1c 28df a6c6 2dac     .*W .$I%...(...-
4400f180:	323f 3223 30b3 2ca1 2dda 21be 2c0d a648     ?2#2.0.,.-.!.,H.
4400f190:	ac02 318a 2433 2498 a79f 295c 2913 298b     ...13$.$..\).).)
4400f1a0:	2ad9 2c42 2766 a404 2f0e 2c5d 2acd a0a8     .*B,f'.../],.*..
4400f1b0:	ad4a b0eb b23e b1bc 9cb8 b15f b2b7 b190     J...>....._.....
4400f1c0:	ac29 b03d aebf a30d a36d 290d 2a15 a52b     ).=.....m..).*+.
4400f1d0:	2433 2921 2c4b 2a38 991e ab38 2083 25f3     3$!)K,8*..8.. .%
4400f1e0:	a040 af55 ab8d a8e4 2946 2e01 a786 0047     @.U.....F)....G.
4400f1f0:	2716 a9db 24e9 269a a2ae 200d 2bfe 2cc1     .'...$.&... .+.,
4400f200:	2007 1eff 29bd 9c54 25d4 a849 a94f 2176     . ...)T..%I.O.v!
4400f210:	8f34 af08 2e21 2eee 3033 2573 29a5 2359     4...!...30s%.)Y#
4400f220:	2ea5 2ac8 acb8 acbd 2d44 1d7f 2953 9eef     ...*....D-..S)..
4400f230:	2c63 2b29 2d03 2ded 2c4d a39f 2851 2dc5     c,)+.-.-M,..Q(.-
4400f240:	2b6d a69b abf8 b004 ae4e acf5 3052 31d3     m+......N...R0.1
4400f250:	a8b9 a11c aa56 3071 320d ad10 a81e 9d43     ....V.q0.2....C.
4400f260:	28a3 2129 a3fa 22a0 2a00 2620 a7ef 14eb     .()!...".* &....
4400f270:	2c17 9c58 acb5 b0ea a4ec a9c4 110e ab57     .,X...........W.
4400f280:	aa6d 222a aa0a 2972 a587 190c ac16 255c     m.*"..r)......\%
4400f290:	2173 a092 9c9d 2678 297c 1d11 2a60 2a75     s!....x&|)..`*u*
4400f2a0:	ad88 ac1d 9a87 a848 aa00 a806 a828 a8f5     ......H.....(...
4400f2b0:	a911 ab2f a724 a133 a457 2536 2acb 2930     ../.$.3.W.6%.*0)
4400f2c0:	29ad 1f27 29bc 297e 249c 2ad7 2355 20a1     .)'..)~).$.*U#. 
4400f2d0:	a8b0 ab6a a833 1b57 282b aa78 aa5b ab4a     ..j.3.W.+(x.[.J.
4400f2e0:	aa4d 2516 aa0a 1c64 9b45 2a2f 2865 26af     M..%..d.E./*e(.&
4400f2f0:	b001 a3cb a653 a902 ae25 b221 aaeb 9a91     ....S...%.!.....
4400f300:	afa9 ac91 b138 ac22 a3b3 21f0 2840 a159     ....8."....!@(Y.
4400f310:	a957 ac54 b016 ad92 ad18 a4ef a9fc 9cd4     W.T.............
4400f320:	977a a385 2568 a80f a311 2afc a7fb 29ed     z...h%.....*...)
4400f330:	2337 2d11 2c0c a0b7 2398 2afd a892 ae04     7#.-.,...#.*....
4400f340:	a5cf aa47 25f2 aa76 a836 a911 2501 ab69     ..G..%v.6....%i.
4400f350:	a943 aaf7 266b aa06 241e ab81 248d a67e     C...k&...$...$~.
4400f360:	a4b8 25a9 1ce3 ab86 1839 aae6 2396 a3da     ...%....9....#..
4400f370:	285f a9bc 2912 2563 2478 aa9d a619 a05f     _(...)c%x$...._.
4400f380:	2b61 aba8 a98e 2683 a740 275c a6dc 242d     a+.....&@.\'..-$
4400f390:	27c1 24d3 abc4 a34c 2507 234d a3c7 a1b6     .'.$..L..%M#....
4400f3a0:	aac5 2314 a8d5 aa2f 9f60 978d 2282 a9f1     ...#../.`...."..
4400f3b0:	a6f4 9212 9eac a707 2a0f a52f 1fc3 a565     .........*/...e.
4400f3c0:	a292 a420 aa59 2ae1 8e4b 26b8 a517 a494     .. .Y..*K..&....
4400f3d0:	1351 265b a6f3 a9c6 2789 a832 ab1e 285c     Q.[&.....'2...\(
4400f3e0:	aa72 288e a8cf aa9e a05d a6f6 22a5 aa42     r..(....]...."B.
4400f3f0:	a897 a150 a1c5 a6c1 a8f0 a162 aa32 2062     ..P.......b.2.b 
4400f400:	28e2 255b a98d 9749 a632 27c2 2456 a7e6     .([%..I.2..'V$..
4400f410:	ab48 1cf0 261d 2113 a349 24a0 a904 240a     H....&.!I..$...$
4400f420:	255a a120 1101 a7aa a4be 1eec ab2d 9ca2     Z% .........-...
4400f430:	aa22 1923 a05c 278a 255a aa3b 266b 2615     ".#.\..'Z%;.k&.&
4400f440:	248e aaee 28e4 92f8 aabb 28da aa7a a927     .$...(.....(z.'.
4400f450:	a6d2 ab67 aa62 1f36 9765 a04f 281f a9ec     ..g.b.6.e.O..(..
4400f460:	aa58 178b 175f a72c aba4 a755 aa01 a294     X..._.,...U.....
4400f470:	98be 230c 2652 086d 260f aa6f aac0 2364     ...#R&m..&o...d#
4400f480:	a70a 25f0 a4ab 23b4 a4a1 24f2 aa04 a37d     ...%...#...$..}.
4400f490:	25ef 91ba a525 232a 26be a8d4 2bce 21a7     .%..%.*#.&...+.!
4400f4a0:	2593 0fde 278d a7af 265b 246b aa01 aa44     .%...'..[&k$..D.
4400f4b0:	a114 27f4 25e0 26f4 a95f 1494 1f15 ab90     ...'.%.&_.......
4400f4c0:	aa6b a8ed a927 a836 2174 2414 a917 2770     k...'.6.t!.$..p'
4400f4d0:	a44b a67e aac3 2807 2b2d 28e5 1e32 27ee     K.~....(-+.(2..'
4400f4e0:	25b0 2a88 9c81 97c7 2958 a7a9 a906 a2eb     .%.*....X)......
4400f4f0:	aa62 a8bf 227c a440 2262 9e62 9d35 a98e     b...|"@.b"b.5...
4400f500:	aacb aac2 a967 1cae a2da 9e53 a65d 255f     ....g.....S.]._%
4400f510:	ab9a 2bea 25a7 2882 2059 254e aacb 2498     ...+.%.(Y N%...$
4400f520:	28c7 abbf a8d2 a9d6 13f7 a4be a2b2 26dd     .(.............&
4400f530:	25cc abd9 2680 aac3 a877 2979 a4eb a6de     .%...&..w.y)....
4400f540:	243c 1374 aa2b 28ac 284e a60b 918d a888     <$t.+..(N(......
4400f550:	2185 2737 a6a4 a521 2147 26f6 a95d 22ab     .!7'..!.G!.&].."
4400f560:	2884 2460 aa13 222f a6d5 a918 281c 219d     .(`$../".....(.!
4400f570:	a0b2 a40c a9f5 260c 9433 ab3c a957 aa67     .......&3.<.W.g.
4400f580:	2687 a960 9d0d a86e 288a 1d2d a48b a21e     .&`...n..(-.....
4400f590:	a6af a347 aa50 a447 2045 abd4 ab45 a344     ..G.P.G.E ..E.D.
4400f5a0:	1e08 a958 2037 ab01 27de abc4 247f aa25     ..X.7 ...'...$%.
4400f5b0:	a583 25ad a9b7 a229 a9bf 2895 aa9e 0f7b     ...%..)....(..{.
4400f5c0:	1dd7 a7c0 26ea a043 2b31 a762 a08f 27a8     .....&C.1+b....'
4400f5d0:	287f a735 26c3 a90b a554 ab36 22b0 9dc7     .(5..&..T.6.."..
4400f5e0:	27fc 2702 a56f 2596 aab9 28d2 a481 272f     .'.'o..%...(../'
4400f5f0:	25d5 ab82 a9e8 9099 ab33 2017 a7a6 9f55     .%......3.. ..U.
4400f600:	a84e 277d 9814 a157 2ab2 a8db 9e23 aabe     N.}'..W..*..#...
4400f610:	2580 ab82 a9cc 2570 a868 2ba9 aaf4 21cc     .%....p%h..+...!
4400f620:	a22d a10b ab58 2871 25dd a823 17e4 ab4a     -...X.q(.%#...J.
4400f630:	2a69 a549 a484 a7e7 a387 a54d aa1a a66e     i*I.......M...n.
4400f640:	a384 a386 98ae 200e a98c a650 a432 a360     ....... ..P.2.`.
4400f650:	179a a8ba 2a74 a879 a34e 2087 a747 2723     ....t*y.N.. G.#'
4400f660:	a4e7 a521 a43a a2d9 a0e8 a3a7 24a6 28ec     ..!.:........$.(
4400f670:	28c6 2bbe 2c83 2ca5 2eeb 2cc4 217a 28f8     .(.+.,.,...,z!.(
4400f680:	2c96 2538 2d09 2c56 aa52 2a10 2e3a 2c7f     .,8%.-V,R..*:..,
4400f690:	21ee a3af a40c 281e 2bdf 30b9 aa0b 9d3c     .!.....(.+.0..<.
4400f6a0:	24eb a3db 2955 1b50 286a a638 a15c a9b2     .$..U)P.j(8.\...
4400f6b0:	2474 263c 1b2e 2372 a89d 2e38 2cbd 1f37     t$<&..r#..8..,7.
4400f6c0:	1cf7 20f8 310d a9d6 a518 a163 1d4f a86f     ... .1....c.O.o.
4400f6d0:	aba4 ab44 aa3b a800 a5c7 a976 a313 202c     ..D.;.....v..., 
4400f6e0:	2c33 b026 2521 a8dc 17e3 2ced af56 acde     3,&.!%.....,V...
4400f6f0:	aed1 24bd 1e8e ac55 1c20 2c52 2c99 3072     ...$..U. .R,.,r0
4400f700:	25a8 a061 2427 3092 32fd 2d02 2d12 2065     .%a.'$.0.2.-.-e 
4400f710:	23a3 2c5a 2c85 31ae a741 ae99 a0a9 2e45     .#Z,.,.1A.....E.
4400f720:	a939 adfc ae04 a802 20a1 2bee 2d2f 2fb6     9........ .+/-./
4400f730:	32b5 264d 2d32 296b 31bb 33cd 2bce 2fb7     .2M&2-k).1.3.+./
4400f740:	acc8 24b4 9e94 2c9c 3051 afb2 b05e aa0c     ...$...,Q0..^...
4400f750:	2e04 958e b0dd ac5e af11 228f a953 a8b1     ......^...."S...
4400f760:	a63e ab1b 214d a8ee a6f3 ab0d ae65 24e5     >...M!......e..$
4400f770:	94a6 279f aad8 2c83 252d 9ef0 2dce 2d52     ...'...,-%...-R-
4400f780:	26a3 2caa 9c30 2b1c 2c21 2405 a929 1f5c     .&.,0..+!,.$).\.
4400f790:	99fd 2b9e 9eb3 19e5 a5a9 2817 2008 299a     ...+.......(. .)
4400f7a0:	280d 22ed 1d69 2910 28f8 2e7a 2caa 2add     .(."i..).(z..,.*
4400f7b0:	2c26 2f32 282f a72b 2a4c 2661 13de 3164     &,2//(+.L*a&..d1
4400f7c0:	281d 2c2c 3067 305d 1cbe aea5 0e24 a997     .(,,g0]0....$...
4400f7d0:	2299 2e2d a7e4 a43d 20ce 2000 2d57 2b47     ."-...=.. . W-G+
4400f7e0:	28ef a712 2cce 245f 24b0 aa68 273f 1d21     .(...,_$.$h.?'!.
4400f7f0:	27c3 af34 af4d ad98 acf2 a801 acc7 ad71     .'4.M.........q.
4400f800:	af08 b0a0 a8a7 9f23 aa77 a937 1fa1 aea0     ......#.w.7.....
4400f810:	25f1 267a 2611 2ae7 247f 2a81 1870 9c1d     .%z&.&.*.$.*p...
4400f820:	2a7e a539 2214 a468 a11b 2b61 a656 aa01     ~*9.."h...a+V...
4400f830:	aa68 2986 28c1 a4d6 2aa2 2c72 2451 2c8c     h..).(...*r,Q$.,
4400f840:	aa81 1a38 9f10 185c 1e99 a9be 2a2b 2c1f     ..8...\.....+*.,
4400f850:	aa57 09af a04d 2628 2f35 30a0 31b6 9e8b     W...M.(&5/.0.1..
4400f860:	2708 2119 2d88 2fc1 a65a 2b8b 234f a843     .'.!.-./Z..+O#C.
4400f870:	259f 2ef5 2842 22ea 23b4 a25b 2c91 1514     .%..B(.".#[..,..
4400f880:	2a98 2705 26b5 aaac aa95 2574 ae51 adc2     .*.'.&....t%Q...
4400f890:	225d 996b a064 29c1 2cdb 2539 2ab6 265d     ]"k.d..).,9%.*]&
4400f8a0:	2fce 2afd 2c1b 2794 28f6 a630 ae39 29d5     ./.*.,.'.(0.9..)
4400f8b0:	ac1f abf2 b09d ae35 ab8b ab59 aa60 179f     ......5...Y.`...
4400f8c0:	267b 2c0b 2740 2942 a53e 294f 237b 1e41     {&.,@'B)>.O){#A.
4400f8d0:	285f 29be 2bee a4e3 239c 2456 9877 2c82     _(.).+...#V$w..,
4400f8e0:	2bdf 2c0b 2ced 2a0f a3c6 9e4e a472 2007     .+.,.,.*..N.r.. 
4400f8f0:	290c 2bdb 930a 2826 2b25 a6a1 285a 2b28     .).+..&(%+..Z((+
4400f900:	1d4e 2d9c 2907 9f02 aa3d a670 29dd 2cbd     N..-.)..=.p..).,
4400f910:	a71d 176f 2c7d 2951 29c4 2934 274e a8ce     ..o.},Q).)4)N'..
4400f920:	1731 a481 2c7e 28c4 23e5 2b06 24f1 2e38     1...~,.(.#.+.$8.
4400f930:	2a39 a927 2e25 24f2 ab44 ae8a 10fc 2674     9*'.%..$D.....t&
4400f940:	2c4d 2830 ae9a 2946 289d a7a0 2805 a97d     M,0(..F).(...(}.
4400f950:	a284 a6c7 a5a1 ac35 acd5 a0fd 26c3 2852     ......5......&R(
4400f960:	abd8 2096 a878 8105 2bf0 2d1d 2a22 2d19     ... x....+.-"*.-
4400f970:	2c80 22fa 28dd 2d1a 2691 25c4 2c74 2aff     .,.".(.-.&.%t,.*
4400f980:	2bf3 2c17 28e2 2db5 2d45 294e 2a85 25ab     .+.,.(.-E-N).*.%
4400f990:	2aa1 a099 9f8f a6c5 2457 28be 28e7 2817     .*......W$.(.(.(
4400f9a0:	2380 2b1b 24f0 2036 2d85 25d3 2cc0 2595     .#.+.$6 .-.%.,.%
4400f9b0:	2b12 a6d2 24df 2871 2d5f 28f1 1d21 a466     .+...$q(_-.(!.f.
4400f9c0:	26b2 a5dd 8474 aa26 2ab3 2581 9c84 a275     .&..t.&..*.%..u.
4400f9d0:	905d a575 2cd8 a172 2937 2e6d 2ac9 2be5     ].u..,r.7)m..*.+
4400f9e0:	a3e7 29a8 3215 2924 aced ae07 a9fc 28db     ...).2$).......(
4400f9f0:	24f4 aa24 a96d 2cf0 2c74 aaa6 9f15 3045     .$$.m..,t,....E0
4400fa00:	2d2b 29a4 2c1f 2f0e 272e 29b4 a12e 170a     +-.).,./.'.)....
4400fa10:	a63c a5a9 2596 a12b ac86 aef2 ab2a 200e     <....%+.....*.. 
4400fa20:	1e3d aeb7 1b70 2c7d 2c8c a974 a163 2632     =...p.},.,t.c.2&
4400fa30:	a9e1 a46a 2c8b 2b7e a07c a866 ac81 3060     ..j..,~+|.f...`0
4400fa40:	29f8 2930 2637 2bfb 2542 b096 b0f0 af61     .)0)7&.+B%....a.
4400fa50:	246c ad0b ac05 2c29 2aed 3168 ac33 2d07     l$....),.*h13..-
4400fa60:	25ec a8bd ac5f 288c 25ef ada9 1ba2 add9     .%.._..(.%......
4400fa70:	2b07 2e05 9714 211e a65b 2617 2e96 2d5f     .+.....![..&.._-
4400fa80:	30bf 2d4c 28e9 2fda 2417 2b5a 2735 a822     .0L-.(./.$Z+5'".
4400fa90:	27ef 2754 262e 2537 1f03 1c77 1560 1e7b     .'T'.&7%..w.`.{.
4400faa0:	a43e 2c93 244e 84e2 a909 8872 2581 2bea     >..,N$....r..%.+
4400fab0:	a4dc 2add 931a aac5 20bc 1d97 2b1f 2c6e     ...*..... ...+n,
4400fac0:	aaff 9fa5 2c48 2872 2b63 a62e 2dea 2652     ....H,r(c+...-R&
4400fad0:	2951 20b4 1f86 29d0 2b6d 2c6a a8cb aca0     Q). ...)m+j,....
4400fae0:	acd0 ac3c a91b 9bb9 a9cb ac9a a442 2e24     ..<.........B.$.
4400faf0:	2d40 aed1 abc9 9eb1 2df3 29b0 a46a a789     @-.......-.)j...
4400fb00:	2303 aaf8 a9ef 2880 a9b4 276f 283b 2b49     .#.....(..o';(I+
4400fb10:	2f65 31ff 2fd7 23c7 ac81 2b99 2d35 2c7e     e/.1./.#...+5-~,
4400fb20:	a8eb 266a 2e7b a4e0 2b9a a4d5 25de a509     ..j&{....+...%..
4400fb30:	a471 a905 a497 a89f ab12 ab40 a202 aa81     q.........@.....
4400fb40:	a478 2d94 2c0d 2c91 a021 2a11 2f26 2ad1     x..-.,.,!..*&/.*
4400fb50:	a82a 2dbd 2de0 282c 2646 2810 2d3c 1f4e     *..-.-,(F&.(<-N.
4400fb60:	a63c 1ec2 2402 2842 a914 aa35 a5fc 2c62     <....$B(..5...b,
4400fb70:	2b8c 2ce0 28f8 acb3 af94 a903 24e3 a80e     .+.,.(.......$..
4400fb80:	a33d a8a2 2f05 2c40 adbb a126 2f12 2601     =..../@,..&../.&
4400fb90:	a734 abe9 2967 2802 2683 2587 2b2b 291e     4...g).(.&.%++.)
4400fba0:	229d 2bb6 a03f 200c 29a5 28c4 b0f2 b13f     .".+?.. .).(..?.
4400fbb0:	2dad a8fd a932 1e68 a95e 2a2b 2c0e 2c53     .-..2.h.^.+*.,S,
4400fbc0:	2de5 2d90 a554 30dc 228b ac6f 1ab1 24ba     .-.-T..0."o....$
4400fbd0:	900a af46 a4d9 28ff 2cea 2b5c 2dbe 2d35     ..F....(.,\+.-5-
4400fbe0:	265a 9908 2ac9 2c85 2929 2c3a 2487 2522     Z&...*.,)):,.$"%
4400fbf0:	9e97 2c15 9d62 ad27 28c7 2c15 2cfa 28c2     ...,b.'..(.,.,.(
4400fc00:	229a 2d20 29ea 25a7 283c 2de6 2abc 2925     ." -.).%<(.-.*%)
4400fc10:	2e60 295d 9e7a 2cbe 2ceb a47f 252b a780     `.])z..,.,..+%..
4400fc20:	2adc 9aaf 2a9a 9eb0 a51f 9eae 211a 2472     .*...*.......!r$
4400fc30:	288e 28ba 2bc4 2a07 1f71 a913 2ce4 2fc0     .(.(.+.*q....,./
4400fc40:	1c6b a690 2dba 266b 2159 2d8f a8df ae87     k....-k&Y!.-....
4400fc50:	2ebe 1e47 a416 a10a 2672 27be a928 a7ea     ..G.....r&.'(...
4400fc60:	2c8f 281a 9f0a 2a05 2453 2cea a678 2828     .,.(...*S$.,x.((
4400fc70:	2a27 2875 2e20 9c0f 2560 290a 2be6 2976     '*u( ...`%.).+v)
4400fc80:	2bc6 aa8f 2be2 25a4 9392 2939 a0fd a532     .+...+.%..9)..2.
4400fc90:	2b74 a456 2808 2451 20f0 1e8d 1b69 a4c7     t+V..(Q$. ..i...
4400fca0:	a5e0 2588 a792 a2f9 a10d abdd 29d6 23bf     ...%.........).#
4400fcb0:	256f 1e44 2065 27a8 2502 28d3 aac1 a916     o%D.e .'.%.(....
4400fcc0:	2620 291d 2c21 1e53 a330 29f3 2aaa 28e8      &.)!,S.0..).*.(
4400fcd0:	845e 2e51 2c5e 8c8b ab64 ab1f 2ad1 2d79     ^.Q.^,..d....*y-
4400fce0:	2899 ae17 afab 1f2d 98cd 2c37 ad18 aaeb     .(....-...7,....
4400fcf0:	22a2 23ea 2e3a 9c31 2c13 a73b 28d1 aab8     .".#:.1..,;..(..
4400fd00:	2926 ab16 ae92 1cd8 2c01 30c4 305e ac2e     &).......,.0^0..
4400fd10:	ac82 a5df 2cc4 2db9 ab48 137e 9fa7 9bfc     .....,.-H.~.....
4400fd20:	a9f9 a835 2469 a826 aa9a ad27 a7fb a2bd     ..5.i$&...'.....
4400fd30:	a6e2 a19a 282f 2b9d 2656 2cf3 2ee0 2c34     ..../(.+V&.,..4,
4400fd40:	2c05 2bf0 272e aa4b af9c a924 a173 2d77     .,.+.'K...$.s.w-
4400fd50:	ac88 af3b a8e3 26e2 2806 acdc 24d8 a35f     ..;....&.(...$_.
4400fd60:	aa18 a7e9 2c87 307f 2b1c 29b3 2f17 2bdd     .....,.0.+.)./.+
4400fd70:	2c4e 2b8d 14d8 a934 ad9a b3b7 a971 2878     N,.+..4.....q.x(
4400fd80:	a718 ae07 b037 a704 2dd4 a777 a9ae 2c04     ....7....-w....,
4400fd90:	a84d 2046 a57d a2eb 2d6d 2de0 27b3 aab3     M.F }...m-.-.'..
4400fda0:	a7eb a148 a73d 2ad2 a310 1f4d 2b1f 2c98     ..H.=..*..M..+.,
4400fdb0:	2df2 280c 2494 2b0a 166d a011 12ff 9efa     .-.(.$.+m.......
4400fdc0:	a9a2 2c0d 2104 250a a438 2560 9ef2 2a8b     ...,.!.%8.`%...*
4400fdd0:	2349 244c ab06 a91a 162b 20f6 a81e a41a     I#L$....+.. ....
4400fde0:	aa33 1079 208e 26a8 2979 16e0 a417 a9dd     3.y.. .&y)......
4400fdf0:	a5e5 298e aaf4 a7d5 284c 27ad 2cea 2eb5     ...)....L(.'.,..
4400fe00:	2b22 2caa 293a 2e06 2b86 211f a87a ac42     "+.,:)...+.!z.B.
4400fe10:	a809 ab45 2728 2ab9 a686 ad88 ae88 2482     ..E.('.*.......$
4400fe20:	a799 18f3 2a89 a8f9 acb8 2574 2b5c 2c21     .....*....t%\+!,
4400fe30:	acaa a524 a99b aa86 302c abc8 abdd a42a     ..$.....,0....*.
4400fe40:	ab31 2eda 266f 27a0 292f 28ff 2003 28a7     1...o&.'/).(. .(
4400fe50:	a617 27d1 27e9 ad62 26a5 2184 208c a6c6     ...'.'b..&.!. ..
4400fe60:	a23f 226c 2990 a8f6 2be7 2fa1 ad70 2283     ?.l".)...+./p.."
4400fe70:	251f a518 185d aaa1 98f1 27cf 23d8 a826     .%..]......'.#&.
4400fe80:	a912 a6c6 2705 0fd7 a9b7 27b9 a41e 1d56     .....'.....'..V.
4400fe90:	290e 2ca2 2cdb 249a 2a01 23be 23f1 2bc9     .).,.,.$.*.#.#.+
4400fea0:	2c02 28bb a4df b07b 2bea 28da 2460 acab     .,.(..{..+.(`$..
4400feb0:	acb1 1ef0 a8c2 248b 251a 239e a521 1c82     .......$.%.#!...
4400fec0:	a27a 225e 2e56 2a5a 98bf 29e5 2a8c 32d7     z.^"V.Z*...).*.2
4400fed0:	aa68 a83c a8fa 2d75 31d7 24e2 acea a936     h.<...u-.1.$..6.
4400fee0:	acc2 af2d 251c a7ab 2b2c a55c b1ce 25c9     ..-..%..,+\....%
4400fef0:	2786 2e0f 26ab a5f6 a0f1 2a3a 2015 ab7c     .'...&....:*. |.
4400ff00:	a238 2ac7 2cc0 2641 2385 a938 aa7b 2835     8..*.,A&.#8.{.5(
4400ff10:	2869 a5f6 a610 2476 2950 2500 29b6 a5ee     i(....v$P).%.)..
4400ff20:	2853 a4c7 a8f8 1cab a637 2683 20ae 249b     S(......7..&. .$
4400ff30:	ae11 aa52 a46e 1f6e 26c7 28dd 25ed 2a0e     ..R.n.n..&.(.%.*
4400ff40:	253e 9dda 29c1 29d3 2a5f a8b4 2c6c 2cd8     >%...).)_*..l,.,
4400ff50:	aa2c a900 2a8e 2ca4 29de 252b b078 aa4e     ,....*.,.)+%x.N.
4400ff60:	24bb a9f7 ac61 ac5e 2c35 2ad1 298e 9829     .$..a.^.5,.*.)).
4400ff70:	2eed 2b26 2702 2e9d 2808 30bc 1b19 a80d     ..&+.'...(.0....
4400ff80:	2d39 2c0d 24a4 2908 a7e2 1985 a5e0 2a67     9-.,.$.)......g*
4400ff90:	9f38 a6f5 acd2 2860 93d2 275d a386 22c2     8.....`(..]'..."
4400ffa0:	293f a7c1 2c91 a206 2663 19bb a97b 24a3     ?)...,..c&..{..$
4400ffb0:	a871 2918 ad1d 0c0d 2dff 1e38 2702 a218     q..).....-8..'..
4400ffc0:	2034 1ecb 295b 295b a598 ac40 ab54 a315     4 ..[)[)..@.T...
4400ffd0:	aa0f a4c1 2149 9aaf 2423 ace8 ab75 2b74     ....I!..#$..u.t+
4400ffe0:	2493 a634 2913 ab17 a4d1 9a09 28ee 2a80     .$4..).......(.*
4400fff0:	2a84 aa6a 28a0 2c51 24d1 2755 ac3b 20e7     .*j..(Q,.$U';.. 
44010000:	2f00 1bec ac44 ac86 9f22 27f2 a816 b0b7     ./..D..."..'....
44010010:	187e aae0 2a0c ac7d a984 2c00 a770 2e7a     ~....*}....,p.z.
44010020:	28db 2eb1 a968 9f8c 26cc ab9b acdb a655     .(..h....&....U.
44010030:	2af7 282c 20ec 284c 2e31 a834 a988 072a     .*,(. L(1.4...*.
44010040:	2063 306a 2d8a 2a7d 29dc a872 2ac4 2b80     c j0.-}*.)r..*.+
44010050:	2740 ad45 aaa0 ac12 a504 aad8 a2af 2bc5     @'E............+
44010060:	af53 b020 2965 2dab aa47 ad2f aaf0 2f1a     S. .e).-G./..../
44010070:	25a2 b080 2aa7 9da6 2b79 a829 b23f 9479     .%...*..y+).?.y.
44010080:	2379 2937 b17a ada9 a201 ad9e 2923 2cd4     y#7)z.......#).,
44010090:	a8ac af76 aedf 2d82 2e11 283b a826 9a4b     ..v....-..;(&.K.
440100a0:	2f4f 21af b028 aa9e 2892 2c58 ae1f b281     O/.!(....(X,....
440100b0:	281f 2bfb 2ac6 b000 a4f7 a919 2d51 286a     .(.+.*......Q-j(
440100c0:	2abe 248d 2b17 2d25 20f2 20ec a589 23e2     .*.$.+%-. . ...#
440100d0:	114d ab2f ad6b ae7b 2464 ac0a a978 26ce     M./.k.{.d$..x..&
440100e0:	9a9b 2849 a49e 2b9a 2d96 2c61 ab46 99b7     ..I(...+.-a,F...
440100f0:	a191 2281 ad4f ac1d aca3 2717 2690 ac0c     ..."O......'.&..
44010100:	ab0a 9a90 2ad7 99b3 aa81 1d80 28a4 2592     .....*.......(.%
44010110:	a84a ab29 2351 a696 23ca 1dfd 2cd0 adde     J.).Q#...#...,..
44010120:	a6d7 2a3c a923 2481 b094 ad9a a473 2b31     ..<*#..$....s.1+
44010130:	2599 b3e5 ad10 27a8 2c0d 253d 27ec 2e22     .%.....'.,=%.'".
44010140:	29ac a6ed afbd 32e2 2afa a8f5 a43b a000     .).....2.*..;...
44010150:	213b 2d90 2b78 284a 1da8 3070 2a35 2969     ;!.-x+J(..p05*i)
44010160:	26b5 25a0 2888 ac2c af7c a770 a65b a0bd     .&.%.(,.|.p.[...
44010170:	268f 287f a46a 1bd5 2a32 2c92 a85d 287a     .&.(j...2*.,].z(
44010180:	2c26 acf8 2ba4 a858 2935 2bf5 a4e8 aa94     &,...+X.5).+....
44010190:	a872 2863 25cc 2650 a3af a472 28a1 ad32     r.c(.%P&..r..(2.
440101a0:	29f2 1c12 a090 24b1 a6e0 285d a57a 20b1     .).....$..](z.. 
440101b0:	a8c7 aceb acbd 2dc6 2b75 2aa9 2a2e ae74     .......-u+.*.*t.
440101c0:	ac82 22e7 2504 27a4 ad8d 1bd4 2869 2935     ...".%.'....i(5)
440101d0:	ad72 a460 28a9 2ae6 a486 b104 25d5 26b9     r.`..(.*.....%.&
440101e0:	1eae 974a 98cb a9d2 2f69 ae71 1a37 9845     ..J.....i/q.7.E.
440101f0:	a9f0 2936 ace3 a426 27ba 226c 2d34 27cd     ..6)..&..'l"4-.'
44010200:	2fe2 2df9 2dc4 301f aca9 a5fd 2d3c 2c2b     ./.-.-.0....<-+,
44010210:	2cd3 a948 2c51 a6f6 a90b a4ab 28e3 2cb8     .,H.Q,.......(.,
44010220:	a7ba a408 acc0 a8ff 28cb ac7b 1a7b ac3e     .........({.{.>.
44010230:	a0a5 244b adfd abf8 a62d 01af 2467 2453     ..K$....-...g$S$
44010240:	2b4b 2afc 2c5b a893 a09a aa9c ab48 2e8b     K+.*[,......H...
44010250:	2578 2a5b 295d 27b1 9f68 aa58 1b60 25e3     x%[*]).'h.X.`..%
44010260:	9852 ace2 26f3 1c95 a4b5 adda 11a9 2c8e     R....&.........,
44010270:	237a 9ecf a553 2ec2 2dc7 2574 ac63 9d7d     z#..S....-t%c.}.
44010280:	2a90 230e ab8f 2e7b 2ea5 2977 a7a0 af36     .*.#..{...w)..6.
44010290:	2b27 1913 9a5e 257b a5e0 2916 af8e a932     '+..^.{%...)..2.
440102a0:	2ebf 31d2 b11c ac7d 26c3 2c42 2dfb 2a7c     ...1..}..&B,.-|*
440102b0:	2f31 2c1b 29a0 2514 a8da 28c1 962e a866     1/.,.).%...(..f.
440102c0:	0c73 a982 2991 2a3f a7f2 acf2 a791 a492     s....)?*........
440102d0:	2d2e 26bd 02d9 a39e 2a2b 2c82 9e3a 2751     .-.&....+*.,:.Q'
440102e0:	2a4d ab50 a682 2465 24f6 a94d 25ce a401     M*P...e$.$M..%..
440102f0:	2578 a909 25fe aab2 a6e8 ab04 9cda a3f8     x%...%..........
44010300:	ab1d ab73 276a a552 a77c a949 a97f 2344     ..s.j'R.|.I...D#
44010310:	2591 237f a949 aa37 24f0 a6d7 29db a2fc     .%.#I.7..$...)..
44010320:	9707 ab10 2646 2232 a3c4 24a2 abb2 a4e3     ....F&2"...$....
44010330:	a868 2896 1957 a290 a815 a94e a791 a939     h..(W.....N...9.
44010340:	a494 aa23 a8e9 2625 a85c a56e a7fd 28d3     ..#...%&\.n....(
44010350:	a191 0984 21dd a45e 2887 a630 a8c8 a579     .....!^..(0...y.
44010360:	a8eb a93b 9c95 a590 a94e a71b 26e5 28a6     ..;.....N....&.(
44010370:	a901 1f27 aa07 2646 a9c3 a97f 9f95 2817     ..'...F&.......(
44010380:	9ef9 9895 1115 aa58 286c a439 27f0 2904     ......X.l(9..'.)
44010390:	aba6 a8f0 1442 a35b 28b8 aa48 2787 21ac     ....B.[..(H..'.!
440103a0:	1824 9658 99a7 99c6 a89c 267b 23ea a210     $.X.......{&.#..
440103b0:	a806 a826 a546 25f3 aa40 2a32 21f8 aa49     ..&.F..%@.2*.!I.
440103c0:	aa74 a76a 98b5 259e aaa2 1d17 a61e a83b     t.j....%......;.
440103d0:	a568 a932 21e1 a86a a76c 8eb7 a786 a8e6     h.2..!j.l.......
440103e0:	a852 a952 a606 a50b a65a 223b 229c a8c9     R.R.....Z.;"."..
440103f0:	a505 aac7 a9d1 a32c 215b ab10 254e 2761     ......,.[!..N%a'
44010400:	1daf 99ca a84a 22ad a819 a2b1 aa14 a42a     ....J.."......*.
44010410:	a433 aaf7 a6df a852 2811 a6eb 2904 2a22     3.....R..(...)"*
44010420:	242e 1a1d 2547 a429 a7cd 2416 a1f9 a6e0     .$..G%)....$....
44010430:	20da a69a 26e0 1eb5 9f72 267e a9f7 a14e     . ...&..r.~&..N.
44010440:	2848 a697 a65e a934 a5bd a968 a70d aab1     H(..^.4...h.....
44010450:	2524 2955 2a39 9f18 a75c 2344 25a1 a97c     $%U)9*..\.D#.%|.
44010460:	a9a9 2a4e 245c 1e56 a4f5 26db a052 2597     ..N*\$V....&R..%
44010470:	1aac 2781 a62b a921 282d 255a 28fe 25ee     ...'+.!.-(Z%.(.%
44010480:	2702 2896 a8d6 2665 242e a9d1 aace a959     .'.(..e&.$....Y.
44010490:	a91a 9604 aac3 a9b5 ab92 a831 a675 a0fa     ..........1.u...
440104a0:	19b0 a826 99ca 2668 251a 28eb 21fe 9a18     ..&...h&.%.(.!..
440104b0:	27a6 a74a 9773 a827 a8ea a7f6 a89a a746     .'J.s.'.......F.
440104c0:	1fbf 2741 2759 18b2 240d 1e7f 1c6f 1d8a     ..A'Y'...$..o...
440104d0:	aa63 a5ea a347 aa23 a4f1 2541 ab17 ab28     c...G.#...A%..(.
440104e0:	ab43 a7de 9e5d a9d4 a856 20b3 2833 a116     C...]...V.. 3(..
440104f0:	1eb7 9d82 a0e7 a947 a80a 99ce a979 a32b     ......G.....y.+.
44010500:	28c9 1b6c 280b a025 280e a9bb aa02 25e9     .(l..(%..(.....%
44010510:	2859 aae4 29df 269d a8ff 29cc 15b6 274b     Y(...).&...)..K'
44010520:	2813 a754 2912 a641 aa0b a6ef aa55 24b0     .(T..)A.....U..$
44010530:	a907 a774 a1a6 906a 1e7d aa66 2863 a7f0     ..t...j.}.f.c(..
44010540:	27bf 1863 ab5e aa73 ab00 22b3 a9c5 a9c4     .'c.^.s...."....
44010550:	9e8f a7d8 a36e a441 220e 24f4 2679 a5fb     ....n.A..".$y&..
44010560:	2594 2820 280c a296 ab47 240b a5d4 2104     .% (.(..G..$...!
44010570:	2559 a96f 2112 9895 2761 a9c3 1c62 20b0     Y%o..!..a'..b.. 
44010580:	aa6e 2835 a3f2 26ff 25a0 2630 a84a a9c1     n.5(...&.%0&J...
44010590:	a8d1 8fc9 a128 2845 2403 2675 a702 2806     ....(.E(.$u&...(
440105a0:	2887 269f 2555 a48d a354 28bd 233f 1d2d     .(.&U%..T..(?#-.
440105b0:	a846 9ba1 a255 a636 a6eb a8d1 9d37 2848     F...U.6.....7.H(
440105c0:	a792 1868 214a 24b7 9ead 2737 2458 27f5     ..h.J!.$..7'X$.'
440105d0:	a507 28e5 24e7 a184 a59f a68e a6c6 9fcb     ...(.$..........
440105e0:	aaea 22c0 a73e a9c4 2559 a2c8 95ef 1e88     ...">...Y%......
440105f0:	9e8f 2791 270a a5db a918 a461 1e28 a8e2     ...'.'....a.(...
44010600:	9e72 a571 a21b 2098 2443 22eb a4f2 1b05     r.q.... C$."....
44010610:	ac3c a735 a958 2376 a5d0 1cbe 9b03 18a5     <.5.X.v#........
44010620:	2a9d 27ca 2904 2c23 142f 2b5f 27b0 2034     .*.'.)#,/._+.'4 
44010630:	2996 9421 2890 204d a729 a974 2aa1 9450     .)!..(M ).t..*P.
44010640:	256d ae14 aa76 2934 9deb a0e0 ad7f 947e     m%..v.4)......~.
44010650:	a7fa 2629 298c 292e 2795 a6aa 2830 adcb     ..)&.).).'..0(..
44010660:	ac80 a41e a2fe 2ce0 2dd0 2ae2 28b6 a1f8     .......,.-.*.(..
44010670:	28ed 2aa8 2dca 29a6 1dd3 a391 262a aa85     .(.*.-.)....*&..
44010680:	ada1 a0eb 2d46 266b aa0d a973 2cbc 28aa     ....F-k&..s..,.(
44010690:	2d30 2c11 2e11 a4e7 a6fa acd0 ad35 afcf     0-.,........5...
440106a0:	2c00 2715 21f8 b022 b1fb 96f9 9e73 ab5b     .,.'.!".....s.[.
440106b0:	acad b28a adf0 a995 a701 a48a a499 ae65     ..............e.
440106c0:	b084 accf 24f5 306e a49e 24bc aded b166     .....$n0...$..f.
440106d0:	af7b 0d68 a2f4 abc1 b126 b2e9 aa94 2a86     {.h.....&......*
440106e0:	abfd aec5 af6c a87c a772 a56a 2b30 2cf0     ....l.|.r.j.0+.,
440106f0:	a9e4 b0bb b031 a846 331a a907 23d6 8c2e     ....1.F..3...#..
44010700:	a891 a1db 1d76 a728 a7be 2abf 2eea 29f9     ....v.(....*...)
44010710:	8a31 a43b 2f97 28e6 a682 a946 912f 2e39     1.;../.(..F./.9.
44010720:	2b57 2a49 24c9 2680 a23f 27da a65e 2a62     W+I*.$.&?..'^.b*
44010730:	1046 a887 ad75 ab59 285e a68a a237 27dc     F...u.Y.^(..7..'
44010740:	aa76 a4a2 a9af a4b9 2a2a a439 2831 abd8     v.......**9.1(..
44010750:	a9a1 2b7e aac2 22b7 2a35 965e 2b64 2937     ..~+..."5*^.d+7)
44010760:	27b5 1e21 a5cc a841 ab8a 2505 266e ad1a     .'!...A....%n&..
44010770:	aee1 ad3a ac29 2d4e ac77 9b67 aed5 ad62     ..:.).N-w.g...b.
44010780:	ad75 a8d2 a075 af4a ac8e a7ab a296 259f     u...u.J........%
44010790:	2864 0e86 2e9d 2e81 2ddf 23ef 276a 2ac6     d(.......-.#j'.*
440107a0:	2d22 2e21 29fc 2891 2aa9 a0ce ab16 2792     "-!..).(.*.....'
440107b0:	2044 2650 2499 aa65 2c47 26f8 2512 2ba4     D P&.$e.G,.&.%.+
440107c0:	298c 29b9 1c50 207b 271c 2899 a83e 1e99     .).)P.{ .'.(>...
440107d0:	a154 a69f a421 9f0b 2786 25f0 a477 aa7d     T...!....'.%w.}.
440107e0:	2b63 2747 a92a 24fd 1b96 2c7a a292 2a91     c+G'*..$..z,...*
440107f0:	29f5 2dde 9f17 a48d 1e1b ab11 adc1 a8c6     .).-............
44010800:	213b 249e b004 afc5 ac44 28b3 a97a ae0f     ;!.$....D..(z...
44010810:	ab15 ae14 2163 10a0 2931 2a37 a0da ace5     ....c!..1)7*....
44010820:	ade2 a419 2964 2897 2bc5 271e 2c03 a9d7     ....d).(.+.'.,..
44010830:	28f2 2c61 2a1f 29ad a4a3 a502 2102 2a24     .(a,.*.).....!$*
44010840:	ad6d b0b7 a4bd 1f3d aa9e a465 b020 a6ae     m.....=...e. ...
44010850:	259a 29c8 2dc2 3045 a98a 202b 2c62 22ce     .%.).-E0..+ b,."
44010860:	a8da a31e 2636 1386 2567 a8aa 282f 2c3b     ....6&..g%../(;,
44010870:	2af3 288e a9ca 2ab6 29b6 2bd9 aae0 aabe     .*.(...*.).+....
44010880:	2cde 2b77 a97b a527 25cb a416 2225 9cd8     .,w+{.'..%..%"..
44010890:	1b3b a3f0 aaf7 a551 a7dc 2c07 2662 9cfa     ;.....Q....,b&..
440108a0:	a1cb 2b80 271d 29bc 1d70 1fa3 2c81 ab09     ...+.'.)p....,..
440108b0:	1dea 293e 2a13 2823 a694 a262 aba6 2686     ..>).*#(..b....&
440108c0:	a63f a9bf aa1c acd5 15ae a5a2 2427 2d2b     ?...........'$+-
440108d0:	2d63 ab92 a459 28ff 2e14 3079 2c53 2b7d     c-..Y..(..y0S,}+
440108e0:	2cb0 9924 2de6 2ec8 2eb5 1b77 aef1 2824     .,$..-....w...$(
440108f0:	287b 2c01 2c16 2174 995c 2c44 2909 2968     {(.,.,t!\.D,.)h)
44010900:	a54f a447 283c 2c3a 24ed a8fd a143 94df     O.G.<(:,.$..C...
44010910:	a89b a4e4 2983 2c82 2cc2 a82b a5f6 29ba     .....).,.,+....)
44010920:	a53e 9ba6 ac87 a87a a8a1 27a2 a8ca a48d     >.....z....'....
44010930:	a4cf 1b09 2ca7 a28e ab0d 25f9 2c56 203f     .....,.....%V,? 
44010940:	a7e1 a8f7 ab0e ab45 a4c5 a88f 255a a602     ......E.....Z%..
44010950:	ac09 2f8e 290d a868 9fc4 a4bd 2c74 2c82     .../.)h.....t,.,
44010960:	a498 22cb 26b2 2c13 2a57 1dc8 2b16 2c00     ...".&.,W*...+.,
44010970:	206e 2d78 a697 282f 2440 a75c 218c a8bd     n x-../(@$\..!..
44010980:	280c b078 ad05 a70c a841 2360 26df ac34     .(x.....A.`#.&4.
44010990:	9d57 1b35 1f27 2c49 af80 2a74 2d0d aa69     W.5.'.I,..t*.-i.
440109a0:	a458 281e aa24 b00c a5e2 2833 2171 20f6     X..($.....3(q!. 
440109b0:	9bce 2e0c 2aab 2e8b 2cf6 2e7c 3130 3150     .....*...,|.01P1
440109c0:	282e 300e 2513 aa41 ab20 2ca6 30ef a8aa     .(.0.%A. ..,.0..
440109d0:	a139 2b89 1f52 2708 28a3 2bcd 305d a57d     9..+R..'.(.+]0}.
440109e0:	1d7c a7e5 303f 1fa4 2c37 2ca7 3125 26d9     |...?0..7,.,%1.&
440109f0:	2f97 2f0a 2f1c 9c1c a8ed 2623 2b0f 2848     ./././....#&.+H(
44010a00:	2c54 2d67 32cd 2bce 25e7 23ab 307a 300d     T,g-.2.+.%.#z0.0
44010a10:	234c 9838 2759 2ceb afa8 28d1 a6f0 afc1     L#8.Y'.,...(....
44010a20:	af49 ab73 1dd5 a858 9eeb 2a68 30e7 9e11     I.s...X...h*.0..
44010a30:	aa51 9fe6 a894 1f9c 195e 248d 1e89 2520     Q.......^..$.. %
44010a40:	9aaf acaf a3fa 9cac 25dc a25d 29de 2c2c     .........%]..),,
44010a50:	2a26 aa1d a8e9 2e08 2c99 2516 16dd 2bee     &*.......,.%...+
44010a60:	2e19 2a87 a26f 202e 22a7 a0d3 2572 a11c     ...*o.. ."..r%..
44010a70:	9e31 a505 2645 aa7b 9eab ac20 ad0d 2a48     1...E&{... ...H*
44010a80:	2e26 2503 28f0 a8fc 2f7e 2d50 2ecf ab2f     &..%.(..~/P-../.
44010a90:	aaf2 33c7 31f3 1c6b a4d2 2929 311a 2d30     ...3.1k...)).10-
44010aa0:	9d2c a59d 2c1e a320 a960 a580 a520 aa72     ,...., .`... .r.
44010ab0:	ab4a aa7c ae0f a7ed 2974 b035 af65 8da6     J.|.....t)5.e...
44010ac0:	2cc7 2cee ae2d a836 1c28 a01d 2120 28b1     .,.,-.6.(... !.(
44010ad0:	ad0d aa37 9fa4 2680 a683 a7fe a851 211e     ..7....&....Q..!
44010ae0:	ac70 ad21 ad34 ac72 268d 2892 1c0a 1876     p.!.4.r..&.(..v.
44010af0:	2493 9c39 9dc8 234c 2ce4 a48f ac8a 9de7     .$9...L#.,......
44010b00:	aad8 a58e 267c 262b 2c40 adae a6d2 2807     ....|&+&@,.....(
44010b10:	a6eb a487 2c8e 2ea8 23d8 a86d 266a 2e0e     .....,...#m.j&..
44010b20:	305a 28bd a99f ab01 2fb2 2fdd ad31 268d     Z0.(....././1..&
44010b30:	2c5c 2f3c 2dfb 1838 27a7 2cd2 2801 26d4     \,</.-8..'.,.(.&
44010b40:	25ed 9e00 a955 ab5b b1da 2660 2e2d 32ee     .%..U.[...`&-..2
44010b50:	ae43 a0bc 2c26 2f34 2d1f 2826 a967 a127     C...&,4/.-&(g.'.
44010b60:	af51 b018 2892 ae97 a8f6 2a94 2e6b a867     Q....(.....*k.g.
44010b70:	adbc a76e 21bb 24d0 9c1f 052a a526 25f8     ..n..!.$..*.&..%
44010b80:	a2f4 2c05 a537 9cd0 28b6 2cd8 a8ca 2b2c     ...,7....(.,..,+
44010b90:	2add abc6 29ba 1ea1 20b3 a752 1da8 29bd     .*...)... R....)
44010ba0:	ac13 aa58 a957 21f7 27be a9ee 19f6 a87e     ..X.W..!.'....~.
44010bb0:	a367 a913 2c4e aa41 94b0 2d44 2d3e 256b     g...N,A...D->-k%
44010bc0:	a9d4 2b9f a31a a168 2a4d 2d5a 24ae 9c12     ...+..h.M*Z-.$..
44010bd0:	1d88 ac70 aca6 a4b6 a6a0 2635 2cc7 2e53     ..p.......5&.,S.
44010be0:	2b7b 29af a132 2472 a245 2889 24ed 2d50     {+.)2.r$E..(.$P-
44010bf0:	b1f8 aff6 29fe a434 a843 a93a a566 2223     .....)4.C.:.f.#"
44010c00:	ade3 a6cf a079 a1fc 2a6a a44a a534 a922     ....y...j*J.4.".
44010c10:	a9ca ad9e a8c0 230a a980 a3ff 8795 2c74     .......#......t,
44010c20:	2ce6 2c50 24c6 a588 2156 197c 2b80 955f     .,P,.$..V!|..+_.
44010c30:	a39a 2be5 2ad8 20c2 a118 a571 2185 a814     ...+.*. ..q..!..
44010c40:	ae72 2470 a996 1aed 28d4 adbb 2a50 2ec5     r.p$.....(..P*..
44010c50:	18fd 2677 ac94 2996 2ca5 a658 add9 a300     ..w&...).,X.....
44010c60:	1c9a a8fd 8f31 ad19 a2ca abec 2c08 2786     ....1........,.'
44010c70:	9e6a ae89 1d61 2869 adf8 aa9f adc1 2eda     j...a.i(........
44010c80:	26a5 ae57 a8fb 14c3 2aab 303f a49d 23f5     .&W......*?0...#
44010c90:	24d5 1d8d 2eba 281d aecb 256d 2b19 249c     .$.....(..m%.+.$
44010ca0:	2a97 af7a b0ae b302 2744 2f5b 2db0 b1b5     .*z.....D'[/.-..
44010cb0:	b322 a92e 276d 28c2 a87a ad6d 2fbf 2c06     "...m'.(z.m../.,
44010cc0:	a710 aefe ac41 2f26 28d4 9d72 ae36 a2ca     ....A.&/.(r.6...
44010cd0:	2669 1db1 a7e0 a5ed 2fa7 2bfb 1782 29b5     i&......./.+...)
44010ce0:	a629 2d93 2c68 adb8 24af 2809 2a81 2ddf     )..-h,...$.(.*.-
44010cf0:	ac07 29dc 1f9b 2cdf 2d1f a81e 230d 248f     ...)...,.-...#.$
44010d00:	2ee3 2cda 2569 a2b5 2cc2 3243 2767 2864     ...,i%...,C2g'd(
44010d10:	9e3a 2ce0 2c1c a671 9c9a ac97 2aa2 27b1     :..,.,q......*.'
44010d20:	2ef3 b057 abdf 2bc7 2f00 2c59 a908 abf8     ..W....+./Y,....
44010d30:	2dd5 2c43 3223 28f5 af35 ad2a a500 ae80     .-C,#2.(5.*.....
44010d40:	afc2 2eb2 af12 2b24 2912 280c 2d95 1970     ......$+.).(.-p.
44010d50:	a00a 1a93 2968 a911 23d9 2992 ac58 25fc     ....h)...#.)X..%
44010d60:	b0e0 286d 28ac 1951 a936 aed3 ac92 964b     ..m(.(Q.6.....K.
44010d70:	2ae7 1a2f ad04 263d 289d 2c66 291c a946     .*/...=&.(f,.)F.
44010d80:	1792 2c10 23a0 2220 1838 a945 2b89 253f     ...,.# "8.E..+?%
44010d90:	290a 1f0c 278c 28bb 1a58 a97c 146e ad6c     .)...'.(X.|.n.l.
44010da0:	a169 30d6 a65c a599 b085 1d48 2a14 25cc     i..0\.....H..*.%
44010db0:	a1a2 9f3f 2c82 2a84 2479 1a0e ab68 2e29     ..?..,.*y$..h.).
44010dc0:	2c64 2693 a5f8 a8b3 2e08 1acf a433 15a9     d,.&........3...
44010dd0:	ac63 b1f2 b1b8 99cf 2d79 b026 a9e9 acf6     c.......y-&.....
44010de0:	26e6 2e27 aa2d a423 2d1c 274a 287d afcf     .&'.-.#..-J'}(..
44010df0:	afba 2749 a75f aa83 a68e a9e6 a87b aa9b     ..I'_.......{...
44010e00:	b0b7 b25f af31 2c43 2c13 a8c4 b237 ae89     .._.1.C,.,..7...
44010e10:	2e09 28a9 a2cb ac76 a4c9 298b 2b73 abee     ...(..v....)s+..
44010e20:	abee 20b1 2623 294f afa9 ac61 1af2 056b     ... #&O)..a...k.
44010e30:	a356 add3 ad72 2be5 2e8a a7bf 9fbe a88b     V...r..+........
44010e40:	2c9f 2c07 a737 ac61 2835 2f4d 29a8 2000     .,.,7.a.5(M/.). 
44010e50:	a93d 2128 2c31 2e21 a416 1c4d 2a59 201a     =.(!1,!...M.Y*. 
44010e60:	2589 2e1c a483 ab7d ac43 2980 30d4 306c     .%....}.C..).0l0
44010e70:	a912 29f8 a82c 2cb0 2e01 a791 2598 ab67     ...),..,.....%g.
44010e80:	228c 23de 2b41 2e12 2543 a852 ad19 a4ea     .".#A+..C%R.....
44010e90:	2221 ab19 aace b132 af7f abf1 1f78 2035     !"....2.....x.5 
44010ea0:	a34c ad73 0cd3 2993 184b a923 aae3 2057     L.s....)K.#...W 
44010eb0:	2a37 a023 2042 a5b8 a49f 27a9 2c58 a83e     7*#.B .....'X,>.
44010ec0:	207c a72b 290d 2813 ab0f ab4b a97c a41d     | +..).(..K.|...
44010ed0:	a3fb 2397 b03f a038 2d8e 242d aa57 97d6     ...#?.8..--$W...
44010ee0:	25a9 2ba9 28f6 a2a4 a381 a992 a299 2aa6     .%.+.(.........*
44010ef0:	a6ef ad0b a8e2 a0c2 1c65 a6da aec6 b065     ........e.....e.
44010f00:	2260 2da1 2a7e b073 a8e4 303c 2ced ab97     `".-~*s...<0.,..
44010f10:	ad43 2c4d 2bcf 2cdc a6f5 abc8 a40b ade5     C.M,.+.,........
44010f20:	27a8 17de a9cd a63f 2775 a238 29fb aa33     .'....?.u'8..)3.
44010f30:	ab0b aef1 2316 2d8f a834 2c8c 28cf a8af     .....#.-4..,.(..
44010f40:	2e49 9fdd 2d2e 2bc3 aa56 a9c7 1c9c 2841     I....-.+V.....A(
44010f50:	2466 1f6a ab83 a848 2a54 2097 a749 ae1c     f$j...H.T*. I...
44010f60:	ab28 abe0 2847 2a18 a6ac ab45 a9e5 a147     (...G(.*..E...G.
44010f70:	a483 a43b 1b92 a1b6 a872 a925 2469 8bee     ..;.....r.%.i$..
44010f80:	2be0 2a67 2bcd 282f 2d60 2878 a8d0 a3f6     .+g*.+/(`-x(....
44010f90:	2ab4 ab5d ae3e 26ca 2dd6 2c32 abad ae96     .*].>..&.-2,....
44010fa0:	a7b7 2ab2 2574 b05f a5ed aa72 a88c ac4e     ...*t%_...r...N.
44010fb0:	a74b a797 25ab a92f af7a 1fde 9a9d 0e09     K....%/.z.......
44010fc0:	a736 26a2 3392 2dfc 25bf ad71 a32a 2e23     6..&.3.-.%q.*.#.
44010fd0:	2755 aa9c a992 24d6 27e4 1d15 a537 2ede     U'.....$.'..7...
44010fe0:	2c6e 27e1 2f64 2e66 29d4 2818 3034 28c6     n,.'d/f..).(40.(
44010ff0:	2a0e a657 285d b1ee af4d ad26 a460 9f6d     .*W.](..M.&.`.m.
44011000:	b16f ae64 a484 2c44 aa9c af47 ae2d 1cd8     o.d...D,..G.-...
44011010:	a668 b046 231a a4c5 a90c a00e b18f a999     h.F..#..........
44011020:	ad0d 2527 b02e b0df aed9 ad29 aa90 2e7a     ..'%......)...z.
44011030:	1ed5 ad53 aac7 2ade 287f 252d aa0e ac7e     ..S....*.(-%..~.
44011040:	ae78 a92b ac2f ad10 aa4c ad6c aa05 b02a     x.+./...L.l...*.
44011050:	295e a764 a885 ad68 a73c a631 2832 2d80     ^)d...h.<.1.2(.-
44011060:	29e6 26b0 a8d5 23b4 a123 a956 a6ea a1d9     .).&...##.V.....
44011070:	89c9 2b07 25cd ab31 9bc3 2912 2c6e 230e     ...+.%1....)n,.#
44011080:	261a a802 2428 2a71 29a6 2d8b af3f ad58     .&..($q*.).-?.X.
44011090:	a36b 2411 a01f b040 ab29 a851 9a34 241e     k..$..@.).Q.4..$
440110a0:	acbc acdd 2052 a568 26bf 29bd aa32 a114     ....R h..&.)2...
440110b0:	24a5 26df 206f a548 a86a 2742 a47e 25a5     .$.&o H.j.B'~..%
440110c0:	a9f2 acbf 20e1 253a b211 b0e0 a857 28d8     ..... :%....W..(
440110d0:	1ec2 b467 b07f 270c 2b32 1ea0 2136 9f65     ..g....'2+..6!e.
440110e0:	2b6b a5e5 a8a7 2720 24f5 286e a440 25b8     k+.... '.$n(@..%
440110f0:	3008 2c63 309c 2e72 1d4e 30b0 2820 24f6     .0c,.0r.N..0 (.$
44011100:	1a0e a52c 2908 29dd 996a 06bb 2c38 2c93     ..,..).)j...8,.,
44011110:	2dcc 2586 27ae 2f43 2d00 2ce1 a5a1 a626     .-.%.'C/.-.,..&.
44011120:	2cb8 a3ee 24dd 27db a579 a8dc 2d2d 1c1c     .,...$.'y...--..
44011130:	ad5a 9d04 a6b4 a0c8 2428 259b 2a66 2896     Z.......($.%f*.(
44011140:	2de7 2804 a969 20be a99e 26a1 9c68 2794     .-.(i.. ...&h..'
44011150:	a781 a997 aa82 ac00 a902 2d55 2cda b215     ..........U-.,..
44011160:	adc2 a93d 29d8 2a1a b229 b046 aca3 9423     ..=..).*).F...#.
44011170:	afb5 ad73 a0d5 2822 ac4f b120 2948 a2b3     ..s..."(O. .H)..
44011180:	271e a9bd b128 a145 2766 a84f afc7 b22d     .'..(.E.f'O...-.
44011190:	aaf4 2e47 3025 2c60 a6f1 2c95 2e31 2ff0     ..G.%0`,...,1../
440111a0:	2804 260c 2518 2ce5 a215 ac58 28ca a87c     .(.&.%.,..X..(|.
440111b0:	2030 a891 acb8 aa26 2360 a879 ac32 25ee     0 ....&.`#y.2..%
440111c0:	1d77 ac8b aaef a7fa 9fb9 a8cb aabf ab7d     w.............}.
440111d0:	a541 97e4 a2db 271d a5f2 a352 a3fa 29b2     A......'..R....)
440111e0:	2bb8 2bb8 2b1c 23bb 9d78 aae1 a9fc 2a1e     .+.+.+.#x......*
440111f0:	25e2 a5d1 acf6 27e7 9c0a a6d4 9a8b a55b     .%.....'......[.
44011200:	a7f8 2502 a8ed aa41 25bc 28da a0f3 a7ae     ...%..A..%.(....
44011210:	2836 2969 1cc9 22d1 297f 29a7 aa96 2043     6(i)...".).)..C 
44011220:	a8a6 2534 2746 2b8a 2d15 2a60 2616 23af     ..4%F'.+.-`*.&.#
44011230:	2d06 aafe a05b 2427 2b1e 2614 a54c 2627     .-..[.'$.+.&L.'&
44011240:	284f 22b3 2de8 1e46 a959 2e96 239e a626     O(.".-F.Y....#&.
44011250:	22a8 2d02 a161 8419 a536 1b3c ac8d a185     .".-a...6.<.....
44011260:	ac50 ad08 999b 9e89 1905 a836 a6bc 9c4d     P.........6...M.
44011270:	a0b9 2210 2a32 a5ad a878 a19c a227 9a93     ..."2*..x...'...
44011280:	1de6 a601 a644 2582 aaf2 24c7 223c 9a6a     ....D..%...$<"j.
44011290:	2c1e 2d3f 2204 a663 1cc3 aa5b 8e61 a9a6     .,?-."c...[.a...
440112a0:	1ca0 abe5 abdd 1def ad63 a8e0 a78c 199a     ........c.......
440112b0:	ac73 2c0e 28a8 a120 a677 a659 217b a917     s..,.( .w.Y.{!..
440112c0:	ab03 a474 1d94 296c 25b3 a4ca 2c2b 29ec     ..t...l).%..+,.)
440112d0:	2b4e a24f accd a6da ab0c 249a abf3 23bb     N+O........$...#
440112e0:	22f4 ad82 adb1 abc9 ae12 a729 a900 2a8d     ."........)....*
440112f0:	2881 2ab3 a6cf 2570 2dcb 2d23 29cf aa84     .(.*..p%.-#-.)..
44011300:	1ff8 251a a44d a7f4 a674 26e3 1e42 a7ea     ...%M...t..&B...
44011310:	a0a4 9c68 a863 283d a0e8 abd6 a8a9 9c16     ..h.c.=(........
44011320:	ab88 2891 ac41 2af3 24ba 2711 2c2d 265a     ...(A..*.$.'-,Z&
44011330:	2e8b 2f56 25cb 2467 2530 2a47 2f37 28cb     ..V/.%g$0%G*7/.(
44011340:	a1e8 2927 2f38 ada2 ac5a a1c6 a3f2 ad48     ..')8/..Z.....H.
44011350:	1a98 a3ca a1ce aaaa a7c8 2c6d 2828 acbc     ..........m,((..
44011360:	29e0 303c 319c 1df1 2981 2cd9 2e8b 9f15     .)<0.1...).,....
44011370:	29cb 9975 2931 3012 ae07 2d83 a27f 15f0     .)u.1).0...-....
44011380:	a6ac 204d 2c91 2092 2d5a 2a1a 284d 258a     ..M .,. Z-.*M(.%
44011390:	a628 a663 a6c7 2a5f a47c a65d ae2b aea5     (.c..._*|.].+...
440113a0:	2a77 a9e1 a36e a9d2 a984 af47 26e1 25d4     w*..n.....G..&.%
440113b0:	aa8a a76a a892 2bf4 a845 a9fc 2798 274f     ..j....+E....'O'
440113c0:	2ae0 2776 280c 22ae a909 ac1e abb6 a41d     .*v'.(."........
440113d0:	9cb9 258f 1e0a a894 aad4 ad27 add6 aadb     ...%......'.....
440113e0:	ac4f 1d72 ac96 ae6a 1c70 2ee3 2da3 a959     O.r...j.p....-Y.
440113f0:	25c1 2890 31a2 27bd 9920 2c3c 2b61 2e1f     .%.(.1.' .<,a+..
44011400:	a766 a56a 9d9b 27d1 2d2a 293f 9f60 216a     f.j....'*-?)`.j!
44011410:	9f4c a8f6 ad42 9cb7 ad22 2cb2 298b 2e02     L...B..."..,.)..
44011420:	2f3d 2d5d 2805 2408 ab6b 9eb1 a5d2 295e     =/]-.(.$k.....^)
44011430:	aca7 ab8a 1d7d a0c7 ab34 afdb 9e58 9cbd     ....}...4...X...
44011440:	af58 8a73 ad97 a8c5 ac6d 267e 2ab0 2321     X.s.....m.~&.*!#
44011450:	a2dd a421 2c93 2996 1bd2 abea 28f0 2c1b     ..!..,.).....(.,
44011460:	a00d ab77 9c6e 2c8f 2ce0 a419 a6da a226     ..w.n..,.,....&.
44011470:	2927 a8e5 a405 2c5f 23c3 afe5 2761 2ca5     ')...._,.#..a'.,
44011480:	295c a648 20d6 26cf 2af9 26a2 2a2b 2c79     \)H.. .&.*.&+*y,
44011490:	27cd 1c68 2a9e 24e8 a647 2e6c 2574 9605     .'h..*.$G.l.t%..
440114a0:	a0ef 29bf 2896 a682 b041 ad82 a8f0 2492     ...).(..A......$
440114b0:	ab9c acb2 2cb7 a39b 2a31 a104 24ef abe4     .....,..1*...$..
440114c0:	a1c9 2c3c 2b43 a07c a94c 2a8d 30ad 21a1     ..<,C+|.L..*.0.!
440114d0:	1ec3 25e0 2572 9981 2d4f 2d24 24ce 188d     ...%r%..O-$-.$..
440114e0:	201c 2781 1757 ac12 a881 25cf 1061 abae     . .'W......%a...
440114f0:	a064 26ab a49d ac31 a8a4 1f9f 2587 2944     d..&..1......%D)
44011500:	af90 aa9b 1d40 17bd ac52 2662 2b0e ab94     ....@...R.b&.+..
44011510:	a558 a23a 27e0 a808 2c64 2c67 9f0c a0d4     X.:..'..d,g,....
44011520:	a8b1 21ed a7ce 2979 adf0 ab7d ae06 23d3     ...!..y)..}....#
44011530:	a546 ac84 b0a6 a137 2602 a88e 306a 2c4c     F.....7..&..j0L,
44011540:	2afd 2838 a66d 2a94 ac3d a8f5 a419 9bb4     .*8(m..*=.......
44011550:	b170 ad2e a793 ac6b a9a8 ae04 a7e8 ab37     p.....k.......7.
44011560:	aa92 a4db aacf b045 b177 a922 27b5 24a2     ......E.w."..'.$
44011570:	25eb ac02 9889 a7a2 2573 a8e7 249f 1001     .%......s%...$..
44011580:	2d1a 22f9 a4e4 acea 2931 2acf 1c49 ad1c     .-."....1).*I...
44011590:	a147 2423 9ff9 ab70 aa89 a62f a9e8 b033     G.#$..p.../...3.
440115a0:	9d46 2449 2c06 2a2b 2ea7 9f11 2a2d 1ef1     F.I$.,+*....-*..
440115b0:	283c 2d68 a6d9 2493 aabb 9ec3 a48b a835     <(h-...$......5.
440115c0:	a5c6 223f 9d45 ac42 2a4b 2c8f 2b01 a754     ..?"E.B.K*.,.+T.
440115d0:	a668 288d ac41 a496 2cc2 2868 2962 29d8     h..(A....,h(b).)
440115e0:	a9ca 2a3b a4c6 2763 26b2 aa1c a6d1 284d     ..;*..c'.&....M(
440115f0:	27af 21e5 2b47 1fb2 a34b a24c 2458 a7a9     .'.!G+..K.L.X$..
44011600:	a66c aee7 29ed 2bc1 a8d3 9d54 a126 2f54     l....).+..T.&.T/
44011610:	a5f2 29ab a090 26ea a928 ac24 a9f6 aabf     ...)...&(.$.....
44011620:	2ec9 2cdc a766 a81f a6ac 2196 2803 a9d6     ...,f......!.(..
44011630:	a95d 9eec 2ec3 a588 ac8a a293 a984 2471     ].............q$
44011640:	2232 2a15 1b62 ab30 afe8 9c2d a558 a4d3     2".*b.0...-.X...
44011650:	252a aeba 9b7c 2c94 ad2a a806 a47e aae7     *%..|..,*...~...
44011660:	aa6e a7ae 2b7e 2ced ad2c aa80 ac1e a635     n...~+.,,.....5.
44011670:	2804 a763 a7d1 9d19 ac19 1b08 a356 27e7     .(c.........V..'
44011680:	ae6d ac9e 182a a151 a4e1 ad22 2a2a 2d8f     m...*.Q...".**.-
44011690:	ac54 ac85 b0e7 ad31 30c4 2a39 2a27 2b3f     T.....1..09*'*?+
440116a0:	2922 2dbd a9a4 2307 a608 2c43 2f55 279d     ").-...#..C,U/.'
440116b0:	19fb 25cb 2205 28c9 83b2 2a27 28a3 24f5     ...%.".(..'*.(.$
440116c0:	a0e4 27a6 2879 224a 221f a8f3 a7ef 28e0     ...'y(J".".....(
440116d0:	a81e 2785 2801 aa37 29be a419 1789 2b56     ...'.(7..)....V+
440116e0:	a648 2819 9f4b 9d1f a5e7 a360 286b 1d1c     H..(K.....`.k(..
440116f0:	a307 29ba a0cc a81e 242c 2715 9ef3 ab1e     ...)....,$.'....
44011700:	a555 ab30 993c 2bd7 aa79 a4a9 2901 8e53     U.0.<..+y....)S.
44011710:	25e7 ac21 9dfc 201c aace 292a 21d0 a990     .%!.... ..*).!..
44011720:	991e 25f2 990c 1044 ae0e a624 2d2e 25a7     ...%..D...$..-.%
44011730:	2909 2f61 2dac 2c7d 2a25 26e4 274c 2ffe     .)a/.-},%*.&L'./
44011740:	1bdb 2c13 1ce2 24d8 a4b5 28bb 996d 28a7     ...,...$...(m..(
44011750:	a3db a980 abed ada7 2838 27ef 2830 1493     ........8(.'0(..
44011760:	a8a5 3092 2992 2a98 a7d0 9aba 1e1e 2251     ...0.).*......Q"
44011770:	2bb6 2bb8 248d 18ff 2b2e 9e77 aad2 ad33     .+.+.$...+w...3.
44011780:	a436 a54c a9cb abac 255d a0a4 2833 a578     6.L.....]%..3(x.
44011790:	a18c 2e94 2097 ab7a a89c 2915 2a05 a63c     ..... z....).*<.
440117a0:	247f 2c0d a76d 2c06 aa3e 280b 20ff a51a     .$.,m..,>..(. ..
440117b0:	28af a998 2867 aa3e 29e0 2d10 a828 9d1d     .(..g(>..).-(...
440117c0:	280d a599 1b11 2f14 1699 1155 90db 2445     .(...../..U...E$
440117d0:	278e 2bf7 2d5f 2b09 169d 2c4a a595 2d6f     .'.+_-.+..J,..o-
440117e0:	a984 aadb 26ee a6ed a573 a9c2 aa4c ad66     .....&..s...L.f.
440117f0:	ac27 21d7 2af6 2e7f 28ba a671 a75c 9a1b     '..!.*...(q.\...
44011800:	2843 a254 261b 29d5 2828 2ae7 a9a9 2710     C(T..&.)((.*...'
44011810:	a6e6 27ae a4fe 2299 21a3 952e aaf4 ac8e     ...'...".!......
44011820:	2ced 9849 20ed a81c 1f17 2843 1d99 9aac     .,I.. ....C(....
44011830:	24f4 19d7 a546 a705 a58a a528 2430 2629     .$..F.....(.0$)&
44011840:	ace8 a7e0 2148 9b34 2155 a4dd 28b6 aaef     ....H!4.U!...(..
44011850:	a9d0 a411 2eb2 2d25 25c4 a6d6 299e 9866     ......%-.%...)f.
44011860:	27f8 2778 2846 a933 ace8 abac a52d aa09     .'x'F(3.....-...
44011870:	1edd ab37 2668 2bb4 2c16 3051 a17b 2b43     ..7.h&.+.,Q0{.C+
44011880:	2c21 a896 2f69 2fd1 2d95 2808 adc1 27a0     !,..i/./.-.(...'
44011890:	28d1 2c45 294c 2e06 8865 9f58 2734 27e2     .(E,L)..e.X.4'.'
440118a0:	2fe2 23fc 9dbe 2950 a473 2638 2c45 17b2     ./.#..P)s.8&E,..
440118b0:	a894 acbe a78b 2821 2d38 9d22 a954 9c33     ......!(8-".T.3.
440118c0:	a61d a531 25ed 2f1d 2c2d ad6b 22e5 2ce5     ..1..%./-,k..".,
440118d0:	2c90 230c abaa 0a3d 2ab3 2828 a9ba ab0c     .,.#..=..*((....
440118e0:	26f3 2259 2555 1333 2cc6 9bd2 a14b a452     .&Y"U%3..,..K.R.
440118f0:	219e aefb af00 aa97 82fd 2bbf a9a9 a02e     .!.........+....
44011900:	2c32 a624 1bd4 2b31 a568 2c6e 17b6 2706     2,$...1+h.n,...'
44011910:	a4bd 2a87 a703 2999 9c7e ad07 ad3e a954     ...*...)~...>.T.
44011920:	a6c0 a581 2cdd ac97 af93 ae97 9970 9255     .....,......p.U.
44011930:	24cb 98ad 20db a93b 9d04 ab51 24a4 300e     .$... ;...Q..$.0
44011940:	a06e ae62 2320 a4dc a83d ac08 a8cb 9dec     n.b. #..=.......
44011950:	2d32 25e7 2845 ace2 acce ac4e a6a8 a9f1     2-.%E(....N.....
44011960:	a441 aca8 26bb 2991 1972 9f85 a20e 27d5     A....&.)r......'
44011970:	a726 2abf ad65 af14 a967 968c 2c6e 1fda     &..*e...g...n,..
44011980:	23c8 1b09 2c53 2d9c ae38 a8d6 a787 2b43     .#..S,.-8.....C+
44011990:	b12d 11f8 a902 26df a1d7 2716 2bed a267     -......&...'.+g.
440119a0:	ae01 b018 2dcf a601 a773 9c0b 2ac9 30f1     .....-..s....*.0
440119b0:	98a5 2816 243f 275c 2b61 af81 aa3f 2c3c     ...(?$\'a+..?.<,
440119c0:	2915 a850 ac92 a3dc 9e50 9ec0 a7cc a43d     .)P.....P.....=.
440119d0:	2a36 18a7 29d2 ac1b 2119 2215 2b32 a585     6*...)...!."2+..
440119e0:	ad76 21cb 2899 2a18 a500 adc6 a86b a685     v..!.(.*....k...
440119f0:	ab47 2987 2d3d 23f0 0157 2511 2d33 2b4c     G..)=-.#W..%3-L+
44011a00:	ad22 a52d 291c 9916 286f 9fd7 2174 2b26     ".-..)..o(..t!&+
44011a10:	2a31 a491 ac27 a5d7 1f48 28c5 2023 ac22     1*..'...H..(# ".
44011a20:	af19 b03b a8b5 2a87 2957 abd0 adef 290f     ..;....*W).....)
44011a30:	2d1b 2cb9 ac8d ad05 2f15 2c6f b129 ac35     .-.,...../o,).5.
44011a40:	2108 2b65 2ca5 b057 ac42 2503 2aa4 a6e5     .!e+.,W.B..%.*..
44011a50:	a2e9 2b52 2187 a916 ac1b a860 2391 2a25     ..R+.!....`..#%*
44011a60:	a168 b034 a8b9 2159 2665 2739 aaf6 a1cc     h.4...Y!e&9'....
44011a70:	2c53 2921 a40a b04d 265b 2991 1802 a8c6     S,!)..M.[&.)....
44011a80:	acd5 2c7c 2bd2 8ecc 246a a849 2a4d ab07     ..|,.+..j$I.M*..
44011a90:	a616 2d4f 1cec aeaa 9450 2b61 a8c4 2714     ..O-....P.a+...'
44011aa0:	a6f6 a8db aa5f 272b 907e 960e a30a a9ee     ...._.+'~.......
44011ab0:	2c6c a341 a133 ae31 a281 2a56 2ab7 ad53     l,A.3.1...V*.*S.
44011ac0:	af42 2513 2c1c 2fec 276d a354 2e6b a268     B..%.,./m'T.k.h.
44011ad0:	2e94 1123 a52e 2911 2bd2 2dce af88 ab40     ..#....).+.-..@.
44011ae0:	28b5 2b85 a144 2960 2c20 29e1 a81f b136     .(.+D.`) ,.)..6.
44011af0:	a867 2d2b 2ad6 a88f b25d ac4b a964 29ba     g.+-.*..].K.d..)
44011b00:	2683 155e acd5 2402 a95e adc6 ac10 ab80     .&^....$^.......
44011b10:	282b 9946 27bf ac74 2445 aa85 2974 25be     +(F..'t.E$..t).%
44011b20:	2d19 ab33 2425 2938 2d0e 2ad8 29a5 a966     .-3.%$8).-.*.)f.
44011b30:	a9a0 1cb2 a1a5 24ee a7ec 29f5 a56f a89a     .......$...)o...
44011b40:	a7f5 a063 9e19 a068 9975 2570 21d5 2cf9     ..c...h.u.p%.!.,
44011b50:	2cd7 9678 aca7 aa05 a846 2ab4 a943 ae93     .,x.....F..*C...
44011b60:	298a ab99 ab03 ab59 2929 2dc5 1ea3 ac2d     .)....Y.)).-..-.
44011b70:	a6ca 2c05 2932 a8b9 a419 ab48 2a39 aef3     ...,2)....H.9*..
44011b80:	a752 a58b 2dd1 aea1 b134 b0f4 2394 a431     R....-..4....#1.
44011b90:	a08f a092 aea0 acf0 a97c 2b3b 2e8d 9c25     ........|.;+..%.
44011ba0:	a971 a8f3 32fe 22ba a32e a7b8 aa10 a6ea     q....2."........
44011bb0:	a88d 29ab a646 a8d0 97ca 2590 2a6f a678     ...)F......%o*x.
44011bc0:	a215 2ba5 a862 2d60 2c05 244e 23c1 290f     ...+b.`-.,N$.#.)
44011bd0:	21b1 a917 ade2 160c a862 a4e4 2a94 ab3b     .!......b....*;.
44011be0:	92b8 2753 284c 18e0 279f a9b5 2684 2d61     ..S'L(...'...&a-
44011bf0:	9f25 a101 afb8 a4b6 2a54 2232 a530 20d7     %.......T*2"0.. 
44011c00:	aae4 a67e a98d ace9 2463 aa19 a6d9 2904     ..~.....c$.....)
44011c10:	2111 a8d4 a173 9ccd a828 a2fc 9eb9 149a     .!..s...(.......
44011c20:	2861 202b ad3b a20c a4af 2d55 a5be abe7     a(+ ;.....U-....
44011c30:	ac85 ac2e 2d14 9e37 2232 af93 b00a a967     .....-7.2"....g.
44011c40:	252d a4a2 1937 aae5 277f a881 2a40 25c2     -%..7....'..@*.%
44011c50:	2b44 242b 28b6 2db3 2793 99bc 2cdd 30d5     D++$.(.-.'...,.0
44011c60:	22fb 087b 2047 2d5e 27ea a246 254e a378     ."{.G ^-.'F.N%x.
44011c70:	23c1 9c9f a822 aa86 aa8e 1c84 294a 2a0f     .#..".......J).*
44011c80:	ac27 25e4 9bbf aa68 abf3 b13c aa09 1c1f     '..%..h...<.....
44011c90:	af64 aa5e b0bb af8d a704 276e 2385 2127     d.^.......n'.#'!
44011ca0:	2679 2c9d 2d60 2c88 ab5b a815 906d 235e     y&.,`-.,[...m.^#
44011cb0:	1dea 210d a83c a648 a8fb ad71 a9b8 ad25     ...!<.H...q...%.
44011cc0:	a041 aef0 a8f6 b0e1 1fd9 29ce 2862 281c     A..........)b(.(
44011cd0:	ad11 9e15 30c5 2c51 2275 29b5 22e5 2b33     .....0Q,u".)."3+
44011ce0:	2d92 1fce 266f 1f7f 2a6f 28aa 9d68 1f13     .-..o&..o*.(h...
44011cf0:	2cc5 2f82 2de7 a175 a61a 281e 12ad 2a60     .,./.-u....(..`*
44011d00:	abe1 a978 aa36 a1aa abf4 a753 a3cf abfc     ..x.6.....S.....
44011d10:	a614 15b0 2a63 25e0 28de 2cd6 23fe 2448     ....c*.%.(.,.#H$
44011d20:	abfc 9bed 2b05 a74e a755 adcc ae7e 2801     .....+N.U...~..(
44011d30:	a5d6 ab52 a47c 289d 9c98 9c99 2262 a754     ..R.|..(....b"T.
44011d40:	ad45 26b0 2903 2c0b 1e6e a64a abd2 2d5a     E..&.).,n.J...Z-
44011d50:	a5e8 ac14 add3 29cd 2509 ada1 b1aa aca2     .......).%......
44011d60:	2e63 2834 ab3a aff1 a2c4 2df5 2ac8 acce     c.4(:......-.*..
44011d70:	2de0 201a 24e9 1c1b a899 2a9a 282f 22a6     .-. .$.....*/(."
44011d80:	2501 292f 2c20 2dca 2f7a 2b4c 1efe 2a02     .%/) ,.-z/L+...*
44011d90:	290d 2b75 a331 ab66 a84f aca7 a6c0 ac18     .)u+1.f.O.......
44011da0:	aaa4 2e1e 26af 28df 222c a19c a805 a9b3     .....&.(,"......
44011db0:	a3a2 2809 2d69 1fd7 24ad 2071 297c ac3f     ...(i-...$q |)?.
44011dc0:	ab58 ae08 21fb 287d aa5b 9f30 ad0a a406     X....!}([.0.....
44011dd0:	2ae2 2a81 a977 a4fc 2935 a033 2adc a60e     .*.*w...5)3..*..
44011de0:	a826 2da4 9f67 a9d2 a81c 1fa7 280b aafa     &..-g........(..
44011df0:	ac8a b019 ac96 2695 2836 26f6 aec7 aae4     .......&6(.&....
44011e00:	a131 a8c5 a6e6 2677 2de2 a968 25b9 2c6c     1.....w&.-h..%l,
44011e10:	a1d9 14ed 205c 88b2 2506 ab8e 26fa a720     ....\ ...%...& .
44011e20:	ab5b ab40 ae1d 2b49 2af5 a911 a646 ac28     [.@...I+.*..F.(.
44011e30:	2cf0 300a 2c88 2a7a a71d 29b2 2b3a 28e3     .,.0.,z*...):+.(
44011e40:	23b0 a84b a685 2a69 289e a71c aa52 a7a7     .#K...i*.(..R...
44011e50:	a553 242e aa43 0544 a877 a4d2 285b a9b1     S..$C.D.w...[(..
44011e60:	9f2c ac9a 2300 2859 262a 29ad 1f4f 26de     ,....#Y(*&.)O..&
44011e70:	2a79 1ac1 aaf6 a439 201c 2855 24b4 aec7     y*....9.. U(.$..
44011e80:	2a6f 2ca2 2b8a 29ad 1deb 2689 a0aa 24b8     o*.,.+.)...&...$
44011e90:	a2a4 29ea 24c5 a706 28d1 a8cb ae14 addd     ...).$...(......
44011ea0:	2154 a5b9 a7fc af8e ac55 2969 2639 aca6     T!......U.i)9&..
44011eb0:	a414 a492 a40a 1d2b 9e7b 313b 2cc4 a802     ......+.{.;1.,..
44011ec0:	23e1 9ef3 3257 2b02 a91a 280c 22b0 a1d9     .#..W2.+...(."..
44011ed0:	2bd9 246f 19f9 2cd7 2ce7 2e52 2a5d a19b     .+o$...,.,R.]*..
44011ee0:	2885 2b11 279a 2e24 2c63 2562 a74e acc5     .(.+.'$.c,b%N...
44011ef0:	a256 2019 ab34 a6fd ac8e 22e3 a05e a580     V.. 4......"^...
44011f00:	2624 2ada 20d9 a926 950d a81a 2bd9 2d4e     $&.*. &......+N-
44011f10:	2286 28cb aced 2831 2c9f 2a0c 2b7d a477     .".(..1(.,.*}+w.
44011f20:	28f2 2d34 28ed 23bb 9f09 2c57 2c43 29c1     .(4-.(.#..W,C,.)
44011f30:	a1c3 2953 a5f5 adfa ad3c b013 2f0d 2935     ..S)....<..../5)
44011f40:	a805 ac8d adab a277 2022 1fba 210c ab0d     ......w." ...!..
44011f50:	1eaf 29ab 1d2b 2594 2c14 ac23 2d19 ab68     ...)+..%.,#..-h.
44011f60:	ab51 ac58 a4d3 2bf1 2aa3 2d39 2e21 97c8     Q.X....+.*9-!...
44011f70:	9fa1 a57d 2dd2 2d2e a28e aa28 2aaa 9d55     ..}..-.-..(..*U.
44011f80:	2736 a8b9 26ee 282e aa5e 28f5 2401 9cfe     6'...&.(^..(.$..
44011f90:	a89e 2c84 a501 2f5d 2020 a705 acf1 af13     ...,..]/  ......
44011fa0:	2c24 1407 a864 ad1d b0ab a86d 2213 1cce     $,..d.....m.."..
44011fb0:	acfe ae9d acda 2cc8 a72c a42b 2956 a14d     .......,,.+.V)M.
44011fc0:	a283 a456 9d1b 30f3 2942 0f40 a9d0 afe0     ..V....0B)@.....
44011fd0:	a721 2c3e 29bd a2b9 b1fa b0dd aa9a 9824     !.>,.)........$.
44011fe0:	ad23 b143 b014 a7af a573 a9cc a9c1 243c     #.C.....s.....<$
44011ff0:	a9ca 1b00 ad3e 1d17 32e9 2d5c 26a0 abec     ....>....2\-.&..
44012000:	a67b 2d4a 2bf0 29ce 29ad 2021 18c0 22a0     {.J-.+.).)! ..."
44012010:	2757 2b98 285a 2abd 2d75 2b0b 26bf a345     W'.+Z(.*u-.+.&E.
44012020:	284e a972 a5d9 aaa4 ad5a a8d5 2dd0 23a6     N(r.....Z....-.#
44012030:	2938 a9a6 224d 23c9 2151 a771 a925 22a6     8)..M".#Q!q.%.."
44012040:	ab7b a016 2274 1f94 2d4f a776 2846 a6f0     {...t"..O-v.F(..
44012050:	27bd 26ef 21bf a924 2ce1 22f1 a8a5 2d60     .'.&.!$..,."..`-
44012060:	2f6a a86a a6e9 221d 2c3a 247e 2290 abb6     j/j....":,~$."..
44012070:	adf5 aee6 a0ce a932 a99d aa78 b208 ab57     ......2...x...W.
44012080:	2c14 1ac4 2a88 b18e a28d 250c 2c17 2988     .,...*.....%.,.)
44012090:	9e55 249b a430 25b7 310a a8d5 2407 a92c     U..$0..%.1...$,.
440120a0:	a33c 2d12 2a82 2c14 296b 2c53 18a2 107f     <..-.*.,k)S,....
440120b0:	255e 2dc4 a5b5 1eea a3f6 2625 2a8a 25ca     ^%.-......%&.*.%
440120c0:	a88f 2d77 2a44 2a59 9b0e 2b98 a07a 2780     ..w-D*Y*...+z..'
440120d0:	2597 2986 a16c a977 27b0 2d16 a8c2 14c0     .%.)l.w..'.-....
440120e0:	a8df a5bf a63c a4b2 9f5d a4c0 2b9a a1e6     ....<...]....+..
440120f0:	9da7 2c9d 2ece a5a6 a750 ac95 ab04 2666     ...,....P.....f&
44012100:	a006 1d36 a932 ae26 27e7 1dd2 a91f ada8     ..6.2.&..'......
44012110:	ac9d adde 255e a08d 2c48 2bad aaba 1e29     ....^%..H,.+..).
44012120:	1f53 2b96 2f8f 2ecc a601 2e53 2d04 2748     S..+./....S..-H'
44012130:	2c27 aed7 a509 2d61 3051 2809 aca1 2145     ',....a-Q0.(..E!
44012140:	a7c4 b26b 29e0 a73f 28b3 a81e b1bd a8e5     ..k..)?..(......
44012150:	a707 2638 2953 a977 2b02 a4ba 284c ab17     ..8&S)w..+..L(..
44012160:	a681 2a10 25f3 2987 a82d a8c2 9b5d 2caf     ...*.%.)-...]..,
44012170:	2ae3 a07c 996f 21c6 a0d4 2b12 2084 2ac4     .*|.o..!...+. .*
44012180:	ab35 2a71 273a 9dac 2a28 2985 2c17 24b0     5.q*:'..(*.).,.$
44012190:	9d84 a184 1882 266c 2dd5 298e 9e20 2ac0     ......l&.-.) ..*
440121a0:	28d0 2cca 2442 271e a78c 2cb5 2c1c 2791     .(.,B$.'...,.,.'
440121b0:	aa81 2638 2d66 248d aae5 ac0b aa50 aa00     ..8&f-.$....P...
440121c0:	1c0c addf ac17 b00b 1aae 2cf8 25f7 28d5     ...........,.%.(
440121d0:	2d9f 2907 2ba5 2a89 2222 2dc6 a569 9db3     .-.).+.*"".-i...
440121e0:	a125 a5bf 2eb0 2dc3 a883 ad84 adc5 2ae4     %......-.......*
440121f0:	a837 abee 22cf 29a5 2d18 2832 aa62 ac5d     7....".).-2(b.].
44012200:	27c7 2965 2b63 a773 2c92 2c06 2d2f 2ca7     .'e)c+s..,.,/-.,
44012210:	a950 29fa a919 24fb 2cdd ac7c abc0 a746     P..)...$.,|...F.
44012220:	2753 2070 ab4f 9f52 228d 299e 2900 2a5f     S'p O.R..".).)_*
44012230:	a63f 21c7 2819 2df4 2ad2 27e8 245e 28c3     ?..!.(.-.*.'^$.(
44012240:	a623 a9f0 2686 a861 acbe aac8 165c 94c6     #....&a.....\...
44012250:	a6b2 9aa5 2fea 2f02 2ccf 2b35 225d 2e89     ....././.,5+]"..
44012260:	9ad6 1f6e 2779 a1d0 2a78 2139 994c ae06     ..n.y'..x*9!L...
44012270:	a408 a76b 2d3c 20e3 a8e4 2a54 a88b 2533     ..k.<-. ..T*..3%
44012280:	2781 a8d7 b1d7 a814 a9aa a71d 1e59 b0fa     .'..........Y...
44012290:	af7f a863 ac7e 2972 ad54 aab4 ab8f 2bcf     ..c.~.r)T......+
440122a0:	2afc 2b45 2802 1f88 2afc aa4f aeb1 ab9a     .*E+.(...*O.....
440122b0:	adc2 ad9d aed4 284f 2e14 2d3e 2d9f 308e     ......O(..>-.-.0
440122c0:	2c0d 2cba aa76 2dd4 2d9d a41f 1a82 9ff7     .,.,v..-.-......
440122d0:	a542 af7b 9fbd 2e52 27db ae58 a4d0 2b7d     B.{...R..'X...}+
440122e0:	29a9 2c8a a9c3 2c61 2d45 2d7f 306a 3046     .).,..a,E-.-j0F0
440122f0:	31d4 2773 2c4f 1c6e 30b9 3021 1f08 27f3     .1s'O,n..0!0...'
44012300:	2c8f a092 ac8a ab41 2a29 26d2 a34b 1980     .,....A.)*.&K...
44012310:	290d 2d2f 2eaf 2d21 ab0a 9f21 a881 aac2     .)/-..!-..!.....
44012320:	a487 a883 ac5e 2565 ab6a a809 ab28 2db3     ....^.e%j...(..-
44012330:	2f96 1e55 a4d8 ac1d 2c87 22ab 286d 1d21     ./U......,."m(!.
44012340:	ae2f a938 9f13 a6b5 2994 9a7b a6bb 2406     /.8......){....$
44012350:	1539 27bf a784 2cdf 2a18 2acd 2a7f 28c9     9..'...,.*.*.*.(
44012360:	2a76 a1fd 2345 2d29 ab22 a716 2b75 abd7     v*..E#)-"...u+..
44012370:	ac40 a471 9f40 26d3 acc1 a7ca 2ce5 a10a     @.q.@..&.....,..
44012380:	2d96 2cad 283c 2bd1 2137 2158 ab5a a53c     .-.,<(.+7!X!Z.<.
44012390:	291d 2c29 a997 a007 2d0f 277a 2dc6 2380     .)),.....-z'.-.#
440123a0:	9c2c 2a51 ac56 2af3 2d74 1f95 a1ba ac2a     ,.Q*V..*t-....*.
440123b0:	abae b16b b19d afc5 acc2 aef9 b029 adfb     ..k.........)...
440123c0:	afee a84a 2d28 281e 2d8f 2855 26df 23d3     ..J.(-.(.-U(.&.#
440123d0:	a90b 2cd5 29fb a9c7 aded ad96 b011 aab2     ...,.)..........
440123e0:	aebc b02c 2361 aa59 2a9d 2ec1 a915 a550     ..,.a#Y..*....P.
440123f0:	1fb2 28a1 1c60 2928 2549 2827 a524 a9da     ...(`.()I%'($...
44012400:	2329 2887 258f a896 ad73 ada8 a65b a8ca     )#.(.%..s...[...
44012410:	269f 24ed 23bd 2655 15a9 2d78 3078 2e12     .&.$.#U&..x-x0..
44012420:	2212 269e 2c61 2ab1 2d99 2a72 a6be 9add     .".&a,.*.-r*....
44012430:	ae86 2c02 a709 2735 ac90 ac04 9d96 1eac     ...,..5'........
44012440:	a491 2a2f 99d4 a404 22ef a816 a50f 2d2f     ../*....."..../-
44012450:	9849 ac43 af0e a92a 2f53 21bf ab8c b05a     I.C...*.S/.!..Z.
44012460:	1e09 a67f a799 9c3d 9208 abe4 b1ff 26da     ......=........&
44012470:	a0f0 2643 1e10 2422 ac18 1fc6 2182 a92f     ..C&.."$.....!/.
44012480:	2619 2147 a1b6 2b20 a4de a079 283a 2cf0     .&G!.. +..y.:(.,
44012490:	2908 2763 1321 18b5 a82d a440 29e6 9c9f     .)c'!...-.@..)..
440124a0:	a909 a20b 2538 a5f0 a8f9 215e a8d2 a220     ....8%....^!.. .
440124b0:	ac0e a9e7 1aa3 2bef 296c acdf 206f 2e24     .......+l)..o $.
440124c0:	2e92 21a8 1dfa 2548 25fb ac78 9996 28f7     ...!..H%.%x....(
440124d0:	20dd ad4a ab6d 2903 2b39 1b00 ac8f a7e1     . J.m..)9+......
440124e0:	a6e3 23bf 2443 24a8 28ed 2e1d 18ca a92d     ...#C$.$.(....-.
440124f0:	303d 2fe8 298f a460 a653 ace1 ae0b adcc     =0./.)`.S.......
44012500:	1f00 2c18 b2cc ad85 2d3f 21a4 2c7c a966     ...,....?-.!|,f.
44012510:	a94b 218a 23a5 a483 90a2 99a0 274d ac01     K..!.#......M'..
44012520:	28c7 296f 1ec4 214c 2996 2912 aced 9eb6     .(o)..L!.).)....
44012530:	23c1 a9bc ae7a 2980 2651 2837 aabc 13f2     .#..z..)Q&7(....
44012540:	2933 2ab0 2778 2cda 29e1 1de6 9f2d 2ed3     3).*x'.,.)..-...
44012550:	269b 2935 26bb 2c1f 285f 8973 9b5c a8d6     .&5).&.,_(s.\...
44012560:	29ab a4ed 2471 a91a a480 2741 27e8 a8ae     .)..q$....A'.'..
44012570:	a2e0 a6b5 a7ba a5d3 2d2a 286c 265f 2fa8     ........*-l(_&./
44012580:	2044 9893 1c76 253c 2bff 1f92 2d46 a814     D ..v.<%.+..F-..
44012590:	249f 23a7 27f3 2c62 ac77 a693 26c9 2947     .$.#.'b,w....&G)
440125a0:	22b2 a57a ac4c a8ac accb ab00 25f7 a760     ."z.L........%`.
440125b0:	ac57 a93d ac78 2dfe a93e af82 add4 2933     W.=.x..->.....3)
440125c0:	2c3e a56a 1e15 2882 a16c 269a a823 ada6     >,j....(l..&#...
440125d0:	a2e4 a597 af4c 9929 2d41 9b24 2d72 296d     ....L.).A-$.r-m)
440125e0:	26b5 2c9c ac15 27c9 300c 27af 267d a97f     .&.,...'.0.'}&..
440125f0:	a832 a666 2538 2d85 19f3 a972 a854 2d91     2.f.8%.-..r.T..-
44012600:	2937 2464 2753 3038 2c2c 2f12 a885 a915     7)d$S'80,,./....
44012610:	30eb 2b02 29bc ac56 22ce 3294 a838 1c24     .0.+.)V..".28.$.
44012620:	a942 ab29 a292 2942 a205 a90e a9fd aced     B.)...B)........
44012630:	a23c 2c50 2763 3102 2e82 27ea 280a a92a     <.P,c'.1...'.(*.
44012640:	28ed a83d a4f2 a72f 8cdc 23c1 afbb 2a4a     .(=.../....#..J*
44012650:	2e0b 3009 11c8 2657 2bb8 2cc1 28ff 263b     ...0..W&.+.,.(;&
44012660:	2499 24db 154b a403 add9 ad2b 2c34 20b0     .$.$K.....+.4,. 
44012670:	a778 20cf 2fef 2d5d 2b0a 2bda 20cb 2e48     x.. ./]-.+.+. H.
44012680:	2903 96b6 2cc0 29c6 28be 16fc 239a a810     .)...,.).(...#..
44012690:	a44d a7d2 a8d1 a44f 2ae4 ac25 1ffd 23a1     M.....O..*%....#
440126a0:	a8de b115 2c4e 2b6b 297c ad08 b079 a7cd     ....N,k+|)..y...
440126b0:	2c03 a9d2 aaf4 aa79 2298 aa23 ad20 acc9     .,....y.."#. ...
440126c0:	a1b9 2723 216a a519 a908 2d06 9df5 ac37     ..#'j!.....-..7.
440126d0:	a975 a81c a501 ada8 ab20 adf6 ad1d affb     u....... .......
440126e0:	b034 26a6 2543 2791 28bf 2a0a 2ba6 0d6b     4..&C%.'.(.*.+k.
440126f0:	2129 2f4c 2980 2575 a681 a9c6 ad53 a433     )!L/.)u%....S.3.
44012700:	ac2a a624 2d0c 24c7 1ed3 2ce1 a917 a89a     *.$..-.$...,....
44012710:	a975 a224 2d7d 9864 9c7c 2adc 2b63 1cce     u.$.}-d.|..*c+..
44012720:	2407 1a28 a4f5 28a5 a967 a82c aca3 a8b1     .$(....(g.,.....
44012730:	a807 9e84 a674 ad38 9f9e a3ea 2b06 2c41     ....t.8......+A,
44012740:	2bb0 abf9 2b69 2d75 2e4c 26f9 a086 2a55     .+..i+u-L..&..U*
44012750:	abd5 290e 191e a636 9c49 ac55 1dda 972d     ...)..6.I.U...-.
44012760:	2c59 2955 2da4 2bdd 2b8e 3178 ac0d 2839     Y,U).-.+.+x1..9(
44012770:	254f 21e6 a727 aef1 acbd 1f1f abf1 a60a     O%.!'...........
44012780:	a6e5 a613 a79a a526 a014 ac6b b1e2 2cd4     ......&...k....,
44012790:	a1b9 a81b a831 b149 27a0 a1b9 25ba a7c0     ....1.I..'...%..
440127a0:	2c8b 25b9 2c99 2d22 2973 2d98 2754 2937     .,.%.,"-s).-T'7)
440127b0:	9d5c 1d19 25c5 2c53 a0e2 a910 2c1f 2c6d     \....%S,.....,m,
440127c0:	a7e9 a60d 286e 2647 ac0c 2da8 957c 208e     ....n(G&...-|.. 
440127d0:	a0e5 2460 aad5 2d00 2e06 aa86 2510 a7f3     ..`$...-.....%..
440127e0:	2cbc 2e3e a526 a46f 2b46 2261 2c20 a8a3     .,>.&.o.F+a" ,..
440127f0:	294c ac74 9bce 1f22 22cd a67d ae01 a3a8     L)t...".."}.....
44012800:	acb5 a493 2e55 af2d 92ef 2c7c a66c a8e7     ....U.-...|,l...
44012810:	2c1a 2d48 2b01 22b3 a1c6 286b 2827 a3fe     .,H-.+."..k('(..
44012820:	ab59 2920 a7a9 9986 ac9a ab37 2267 2122     Y. )......7.g""!
44012830:	8325 2423 2b88 a92d 2823 2eb8 1f7d 16c3     %.#$.+-.#(..}...
44012840:	a83d 27a5 2ac3 2834 2d3e 285f 23d2 a28a     =..'.*4(>-_(.#..
44012850:	2bf1 2611 ab45 29a4 a762 2786 2078 ad7d     .+.&E..)b..'x }.
44012860:	2930 2a3b a68d 28e0 2a24 a3dd 1fb9 1b43     0);*...($*....C.
44012870:	a890 a308 2bbd a8bc 280c 240b aa3f 2a24     .....+...(.$?.$*
44012880:	28a9 1986 2ce1 2760 a6b9 2ba7 8ee6 23c7     .(...,`'...+...#
44012890:	20bb 2b64 2994 a2f2 2b6f 9984 1c71 a405     . d+.)..o+..q...
440128a0:	26cb 2bed 2aa0 ac16 a81d a4bd ab46 ab98     .&.+.*......F...
440128b0:	aacf a456 a9a6 aa4c acef 2aa3 227e 2ca5     ..V...L....*~".,
440128c0:	259c 2a89 2be7 29c0 2cb3 a826 a72f a63e     .%.*.+.).,&./.>.
440128d0:	1dbb 9e68 ab00 2482 3096 a93a 201d 08df     ..h....$.0:.. ..
440128e0:	29df 2dfa 2c51 22e3 1ee9 2684 a7d1 a824     .).-Q,."...&..$.
440128f0:	1c12 a7c4 a804 246e 2924 ac7a a41c a0d4     ......n$$)z.....
44012900:	ad71 ae35 ac24 2866 ab29 242f 21b7 27d4     q.5.$.f()./$.!.'
44012910:	2cba ad18 2e5e 2d8e 25d9 ac47 b026 2a3e     .,..^..-.%G.&.>*
44012920:	29c4 ab7a addc a8a1 29ac 91a1 af9b afe0     .)z......)......
44012930:	20e2 a6e2 a8e0 27af 9c46 2519 ab48 2609     . .....'F..%H..&
44012940:	2c84 28ce b15b 2da9 2ee3 9e04 a749 b096     .,.([..-....I...
44012950:	2da5 a2af ae54 aee6 248d 1d94 296f 2417     .-..T....$..o).$
44012960:	9d76 28f4 2d55 2d33 2888 2bda 28d3 98a0     v..(U-3-.(.+.(..
44012970:	211d a5b7 1c65 a7a9 ab85 ab65 ab62 2a54     .!..e.....e.b.T*
44012980:	2e93 2ad3 2b68 22f5 a62b 2b4b 280c 2d93     ...*h+."+.K+.(.-
44012990:	2a4e 2c95 9dc5 a691 a721 a58d 2ab4 a979     N*.,....!....*y.
440129a0:	ab5d a6ab a9c1 2bcc a7b5 281d 2d47 a85a     ]......+...(G-Z.
440129b0:	253c 22e3 2691 a4b1 a9b5 a92a 237e 2953     <%.".&....*.~#S)
440129c0:	2aaa 1474 aecf a273 a405 27d9 a83e a623     .*t...s....'>.#.
440129d0:	260c afe6 2846 27bb a178 263f 2d42 2e2b     .&..F(.'x.?&B-+.
440129e0:	2734 adb1 ab72 309f 2643 a44b 1f0f 2b32     4'..r..0C&K...2+
440129f0:	9497 2fa8 2b1c a4b0 1ddc 2e9f 2ee6 29a1     .../.+.........)
44012a00:	2c0a 2581 23e8 acca ac3b ab8f 994a acdd     .,.%.#..;...J...
44012a10:	a3b3 a937 27a3 2088 a8c2 29be aa4b 1014     ..7..'. ...)K...
44012a20:	2441 a816 2b90 a833 25de 2617 281f 9a58     A$...+3..%.&.(X.
44012a30:	9926 a541 21ce 1a73 a2ac 2621 9904 a453     &.A..!s...!&..S.
44012a40:	982c 21cd 2a89 1401 ac10 1571 2b60 29d3     ,..!.*....q.`+.)
44012a50:	a447 a4bb 2ab0 2d09 a656 ac47 ac1d 2a55     G....*.-V.G...U*
44012a60:	a832 a23f a6b9 2adf ad02 ab10 26d8 a098     2.?....*.....&..
44012a70:	af02 28bb 2ba5 299e ab04 abc6 29e1 2892     ...(.+.).....).(
44012a80:	a962 2a63 27fd 2486 2dc2 2692 0c79 af46     b.c*.'.$.-.&y.F.
44012a90:	201a ac0a af20 2966 22f9 a3c6 2209 1ff6     . .. .f)."..."..
44012aa0:	2d0f 2f2a 2dd3 2d65 2b51 ac96 24d1 2b73     .-*/.-e-Q+...$s+
44012ab0:	a717 adce ad0c 2d79 2865 2572 a5c5 a6f7     ......y-e(r%....
44012ac0:	272b a5c7 8e80 9742 a920 ac4f 2817 a99e     +'....B. .O..(..
44012ad0:	9cde 25fd a57f ae9e 2850 2bf8 2d3a a579     ...%....P(.+:-y.
44012ae0:	2aa5 2d51 2abb 2cba 2555 2b88 a467 1a77     .*Q-.*.,U%.+g.w.
44012af0:	245a a03a 2c3b 2ace 2cf5 99ba 284a 2d32     Z$:.;,.*.,..J(2-
44012b00:	234c 2342 26b7 29bf abf5 af0e a4e7 2cba     L#B#.&.).......,
44012b10:	a54f a596 97fd 26ba 2ae1 a8db 2c50 2d16     O......&.*..P,.-
44012b20:	2b51 253a a99b 2fc5 309b 2ebe a2c2 a9d6     Q+:%.../.0......
44012b30:	24ee 29ce a23d 29ce 2ac0 b046 b052 aadc     .$.)=..).*F.R...
44012b40:	2d77 2bde b28c a960 287b 2978 29f8 2d54     w-.+..`.{(x).)T-
44012b50:	2cf6 27d6 2c7f 2c4b 2484 2b39 9665 1abe     .,.'.,K,.$9+e...
44012b60:	2968 aad4 ac16 ab31 21d6 a402 a762 a4e8     h)....1..!..b...
44012b70:	2531 27b3 a5b4 2cb4 2951 9f0e 25a9 2c31     1%.'...,Q)...%1,
44012b80:	1574 a795 1c9b a4f5 ac72 a70b a69a 9dff     t.......r.......
44012b90:	a363 a3fd 2340 a6c0 a5e3 acc4 a49a abd4     c...@#..........
44012ba0:	25c3 a2a7 aacd a8d7 a6e9 a962 a408 a5ae     .%........b.....
44012bb0:	acc9 28e0 a581 2aae adf8 ae83 2a57 26d1     ...(...*....W*.&
44012bc0:	1acb ad47 a44f 2c04 2939 24be 28bf 2f3c     ..G.O..,9).$.(</
44012bd0:	243a 252a a88b 256f 28c8 af89 a669 a814     :$*%..o%.(..i...
44012be0:	a722 ac07 af53 8f19 a43c 2825 3045 a988     "...S...<.%(E0..
44012bf0:	2d0f 2743 2ddc 2903 2b04 2a21 2f0f 29dc     .-C'.-.).+!*./.)
44012c00:	aa8c 1591 a791 0157 2a03 ab27 2d13 292e     ......W..*'..-.)
44012c10:	3050 2d40 a6f4 28b9 24fe 2d90 2c61 254b     P0@-...(.$.-a,K%
44012c20:	2900 2891 2046 a7f0 b0b7 29ba 1def 1efd     .).(F .....)....
44012c30:	2859 a39d af63 a920 284f 2f42 281d aaba     Y(..c. .O(B/.(..
44012c40:	2ba3 2fa5 2c13 a761 a77d 2c8c 2906 2bc7     .+./.,a.}..,.).+
44012c50:	b13b 2ea0 2bb1 29f9 ad0f b27c 22d2 9cfe     ;....+.)..|.."..
44012c60:	2e17 2f8e 3088 a707 251b 3083 3038 302e     .../.0...%.080.0
44012c70:	9dc7 1db8 33ea 2a43 a9f1 26b1 a9ba ab69     .....3C*...&..i.
44012c80:	ad7a a449 a865 290a a64f 2e56 2dae 258a     z.I.e..)O.V..-.%
44012c90:	2804 a4bb 1162 acd2 a814 2abe a8c7 ac6b     .(..b......*..k.
44012ca0:	9de4 a632 2838 a972 a2c6 a76c abae ab83     ..2.8(r...l.....
44012cb0:	a8ad 2561 1cad a526 a403 241d a98a 2080     ..a%..&....$... 
44012cc0:	267a 2caf a36d 1448 9e36 ab98 ac33 280d     z&.,m.H.6...3..(
44012cd0:	1d06 ac60 9d4e 2ab9 2ace a8d1 abba ace5     ..`.N..*.*......
44012ce0:	23c8 2baa 2830 acea 9fb6 2382 a257 2b69     .#.+0(.....#W.i+
44012cf0:	a9a2 2ab7 2df9 2acf 295b 2df1 9843 112c     ...*.-.*[).-C.,.
44012d00:	a1d0 2ea7 25e0 aa1a 2d78 2fa5 a476 afe7     .....%..x-./v...
44012d10:	a9a3 ac19 ab48 24fd 283d a04d 2872 2c7e     ....H..$=(M.r(~,
44012d20:	2d6f 29e3 213e 1adb 2e27 2995 acbc 24e5     o-.)>!..'..)...$
44012d30:	a8f3 acf8 a58d 28ad a437 a678 23ea 2962     .......(7.x..#b)
44012d40:	a927 ac36 af1c 1956 2be4 a6e9 24b7 a2aa     '.6...V..+...$..
44012d50:	2e1b 281a a95b 2080 21d0 944b a863 2651     ...([.. .!K.c.Q&
44012d60:	a92b a813 1486 2cb7 2733 a6da a1ca 1744     +......,3'....D.
44012d70:	9014 ab96 a942 2c2e 2c81 25ba af47 a636     ....B..,.,.%G.6.
44012d80:	2e32 297a 20fb afcc 289e 272c 28b9 2e8d     2.z). ...(,'.(..
44012d90:	2d42 2049 1cfc 2cf9 2ce3 a4bf aead 23ae     B-I ...,.,.....#
44012da0:	28fa 289b afbf ae92 a4fa 228c 31bf 32e0     .(.(.......".1.2
44012db0:	ae7d aa52 9fc0 2f8b 2c4a 2326 a857 ab43     }.R..../J,&#W.C.
44012dc0:	aaad ae0b 9c77 1ca7 2aa3 2e10 2d9f a759     ....w....*...-Y.
44012dd0:	2da8 2d41 2cf5 aa11 9f33 a3cd 24fe 2885     .-A-.,..3....$.(
44012de0:	ad7e a74c aa07 23e6 2c05 2644 a919 a40e     ~.L....#.,D&....
44012df0:	29bd 2a15 ab37 a743 abf6 a54d a78f 2632     .).*7.C...M...2&
44012e00:	ad37 a7f9 a81f 2959 aa1b 2004 9dbb a867     7.....Y)... ..g.
44012e10:	aa09 20cc a37f 2429 a4f7 a617 2027 a3f9     ... ..)$....' ..
44012e20:	a6d9 ab37 1906 96f7 28d6 2987 a9d7 a307     ..7......(.)....
44012e30:	a83d 284f aa95 a60e 9b8b 24d7 2687 a12d     =.O(.......$.&-.
44012e40:	2d2b 2857 ab74 994b a687 acd0 2aad 2c4d     +-W(t.K......*M,
44012e50:	af35 aa04 a973 ac39 9cf2 2c02 2b4a 244f     5...s.9....,J+O$
44012e60:	a867 af1e 309a a890 a0f3 24b9 277e a258     g....0.....$~'X.
44012e70:	a9f2 ad18 a0f5 a5f1 a9ee 2412 2c9c a02c     ...........$.,,.
44012e80:	23a7 2b81 132f 22ea a016 a8ff a91e 8cab     .#.+/.."........
44012e90:	29bb a341 a4dd a57e ab15 24d2 aada ae10     .)A...~....$....
44012ea0:	2591 a10a a9ae abb2 ab45 a576 2455 2486     .%......E.v.U$.$
44012eb0:	9f10 aad1 1a4b 22b3 28a4 a5f5 230a 27ad     ....K..".(...#.'
44012ec0:	a801 1ac8 2526 2257 1c5f a69c a9de 083f     ....&%W"_.....?.
44012ed0:	2532 28bb aab3 a473 a856 a66a a6a2 2881     2%.(..s.V.j....(
44012ee0:	1bad aaf2 ab61 9a16 1f1b 2394 ab69 a38c     ....a......#i...
44012ef0:	19e8 a7ce 24c6 1926 24eb a007 1b77 a22d     .....$&..$..w.-.
44012f00:	a8d6 2639 a3ae a9d6 ab47 a24f a996 abd4     ..9&....G.O.....
44012f10:	2758 21f2 24eb a9a1 2694 210b a107 9845     X'.!.$...&.!..E.
44012f20:	a771 2476 2841 2858 a8b2 24d1 2137 abd5     q.v$A(X(...$7!..
44012f30:	a700 aa8b aa9e a992 a220 2892 a831 aa3b     ........ ..(1.;.
44012f40:	a4c3 8efa a4d5 9b85 26c9 a6f7 a878 1d5e     .........&..x.^.
44012f50:	a74b 23cf a507 a400 a734 9cac 27cc a9e2     K..#....4....'..
44012f60:	2721 ab8e 2493 aa82 aa53 24fa 224a 1df4     !'...$..S..$J"..
44012f70:	a920 a8f3 2536 2ac5 22a6 a140 2892 25f5      ...6%.*."@..(.%
44012f80:	2388 a2dd 257f 284e 9fd3 26fe a368 ab26     .#...%N(...&h.&.
44012f90:	a6f6 919c 293e 2a99 1c92 a7ab 284f a9f1     ....>).*....O(..
44012fa0:	2790 2848 274e aad0 24b1 207e 22b7 a7bc     .'H(N'...$~ ."..
44012fb0:	aac3 2562 a970 a8e0 a431 a883 21cd 2781     ..b%p...1....!.'
44012fc0:	a967 ab96 2365 a51f abd5 21e4 244d a400     g...e#.....!M$..
44012fd0:	089b 281b ac12 1ba5 a696 2516 ab59 2822     ...(.......%Y."(
44012fe0:	a87b a90f 247b 2818 a97f a90b a375 259f     {...{$.(....u..%
44012ff0:	9e25 a4dd abb0 a914 1db3 a650 a97a 2b9e     %.........P.z..+
44013000:	1d81 a7c6 a8e8 2aeb 1eb0 aa96 a7c3 286f     .......*......o(
44013010:	a968 9d86 a91b a409 2a4a a6c7 a771 26b6     h.......J*..q..&
44013020:	215d 25d2 a369 a5c3 285f a8e1 1d35 14fd     ]!.%i..._(..5...
44013030:	aae9 2ad9 ab5b aa6b ab21 a28d 1f66 27ae     ...*[.k.!...f..'
44013040:	2876 2825 a57e 2199 a97c a4e4 1a91 1a05     v(%(~..!|.......
44013050:	ab4d 2840 a967 27f7 ab52 ab37 23fa a15c     M.@(g..'R.7..#\.
44013060:	a911 ab73 25f0 aaf0 a54a 23aa 1f41 aa48     ..s..%..J..#A.H.
44013070:	ab31 a20f a9c5 9d86 1cac a9b7 a567 9f63     1...........g.c.
44013080:	0e7b a9e4 a571 1e02 a600 a432 aa61 27e8     {...q.....2.a..'
44013090:	a067 a3f7 204d 2470 2741 2868 a521 a34a     g...M p$A'h(!.J.
440130a0:	a18f 1e70 aa53 2759 a4fb a9fd aa49 aac7     ..p.S.Y'....I...
440130b0:	a0b4 232b 266e a813 2441 26d1 a86b 250f     ..+#n&..A$.&k..%
440130c0:	a83e 1fe4 aa1c a50f 244e 280c a977 1a37     >.......N$.(w.7.
440130d0:	a34a 9f74 a049 a626 aad2 abc2 245d a3ab     J.t.I.&.....]$..
440130e0:	a72d 29a6 207e aacf 2545 9f37 9d9a 28c6     -..)~ ..E%7....(
440130f0:	a842 a7b3 28f6 a57d 9f93 238b a92e a475     B....(}....#..u.
44013100:	1c6e 281e 208a a2ac a8ed 2757 a842 28a6     n..(. ....W'B..(
44013110:	1c31 a6bd 220d ac0f 27f3 a496 0a98 aaa6     1...."...'......
44013120:	9e12 14c7 2415 a53e a64f 9ce0 1410 abe7     .....$>.O.......
44013130:	224a ab3e abd9 a2b3 289b 21cc 203f 24f0     J">......(.!? .$
44013140:	a49d a5dc a599 a627 1f5e a966 2088 9c73     ......'.^.f.. s.
44013150:	a325 271d 27ce a9f7 a952 a810 1bc5 aba5     %..'.'..R.......
44013160:	124c 22f8 a6ef 2995 93a2 a8f5 a876 2b97     L.."...)....v..+
44013170:	2682 2699 229c 9cfe 2817 1428 aa21 abc6     .&.&."...((.!...
44013180:	a92a 2799 a34c a9e1 a79a a41c 2443 2345     *..'L.......C$E#
44013190:	266a 9cb4 2802 a792 a892 ab74 2b03 247c     j&...(....t..+|$
440131a0:	21f1 a856 a509 a8f2 aa60 a6d2 a9b0 200d     .!V.....`...... 
440131b0:	abb0 21ed 27fc 27df a991 2824 ab42 280d     ...!.'.'..$(B..(
440131c0:	a6ce 2859 2094 a00d a90f aab6 a420 276e     ..Y(. ...... .n'
440131d0:	a37c 9a66 ab98 a437 a97b a1da aa1a 26b5     |.f...7.{......&
440131e0:	1af4 27d9 a949 26b1 2837 289b a920 115e     ...'I..&7(.( .^.
440131f0:	ab62 8d43 1f38 2a31 9e31 2220 9d3e a40f     b.C.8.1*1. ">...
44013200:	2894 a993 ab0e 274a ab09 ab0a 9ef3 a0d7     .(....J'........
44013210:	ab07 1e87 a11e 2423 9ffb a898 a97a 2503     ......#$....z..%
44013220:	28c9 2902 a208 a8e2 a873 a904 a23b a386     .(.)....s...;...
44013230:	21e8 a67a aa0f a7fd 224d a6f2 9e64 a404     .!z.....M"..d...
44013240:	2633 a3b6 1e6e a735 a949 a469 25fe 20f0     3&..n.5.I.i..%. 
44013250:	22d2 a5fa a99e 22df 26e6 a82e a8ad 24be     .".....".&.....$
44013260:	aa36 283f 25d9 a585 286c a9a3 a9e6 2499     6.?(.%..l(.....$
44013270:	a8e5 21c4 a8f5 aa22 20b5 1f9a a61f 24e9     ...!..".. .....$
44013280:	202e 1fee 2865 29fd 28b8 2310 a1c7 1627     . ..e(.).(.#..'.
44013290:	a946 a951 2710 a67b 9d32 2335 a1ce 2806     F.Q..'{.2.5#...(
440132a0:	9841 a781 252f a5c3 a76c 99e2 1ce2 a972     A.../%..l.....r.
440132b0:	a931 210a 2109 a0ee a626 8653 ab2f aae8     1..!.!..&.S./...
440132c0:	a842 ab37 aa28 a9e5 1ddd a8c0 a593 284b     B.7.(.........K(
440132d0:	ab30 a4d4 a775 a204 186c 19d7 aa5e 24bc     0...u...l...^..$
440132e0:	9279 20d1 2845 a91e 286c 27c8 1d30 2907     y.. E(..l(.'0..)
440132f0:	1c36 2118 2110 1e5e 9184 2634 2582 2682     6..!.!^...4&.%.&
44013300:	2281 a71d 27a1 a6cc a74c a937 a8ce 2872     ."...'..L.7...r(
44013310:	a7a0 a7b2 27fd 284c a4c5 aa39 11f0 a86c     .....'L(..9...l.
44013320:	9f2b 2256 a8c1 ab21 a93e aaa8 9fb0 aa20     +.V"..!.>..... .
44013330:	2383 ab31 ab08 a99a 20de 2810 277d a414     .#1...... .(}'..
44013340:	a3f9 a7f5 a84d ab16 2609 a073 2083 a475     ....M....&s.. u.
44013350:	a0c2 ab0d ab4c 0bb7 28f6 2391 aa93 a8b4     ....L....(.#....
44013360:	219b a9cb 292e 2838 1b6e aa6f a6bf a891     .!...)8(n.o.....
44013370:	aa24 9786 9896 ab90 2807 27b1 1c4d 1c85     $........(.'M...
44013380:	aa1e 2681 ab75 a696 a075 96dc a816 a313     ...&u...u.......
44013390:	25fb 9e60 a937 a930 a805 25a8 a8ab a22a     .%`.7.0....%..*.
440133a0:	a272 a58f 28bf ab1b 291c 96e7 ab72 1f0c     r....(...)..r...
440133b0:	a6dc a48e ab1a 1ecf 2223 273f a30d 166b     ........#"?'..k.
440133c0:	28c4 a5ba 2525 938e 1a94 2851 a613 244a     .(..%%....Q(..J$
440133d0:	a7a8 2433 a8b4 a84d 222c 2515 a00b 970f     ..3$..M.,".%....
440133e0:	1cbc a9d1 9abb aa1d 2a54 2540 23f4 1f75     ........T*@%.#u.
440133f0:	25ff 2282 a152 9f37 25e5 a5a0 a86a a165     .%."R.7..%..j.e.
44013400:	9af4 a813 a356 244c 22d6 1cc8 253b a585     ....V.L$."..;%..
44013410:	a74b 269f 242e a9f1 a0f0 280d 21a6 a08e     K..&.$.....(.!..
44013420:	a561 aa3d 9c4b a885 a989 a80d 1864 a137     a.=.K.......d.7.
44013430:	aa07 a7bf a8f7 2561 1bb8 27ea 1d09 a829     ......a%...'..).
44013440:	a586 2201 98bd aa76 a2f0 2892 2920 214a     ..."..v....( )J!
44013450:	aa1b aaaf 1fad a96f a68f a713 a64f 1f7f     ......o.....O...
44013460:	a8cc a9d6 aa7f 9c8b 206f a92d 1dc1 a93a     ........o -...:.
44013470:	a729 2690 967e 2473 28cd 8ca0 a43a 28db     )..&~.s$.(..:..(
44013480:	208f 20f2 26a6 a4a0 a3a7 244e 2160 2415     . . .&....N$`!.$
44013490:	a79b 212f 9aeb 25f0 a31f a8e6 a990 a4f8     ../!...%........
440134a0:	a79d 942f 2966 a9cd a3dd 2612 a040 a90d     ../.f).....&@...
440134b0:	11ce 1825 a1de a37d 16bf a728 a4d3 2431     ..%...}...(...1$
440134c0:	1e69 16d4 9d3b a645 2829 28c1 a052 ab42     i...;.E.)(.(R.B.
440134d0:	a417 a132 aa15 a642 192b ab3c a91e a54a     ..2...B.+.<...J.
440134e0:	a9d9 23da a8f9 2270 aa49 28a8 9d9e 0f93     ...#..p"I..(....
440134f0:	2403 a0f6 a4f6 aa82 a339 24fe 24b1 a69b     .$......9..$.$..
44013500:	a8f8 a866 9fff a922 1eca 8200 a598 9c94     ..f...".........
44013510:	a8e4 a636 a015 21b3 2830 a141 29f9 a742     ..6....!0(A..)B.
44013520:	26c1 ab8d a56b 27e8 2325 254c a9e8 1fd7     .&..k..'%#L%....
44013530:	a958 1884 aaa8 a242 a55a a7bf 194c a9da     X.....B.Z...L...
44013540:	2886 a4c1 254a a720 a9a9 9f37 a9f6 a6d9     .(..J% ...7.....
44013550:	27f4 15e6 a367 2268 24bb 1efd 9e0b 26da     .'..g.h".$.....&
44013560:	a0a2 a9e5 a6f7 a837 215b 9f4c abac 264c     ......7.[!L...L&
44013570:	a424 9a96 9903 9cec 9ace 9dd0 289a ab24     $............($.
44013580:	a600 a2de a660 a81e a44b 288f a83c aa3f     ....`...K..(<.?.
44013590:	ab80 283d a4b1 25c3 ab2a 20eb a6dc a607     ..=(...%*.. ....
440135a0:	a544 20ff 9884 9d34 2921 9b7e a7c0 a7e2     D.. ..4.!)~.....
440135b0:	2522 2909 9dde a4df a020 29c1 a358 a887     "%.).... ..)X...
440135c0:	a9c0 2867 a473 a40a a8d2 1cb1 23ee 290d     ..g(s........#.)
440135d0:	2483 285d 276d 2163 9f6f ab11 a081 2449     .$](m'c!o.....I$
440135e0:	aaab 27eb a410 a0be a90a 20d5 2592 aa52     ...'....... .%R.
440135f0:	a8ef a3f8 a8ee a739 aabb 9eb0 a0f6 2862     ......9.......b(
44013600:	abd5 aa40 a683 a692 ab5e 9b78 a357 1eb3     ..@.....^.x.W...
44013610:	2462 a045 a97b 2a41 29c3 a811 a718 a965     b$E.{.A*.)....e.
44013620:	ab18 a5e4 2890 99ff aa19 a622 a37e a135     .....(....".~.5.
44013630:	9d22 25ad a20e a6a1 27bd aadd 1f80 a011     "..%.....'......
44013640:	24de 1e4d 2790 ab27 2927 2540 201e 2738     .$M..''.')@%. 8'
44013650:	ab49 2577 2823 a1c8 a48f a0cc 94a8 9f8d     I.w%#(..........
44013660:	2a26 a909 9d61 a2a1 16d5 2143 a294 29ce     &*..a.....C!...)
44013670:	aa7d 290a a822 9fe9 252a 26c7 2421 21a3     }..)"...*%.&!$.!
44013680:	0bb9 9bf1 ab76 224d 2631 9d5b ab67 a97e     ....v.M"1&[.g.~.
44013690:	a74c 28cd 2026 9c2f a9ef 28d1 a541 a858     L..(& /....(A.X.
440136a0:	1b99 9d2e 1d76 a401 2613 a8fb a5a5 aa0e     ....v....&......
440136b0:	24d9 a816 a0d1 26ae 24e2 2110 a72e 217f     .$.....&.$.!...!
440136c0:	2a26 19c0 9728 a7cd abd8 19d2 25c6 aa79     &*..(........%y.
440136d0:	276c a753 a887 2437 aa47 a583 24c4 2819     l'S...7$G....$.(
440136e0:	ab93 a8b3 ab9c a8e7 a52a a663 ab78 a5ca     ........*.c.x...
440136f0:	aa1a a958 994a a983 a932 a24d 2711 28d9     ..X.J...2.M..'.(
44013700:	ab7c 28c2 25c2 a6f2 9e5d 28cb 980e a47d     |..(.%..]..(..}.
44013710:	28d0 a9f5 a921 9072 99c7 aa4b a8a4 289f     .(..!.r...K....(
44013720:	29e4 a410 a794 a526 2761 a8a8 a021 aa2e     .)....&.a'..!...
44013730:	a284 9f9c a424 a997 212e 9e5e 9f8d a90d     ....$....!^.....
44013740:	9995 a0ad 2662 9194 a750 21e9 a401 a724     ....b&..P..!..$.
44013750:	1e9d 1b81 2600 1d84 aa5f aaeb 20cb 1c19     .....&.._.... ..
44013760:	232e 283d a60d 9545 957a 287d a092 259b     .#=(..E.z.}(...%
44013770:	2539 2376 28aa 1d01 24e2 a909 1bec a7d2     9%v#.(...$......
44013780:	a0cd 2720 a4b4 9e45 2584 a66f 234c a1f3     .. '..E..%o.L#..
44013790:	a5fe ab97 20c5 aaac 266a 283b a6fb 228a     ..... ..j&;(..."
440137a0:	2422 2502 ab45 2493 24cd a740 169c 291b     "$.%E..$.$@....)
440137b0:	a9fd 21ac a5db a4e5 a978 a898 173c a0d6     ...!....x...<...
440137c0:	a9e6 1a5f 28aa 8eba 1f5f aa28 a539 aaa9     .._..(.._.(.9...
440137d0:	2034 92c1 1ea4 28dd a7d2 1cce a7b1 a78b     4 .....(........
440137e0:	2552 a80e a67e 25f8 1d6c a954 aa15 2780     R%..~..%l.T....'
440137f0:	aa39 27f5 a885 9c65 a939 9431 a852 a927     9..'..e.9.1.R.'.
44013800:	21ed a83d a88e 9d58 ac51 1d8f 1e49 2558     .!=...X.Q...I.X%
44013810:	1ccf a932 aa16 a85c 2846 a453 2768 9dab     ..2...\.F(S.h'..
44013820:	a062 2404 1bfc a462 2294 a97a ad3f 29fd     b..$..b.."z.?..)
44013830:	a748 2b26 29d2 2360 a6f0 acbc 2959 2b70     H.&+.)`#....Y)p+
44013840:	a95c 24bd abfd ab64 24f7 a0ad 298c 18e7     \..$..d..$...)..
44013850:	a00b 9e3f 2a7b 2a85 92ee ab8b ac36 a2e9     ..?.{*.*....6...
44013860:	2c2e ac8d ac10 282d 288b 3023 2ee8 a804     .,....-(.(#0....
44013870:	1cb3 204e 2b08 2b96 ad45 2339 a4c6 a7fa     ..N .+.+E.9#....
44013880:	ab0f 2b49 2484 a487 941d a4ce 2ef9 2bd3     ..I+.$.........+
44013890:	21f3 1a3e a07e a8dd 256b 3030 2c40 2ed4     .!>.~...k%00@,..
440138a0:	a319 222e 2a94 28dd aec8 a9ee aace ac1c     ...".*.(........
440138b0:	adb4 af8e aa37 ab15 a991 2bfc 1985 ae6c     ....7......+..l.
440138c0:	a84f 2868 2d82 2bc1 a951 2a64 3123 323f     O.h(.-.+Q.d*#1?2
440138d0:	2d0f 2bd8 2cae 2c58 a808 b21c a938 ad16     .-.+.,X,....8...
440138e0:	a8b4 adaf acfb ae68 ad5d 2c5c 9c20 2d32     ......h.].\, .2-
440138f0:	a4ea a12d 2d09 2b8d 9df2 2bf3 29b1 ac39     ..-..-.+...+.)9.
44013900:	aed9 aee1 a7af 20c5 a75a 22b7 a293 a97f     ....... Z.."....
44013910:	2c2d 2d53 27de 2a20 2afb 288e 2cb0 27a6     -,S-.' *.*.(.,.'
44013920:	2202 2904 1f9f 0dd5 293f 2599 a86c a6a1     .".)....?).%l...
44013930:	a248 a40d 141f a57e 9813 2a7f ac49 a261     H.....~....*I.a.
44013940:	2b0e 22a7 1f37 acb2 a4f9 9ffd a1c6 9cd0     .+."7...........
44013950:	128d 2841 a93d aa8e 2104 2889 9f2e 2933     ..A(=....!.(..3)
44013960:	2d02 309f 2f05 28f6 aa42 1eb9 2a37 1ed7     .-.0./.(B...7*..
44013970:	ab2a ab71 2c17 a5f7 a605 acfa ae4f a36b     *.q..,......O.k.
44013980:	a856 2b44 2853 adec 98fd 15cf 9686 26e6     V.D+S(.........&
44013990:	2972 96e3 a28a a7cf 2d1b aac3 a44b aaf8     r).......-..K...
440139a0:	202a 2c09 2ada 2a5f 2503 24ba 29d1 2650     * .,.*_*.%.$.)P&
440139b0:	2d75 29e3 2b42 a53b a0d0 1897 2951 25b6     u-.)B+;.....Q).%
440139c0:	20fa a8e2 a81d aba1 28b7 2cce a8f6 205a     . .......(.,..Z 
440139d0:	20a3 a362 a870 28d3 2726 23bd 17b3 a4dc     . b.p..(&'.#....
440139e0:	2302 2095 8b8e 2c94 a2f6 2bed a270 a7cf     .#. ...,...+p...
440139f0:	9e8f 24ed 2bfc 2463 2f07 2c20 295e 163e     ...$.+c$./ ,^)>.
44013a00:	296c 189f aa0a b0b8 9cf1 2b61 9eb7 aa75     l)........a+..u.
44013a10:	af16 acd0 1f2a a6f0 244a 2484 af05 a90d     ....*...J$.$....
44013a20:	a7d9 2314 a819 2732 ae76 ad83 2b8d 3020     ...#..2'v....+ 0
44013a30:	ae00 1d0d 1bd1 2323 3018 28e8 99c2 a424     ......##.0.(..$.
44013a40:	ac84 b1ba a804 a465 2bad 27e4 9908 20b3     ......e..+.'... 
44013a50:	2c8c 2c36 2e55 2c20 2283 a926 aba0 8ebe     .,6,U. ,."&.....
44013a60:	248d 18f1 1a9c 2278 275b 9d9d a8f9 2b43     .$....x"['....C+
44013a70:	2980 16fa aad7 2cae 2895 2687 a789 a53f     .).....,.(.&..?.
44013a80:	2567 2118 a9ac a4e9 2a0b 99d7 a012 9d29     g%.!.....*....).
44013a90:	a36d a119 a467 2498 ab60 24fe 1615 9eab     m...g..$`..$....
44013aa0:	294a 2a13 2c56 24ba 2d29 9887 a5d5 2b65     J).*V,.$)-....e+
44013ab0:	27b8 a6c8 a99d 8c5b 29b1 a120 ab89 aa6c     .'....[..) ...l.
44013ac0:	a959 ac99 aa9c a234 a4f2 1dc6 2894 2b19     Y.....4......(.+
44013ad0:	a007 a1f1 290c 2dea 2dbd 2ebd 2ff5 0c34     .....).-.-.../4.
44013ae0:	24cf a92d 2fbb 2ad8 2486 0f7f 9662 a4ea     .$-../.*.$..b...
44013af0:	a47b ad2e ad4f 2a33 1ebc 1715 2686 a225     {...O.3*.....&%.
44013b00:	25ed 21d3 2ca6 2d68 2a36 a387 a47d 94f2     .%.!.,h-6*..}...
44013b10:	28e8 2912 23ee 280a acd6 2abd a333 a75e     .(.).#.(...*3.^.
44013b20:	1819 a56a 2078 a99b 9153 a4c5 a741 25d1     ..j.x ..S...A..%
44013b30:	1efb a687 acb6 acc1 a946 ac78 a815 acbb     ........F.x.....
44013b40:	1b5a a29e ac78 a761 271c abaa abd1 a5b6     Z...x.a..'......
44013b50:	ac90 a790 a84b 2478 1e58 a9a9 1e64 9ccf     ....K.x$X...d...
44013b60:	ac0e ab5e aa01 2555 9c32 ac28 9564 2435     ..^...U%2.(.d.5$
44013b70:	aa5a ac4f aa1a a9a4 2422 243d a437 25a9     Z.O....."$=$7..%
44013b80:	9715 aa4c 1dff a30d 9091 a860 a9e5 ac34     ..L.......`...4.
44013b90:	ac62 9b28 ac7d a5cf 1b04 2829 a7e1 2011     b.(.}.....)(... 
44013ba0:	112c a51a a946 a4a1 24fb ab15 a750 249e     ,...F....$..P..$
44013bb0:	2482 2851 1a74 9abd a99e 27c4 aa53 2775     .$Q(t......'S.u'
44013bc0:	a542 a9c2 a67d 248f a407 a9d8 ac3a ab78     B...}..$....:.x.
44013bd0:	a69b a824 a605 9bb3 2562 29f2 a8d9 ac10     ..$.....b%.)....
44013be0:	a15c a1f2 a76c 2675 aa4f 9fb6 a4f7 28d8     \...l.u&O......(
44013bf0:	9bb1 aada 25f6 ac83 256b 2ada ab13 9eab     .....%..k%.*....
44013c00:	a672 26c3 2008 ac45 2611 9f6f a5d2 a6a2     r..&. E..&o.....
44013c10:	26e5 a5dc a84c a7f2 9eb0 aa14 a30f a550     .&..L.........P.
44013c20:	a96e a8a4 a685 ac2a 2588 a870 ab1c a043     n.....*..%p...C.
44013c30:	a023 ac52 a835 aa75 9c13 0bce abfc 19b3     #.R.5.u.........
44013c40:	aa58 aa52 ac18 26d0 a8b9 aba9 8d84 a9b9     X.R....&........
44013c50:	1a72 a40e a424 ac17 24a3 a407 a9c6 a383     r...$....$......
44013c60:	aa2b a5d0 ac1a ab92 ac16 ac14 ab44 26f4     +...........D..&
44013c70:	26d5 abad a783 a45c 20a5 1ce6 a479 a534     .&....\.. ..y.4.
44013c80:	2bc4 25eb 208c 2187 aa09 28db 2189 18f4     .+.%. .!...(.!..
44013c90:	a8ca a77e 9c01 a47c 231b 260f a0f1 2a48     ..~...|..#.&..H*
44013ca0:	ab06 1d44 2018 a945 ab64 a5ba ab7c ac48     ..D.. E.d...|.H.
44013cb0:	a5ff a06b 9fe2 171e a817 8fe2 abfe 9949     ..k...........I.
44013cc0:	1ce3 a897 a932 acfa a86b a42d aaa7 a94b     ....2...k.-...K.
44013cd0:	2217 a9b8 aa2c 2863 aa9d a88c aaff ab34     ."..,.c(......4.
44013ce0:	a1e3 ac3b a3e3 acba a81c a6a7 a9bd a7fe     ..;.............
44013cf0:	212c a8c6 a4e3 2032 194e a78d 9ecb abf1     ,!....2 N.......
44013d00:	a078 a91b a017 a58a a88f a79d a3bb ab21     x.............!.
44013d10:	a1f3 a626 a733 21d4 aa77 a6e4 a3a0 0ec0     ..&.3..!w.......
44013d20:	a658 281a aa37 aa5b a6e1 2580 a1b6 aace     X..(7.[....%....
44013d30:	1f5a ac38 a7f0 a97d 210c 20bc a6f7 25c5     Z.8...}..!. ...%
44013d40:	aa3e a79e acd1 1e03 ac5f aa37 ab79 a8e9     >......._.7.y...
44013d50:	1f31 aade aae4 a089 a9f9 a9cc ac58 a5fa     1...........X...
44013d60:	23ae a19e a9ed 9906 a7c2 a807 a9fd a9e0     .#..............
44013d70:	18f9 ac1d a87c 21fb a6f4 ab94 24b2 a95a     ....|..!.....$Z.
44013d80:	2435 abf1 24c7 aad9 ab02 ac9d 9fd6 ab38     5$...$........8.
44013d90:	1430 ac8a 9a24 a3bb ac47 a4e3 a64e a925     0...$...G...N.%.
44013da0:	a4c2 a257 ac3d a635 abf6 a02f aa63 ab75     ..W.=.5.../.c.u.
44013db0:	aaa4 aa3a 9df0 25b1 2672 9e8c a88a a238     ..:....%r&....8.
44013dc0:	255c ac72 ac36 ab8b ab8e a698 1db3 a4e9     \%r.6...........
44013dd0:	2468 201f a119 ac7a a9b4 abc0 a7f2 a44e     h$. ..z.......N.
44013de0:	aabe 9201 aca7 8cdf 1c6d aa96 95d4 2501     ........m......%
44013df0:	a527 abce a921 ab4c a63b a31c a686 2a37     '...!.L.;.....7*
44013e00:	a447 a8eb ac1f a61b a235 acc9 ad08 aba8     G.......5.......
44013e10:	abb6 a639 a134 a879 a83a aa66 abed a220     ..9.4.y.:.f... .
44013e20:	25aa a7a8 ab38 15c3 27ed a423 1acb 0b2b     .%..8....'#...+.
44013e30:	aa18 0880 98a8 275a a625 a8b7 9e20 ac13     ......Z'%... ...
44013e40:	27dc 27b3 2d26 2ae7 2080 a92f 1a2e 2c6b     .'.'&-.*. /...k,
44013e50:	285d a946 a283 285f 2212 2838 2855 a975     ](F..._(."8(U(u.
44013e60:	202c aa7a a254 a4eb 270f a99f a808 26e8     , z.T....'.....&
44013e70:	9d1d a723 2be6 2001 a188 acdc 2d67 3082     ..#..+. ....g-.0
44013e80:	267d 1859 1809 a509 1dce 301c 2c68 9587     }&Y........0h,..
44013e90:	abef 2543 94e3 2c4a a74b ac5d ae29 9691     ..C%..J,K.].)...
44013ea0:	2beb 28af ac1f a877 a834 a942 2aec aaa3     .+.(..w.4.B..*..
44013eb0:	a40b ac18 2801 2d13 aba3 2002 296c 2e45     .....(.-... l)E.
44013ec0:	2aa9 270b 98df 28e7 a57f a1b2 2e72 a79e     .*.'...(....r...
44013ed0:	29bb 2cce adc8 26bb 27e8 21dc 0d9e 1bac     .).,...&.'.!....
44013ee0:	a36a 2083 2bac a295 26bf ac2e adf0 1d30     j.. .+...&....0.
44013ef0:	a517 ad09 ad35 ae1c a714 228c a712 23bd     ....5......"...#
44013f00:	2e06 2d0e 30cb 30b7 22c2 1c9b a9f1 a5f8     ...-.0.0."......
44013f10:	305d 1f89 2242 a438 a119 ac02 282e a6ce     ]0..B"8......(..
44013f20:	181d a278 aee6 ae0b a7ef 2d29 2c13 1fcd     ..x.......)-.,..
44013f30:	ac70 1df3 3285 3232 3062 20c1 1cf5 9c3b     p....222b0. ..;.
44013f40:	2a4c 241a a12e 292d 2880 2aaa 2407 2e27     L*.$..-).(.*.$'.
44013f50:	3161 2c57 2e55 a7df 2d88 2ed2 2c07 a208     a1W,U....-...,..
44013f60:	a32d 2c56 298e ac6d 198e ae48 23fb 9f44     -.V,.)m...H..#D.
44013f70:	a7db a10b 2c7c a360 2c98 29c1 1fa3 244b     ....|,`..,.)..K$
44013f80:	21ef a8c8 257c 2b18 2b34 ae46 a799 a8ae     .!..|%.+4+F.....
44013f90:	2060 a60a aa52 9ec7 2bba a6a8 aae1 ad45     ` ..R....+....E.
44013fa0:	20c4 a91a a40d 2bb1 a91a a11d 167d 2e97     . .....+....}...
44013fb0:	2a62 abef a96d 1e1b 2d96 288c b05e ab38     b*..m....-.(^.8.
44013fc0:	27ed 2d74 a83e ae1a a36f 1dbc 2cee ac69     .'t->...o....,i.
44013fd0:	9eac a152 abcf ac80 2288 a5aa 1bea a5d2     ..R......"......
44013fe0:	a19b 2d6b 2e45 2b16 3167 2f25 2c3b 2b5f     ..k-E..+g1%/;,_+
44013ff0:	2798 2ac1 2889 a816 a9bb ac23 ab60 21a6     .'.*.(....#.`..!
44014000:	afa7 a4d0 1e47 2b3b 2684 2902 a95f a05f     ....G.;+.&.)_._.
44014010:	9e7e 2e39 2dc2 a8b1 29fe a03e a525 ac38     ~.9..-...)>.%.8.
44014020:	2915 a82d 1a1d 279c a324 a724 a0d7 a1c3     .)-....'$.$.....
44014030:	283c 295c ab67 9c3a a9c1 247a 288f a7f9     <(\)g.:...z$.(..
44014040:	2dd2 2b90 94eb 297c 2890 289d 2b10 2876     .-.+..|).(.(.+v(
44014050:	aad8 aa99 ab57 183b 2cbf 1f98 ac6b a47e     ....W.;..,..k.~.
44014060:	2c44 2d8f 2c6f 1cb6 a5d9 2e7b 2668 2e7c     D,.-o,....{.h&|.
44014070:	20ed 278a ab2b aa7c 2b23 ac10 a6aa a97f     . .'+.|.#+......
44014080:	a9d5 acb3 9c48 2c33 2b89 a45d afd0 2041     ....H.3,.+]...A 
44014090:	2ca2 258b 299a 28c0 274c 2a0a 2c08 2b7b     .,.%.).(L'.*.,{+
440140a0:	22f7 a4cf 2b3b 2ab1 a0a6 244d 2b54 17b6     ."..;+.*..M$T+..
440140b0:	2813 1f04 2a28 22fd 2420 ab97 264a a915     .(..(*." $..J&..
440140c0:	a64a aac6 ac78 23b1 9b22 a55a 2ad7 2579     J...x..#".Z..*y%
440140d0:	289b a8a1 20bc 2ae9 2a57 242a aad6 233b     .(... .*W**$..;#
440140e0:	2c0d 2e26 2a8b 263b 213e 2d99 a73e a579     .,&..*;&>!.->.y.
440140f0:	a4f2 21f8 155f ac29 acc5 2891 a9c9 ac0a     ...!_.)....(....
44014100:	a6f6 a982 22e1 ad01 9692 a26d ac4e a102     ....."....m.N...
44014110:	2607 2f60 2c56 a812 2b24 3331 2c70 aa0e     .&`/V,..$+13p,..
44014120:	aa9d a51f 3237 2ce8 ac9f a184 2486 2a78     ....72.,.....$x*
44014130:	2b09 2916 9813 2dad 2bdc 300c 2d50 29cf     .+.)...-.+.0P-.)
44014140:	28be 2c5c 2efe 2ac0 23e8 a53c aa81 aa81     .(\,...*.#<.....
44014150:	a68d 2439 acf6 a3a7 ad75 2642 2559 a954     ..9$....u.B&Y%T.
44014160:	23cb a891 a128 a8e8 28e5 2172 aa45 aab4     .#..(....(r!E...
44014170:	a8c0 24ee ab61 2846 26ff a859 2863 a414     ...$a.F(.&Y.c(..
44014180:	28d4 1d32 28a0 a955 9bef 276f a9b5 9f08     .(2..(U...o'....
44014190:	a822 2572 a9f6 a45b a9b8 1c3c a133 a7db     ".r%..[...<.3...
440141a0:	aafb a76c aa78 ab90 a3b0 2196 27c7 a80d     ..l.x......!.'..
440141b0:	ab1e 26c8 a1f3 a67f a9e3 a90a 28ea 2807     ...&.........(.(
440141c0:	a88b a62f 28b8 9d76 aa39 2a12 2701 a8c9     ../..(v.9..*.'..
440141d0:	a4a8 aac2 26ed a650 a926 a9d4 2898 2437     .....&P.&....(7$
440141e0:	aa16 a7a0 a9b9 a456 9051 1aa4 2282 a5c4     ......V.Q...."..
440141f0:	2194 a55c 25a6 ab7a a50f a075 28e9 a302     .!\..%z...u..(..
44014200:	a3e5 a52c a769 a823 a87c aa57 a1ec a9f2     ..,.i.#.|.W.....
44014210:	aa4c a608 a16a a0a0 a2b6 28ee 280e a947     L...j......(.(G.
44014220:	a7c3 a88d a30b 279e 10a5 2849 a4bb 2513     .......'..I(...%
44014230:	23a6 1e8d aaac 200f 237d 9e95 a810 a531     .#..... }#....1.
44014240:	aaff a770 a953 a204 a63f a901 97d3 28f8     ..p.S...?......(
44014250:	9de1 283b a0a1 aa3b 2a0e a5e4 2739 96e1     ..;(..;..*..9'..
44014260:	19f2 aa7d a8b1 ab4d 283e 25d0 9ce5 274a     ..}...M.>(.%..J'
44014270:	a947 a833 a9e0 9afb a49e a74d aa18 1e78     G.3.......M...x.
44014280:	2839 a8a8 a4f3 a55f 1634 aa4e 29a9 a7d1     9(...._.4.N..)..
44014290:	2107 aa27 a191 1f02 2955 a914 988d a7ab     .!'.....U)......
440142a0:	a389 2832 a42d a4f8 22b0 280c 27fa a5ba     ..2(-....".(.'..
440142b0:	26dd 9fea a16b a3af 2708 a92b a41e 1da8     .&..k....'+.....
440142c0:	a883 a572 a57d 27e4 2686 a77d 2963 28a4     ..r.}..'.&}.c).(
440142d0:	a791 a8e3 29c8 24df 2900 29f5 2921 26be     .....).$.).)!).&
440142e0:	aa5f a88e a9d3 1cd8 a959 195e a2b2 aaf6     _.......Y.^.....
440142f0:	a847 1ce0 a5f4 24cb a220 a8cf ab60 2465     G......$ ...`.e$
44014300:	a6e3 2239 a6aa a8f8 a28c aa58 9eaf a0a8     ..9"......X.....
44014310:	27df a8cc 2797 a92f a8a1 2561 26e3 a71b     .'...'/...a%.&..
44014320:	23c8 28e8 aa31 16e0 1fc8 2655 a9ce a7c9     .#.(1.....U&....
44014330:	23ba a94c a647 a983 262b a9a5 9229 27b8     .#L.G...+&..)..'
44014340:	a953 1d63 ab5a 227d ab5e 27ae 2817 a9aa     S.c.Z.}"^..'.(..
44014350:	aa71 28c4 a7b5 a2a8 26e6 a19c 25bd a859     q..(.....&...%Y.
44014360:	2439 a92c 2760 a9ac a86c a395 ab64 abb6     9$,.`'..l...d...
44014370:	a461 279a 9e91 2305 1ff6 a9bc a8d1 2564     a..'...#......d%
44014380:	9c99 a906 aab9 284c 25c5 a8ee a0ac a426     ......L(.%....&.
44014390:	aa10 9f27 27bb a84c 291a a747 2676 a627     ..'..'L..)G.v&'.
440143a0:	29ca 270b 2876 25c9 2986 2263 27dd aa71     .).'v(.%.)c".'q.
440143b0:	a69f 2a0e 89eb 215a a039 a1a3 a96b a392     ...*..Z!9...k...
440143c0:	1f16 a933 a982 aa65 21bb 282a 243c 9a8b     ..3...e..!*(<$..
440143d0:	a326 a949 2556 98d0 24e4 a48a a0bc a603     &.I.V%...$......
440143e0:	2707 1a01 a843 2429 a3d2 2439 a8a9 a32f     .'..C.)$..9$../.
440143f0:	27a1 9e6a 24af a65a 976f aa65 a881 28d5     .'j..$Z.o.e....(
44014400:	a453 22c9 224f 1e2f 25f9 ab24 23ff 28de     S.."O"/..%$..#.(
44014410:	a810 a724 a8af 2354 a845 9452 a97b 9c53     ..$...T#E.R.{.S.
44014420:	a673 259b a80a 1822 a5b2 a87f a087 a392     s..%..".........
44014430:	1ae9 a44c 253c a17f a6c4 991f 11ee a502     ..L.<%..........
44014440:	a0cf 28cb 1e34 a968 a95a aa78 26ee 965e     ...(4.h.Z.x..&^.
44014450:	24a0 1597 a97b aa20 a037 10c4 a9b1 aa3e     .$..{. .7.....>.
44014460:	ab07 9e24 2487 20e8 a409 ab89 9e0b 2264     ..$..$. ......d"
44014470:	aa0a 24d6 24b8 a34c a3c9 a5ed 1f12 10e3     ...$.$L.........
44014480:	2d01 94e9 1ecb aba7 acd2 29ea 281a a56f     .-.........).(o.
44014490:	2142 a38c 2c06 a243 a536 a870 2bc2 9f43     B!...,C.6.p..+C.
440144a0:	27ea 1d6a a768 9efd af47 aa09 abce aabf     .'j.h...G.......
440144b0:	acb3 2c7f 2cc4 2a9a a99d ac1f 2e1e 290b     ...,.,.*.......)
440144c0:	997a a535 ac51 a0b3 a621 2844 2d93 2510     z.5.Q...!.D(.-.%
440144d0:	220b a670 aa65 1961 20f5 a826 25ca 2937     ."p.e.a.. &..%7)
440144e0:	2b54 a557 aa61 a974 2333 a9f1 2c17 25d6     T+W.a.t.3#...,.%
440144f0:	a2ad 20c5 27dd 2c23 2a19 2d1b 2988 29c0     ... .'#,.*.-.).)
44014500:	a4c7 2b59 2444 0a7f 2e00 2ac2 29a5 213a     ..Y+D$.....*.):!
44014510:	23f3 2aa3 a854 24db 2db1 2d66 2f78 2f82     .#.*T..$.-f-x/./
44014520:	a617 26cf 2b25 2c3f 284b a3bc 2909 1aa4     ...&%+?,K(...)..
44014530:	263d 2eda a9e5 2aa8 2e4c 25d3 2c15 1cdc     =&.....*L..%.,..
44014540:	2d1e 2b67 2c5b a840 2d13 250b 2d01 2fde     .-g+[,@..-.%.-./
44014550:	31ae 263e 20a4 2bc6 a634 2384 a6d0 aad9     .1>&. .+4..#....
44014560:	2c89 2c18 1e99 a8d3 a7c7 2a21 a441 9b49     .,.,......!*A.I.
44014570:	9ee1 2c3c 300a 30bb ad83 2c89 2729 ab27     ..<,.0.0...,)''.
44014580:	a96e aecf 2776 2c6b 2c88 2c68 2a53 235b     n...v'k,.,h,S*[#
44014590:	2b57 23aa 2823 23b9 aabf 26fb a113 2510     W+.##(.#...&...%
440145a0:	2be9 aa5a add6 abf8 a6f6 af56 a696 2a9c     .+Z.......V....*
440145b0:	2666 1bf9 ac95 286a a772 2a68 a900 9ea4     f&....j(r.h*....
440145c0:	a43f 237d a567 18cb 205b 15fd a3a6 a80d     ?.}#g...[ ......
440145d0:	2227 ad26 a745 a6b9 a7f2 a4dc aab9 a8fe     '"&.E...........
440145e0:	2a71 2419 2cbe aa1e 2783 2e7d 29df 19b1     q*.$.,...'}..)..
440145f0:	21b1 9658 3131 a42a 2c04 acdf 2bd6 2c34     .!X.11*..,...+4,
44014600:	2b68 2893 a69c a419 2ca9 2dc6 2a21 aaf8     h+.(.....,.-!*..
44014610:	2d19 a96c ad29 a999 a7ff a94e 2395 1a8c     .-l.).....N..#..
44014620:	25d3 2ef1 2e1d 2de3 22a4 2c10 2cc7 2dec     .%.....-.".,.,.-
44014630:	27db a3ff 2e82 2d2b aed5 af7b a45e aec8     .'....+-..{.^...
44014640:	af82 1784 ac08 ac56 a9c0 2caf 2896 9d13     ......V....,.(..
44014650:	2157 a3cc 29fa 2c59 29ea ab16 2ad6 2a31     W!...)Y,.)...*1*
44014660:	a75c 2401 2b63 04bf a7e8 ac2e aaa9 2325     \..$c+........%#
44014670:	1e2e ae09 2c0f 2c36 2dd5 9f32 a82b 2d94     .....,6,.-2.+..-
44014680:	2f98 a9b5 9408 abf2 2796 2999 2092 2486     ./.......'.). .$
44014690:	2112 a6d8 2240 2c47 21c3 abca 2483 2795     .!..@"G,.!...$.'
440146a0:	2d35 a6ab 1f5e 2546 ada2 a6b9 25c6 31bc     5-..^.F%.....%.1
440146b0:	a433 a9c9 a3df 26bf 308b 25a2 24c6 aa40     3......&.0.%.$@.
440146c0:	2588 2314 24be 28b7 a920 2d28 2868 28a9     .%.#.$.( .(-h(.(
440146d0:	21ff ab0e a150 220a 2675 2d6c 1b93 acc9     .!..P.."u&l-....
440146e0:	ac8b 2d48 2a41 25c0 a872 2c04 2481 2a2e     ..H-A*.%r..,.$.*
440146f0:	aa1c 9e27 2951 a636 200b 9718 a0a5 a492     ..'.Q)6.. ......
44014700:	aeb0 ad22 2608 2535 ac78 29b3 2a12 a874     .."..&5%x..).*t.
44014710:	a672 a8bf 2ccd 2b01 18d9 a97e 2862 2c19     r....,.+..~.b(.,
44014720:	2b71 2d6f a7a0 2843 a983 24dc a91e 2889     q+o-..C(...$...(
44014730:	9c0b ad8f af48 a426 a84d aa9a 2c9d 29dc     ....H.&.M....,.)
44014740:	2cc9 2850 ad69 2c97 2841 2b21 99bb a9d8     .,P(i..,A(!+....
44014750:	a417 2484 a285 a35c 18c7 adac a88a 1f87     ...$..\.........
44014760:	ac3a af91 aeda b042 ad8a 2878 23fe 2f2f     :.....B...x(.#//
44014770:	a44b a37a 1c73 9a5d 2a20 23a9 2200 22e7     K.z.s.]. *.#."."
44014780:	2937 28ec a3c1 a8ae a914 2653 2518 ac98     7).(......S&.%..
44014790:	2919 2809 2711 a542 acac a8ee a8c9 accb     .).(.'B.........
440147a0:	2449 19d3 aa4a 24d5 9958 9dfd 97d5 2270     I$..J..$X.....p"
440147b0:	aa2c a973 27d3 217c 2370 ab9b a714 a22f     ,.s..'|!p#..../.
440147c0:	ab91 273f a4c9 aacf abac a365 a912 a0f9     ..?'......e.....
440147d0:	1ffc a901 a80a a557 a593 abb2 a22a ab98     ......W.....*...
440147e0:	ab78 1d93 a9d7 21e6 276d 28e2 2872 2354     x......!m'.(r(T#
440147f0:	2456 a540 28a8 9f8b a9e3 a5cc aa79 a84a     V$@..(......y.J.
44014800:	a12d 1bde a761 2521 250f 2853 a809 a4f5     -...a.!%.%S(....
44014810:	ac04 a819 a793 26a1 a893 a79d 21af aa5c     .......&.....!\.
44014820:	8837 26dd a7de ab82 a8c9 92aa a96c 9c68     7..&........l.h.
44014830:	ac0e 23e7 abfe a806 25bd a80f 24b5 a4d8     ...#.....%...$..
44014840:	2275 aa21 a410 9f56 a2e6 2778 1574 a146     u"!...V...x't.F.
44014850:	aaf2 a866 246c a6df 250c 9aa1 a704 25f0     ..f.l$...%.....%
44014860:	2456 27f6 258f 2abc 261b 26f1 ab37 28d0     V$.'.%.*.&.&7..(
44014870:	23a6 aac5 2643 a474 277e a811 2877 aaf7     .#..C&t.~'..w(..
44014880:	a905 1fe3 aac9 aae0 aa10 aa07 a93c 1e33     ............<.3.
44014890:	a4b1 2554 285e a692 a261 26b6 9ed7 a9f9     ..T%^(..a..&....
440148a0:	2670 ab45 aaf0 a235 aa15 a0c9 a9ca 195e     p&E...5.......^.
440148b0:	a399 a847 28d7 a98b ab4e a1d7 282d a884     ..G..(..N...-(..
440148c0:	2506 9d27 9b89 aa1f a3ca aa9c a7e6 9b2d     .%'...........-.
440148d0:	ab6f a44e a655 284f a9bc a766 208a a01f     o.N.U.O(..f.. ..
440148e0:	23f9 a453 aa14 2679 1d96 22c5 aac5 8dcc     .#S...y&..."....
440148f0:	a990 a7ae 1d86 a992 a679 250a a809 aab8     ........y..%....
44014900:	9673 27c9 a14a 212f a6e9 a8d6 abce a0a1     s..'J./!........
44014910:	a8aa a580 ac18 a91e 2473 a387 a2e2 28fa     ........s$.....(
44014920:	24ea a2aa a822 a959 27f2 ab45 2860 aa7e     .$..".Y..'E.`(~.
44014930:	a80a 21e6 9e08 abec 2716 a334 a736 aa81     ...!.....'4.6...
44014940:	a515 27e1 a249 a63f a9a3 2369 a2ec 99a3     ...'I.?...i#....
44014950:	ab94 246a a8e2 a6cc 9e76 a8f6 a869 a761     ..j$....v...i.a.
44014960:	1679 a2dd ac31 a495 a852 a2ad a87f ab24     y...1...R.....$.
44014970:	26ec aa71 1ca2 a1e1 a4e4 a254 24d0 a8fa     .&q.......T..$..
44014980:	9472 28b7 2770 25ee a802 2879 ab2c 27c7     r..(p'.%..y(,..'
44014990:	a915 95cc a9f8 a8d1 a552 2803 a0bf aa08     ........R..(....
440149a0:	a606 2871 a49a a192 a4ae a979 a9ce 1b20     ..q(......y... .
440149b0:	9389 aaaa a07f 9daf a57a a53e abc9 28d9     ........z.>....(
440149c0:	2619 aa60 277e 9abb 23a4 268e a9c3 a057     .&`.~'...#.&..W.
440149d0:	a3c6 a224 22fe 27b9 ab9f a11a a2e4 28ac     ..$..".'.......(
440149e0:	26aa a8d6 28a5 2931 2a21 a40e 24d1 2800     .&...(1)!*...$.(
440149f0:	0589 1d86 a257 2935 2408 a7ae 9879 a96c     ....W.5).$..y.l.
44014a00:	24d0 19e7 26b0 9c26 a66a a3e4 a525 9113     .$...&&.j...%...
44014a10:	a822 a866 9afd 9c5b 22bd 9e3a aa0b 2819     ".f...[..":....(
44014a20:	a46c a09d a49a a9e3 1213 aad9 ab3d 9f87     l...........=...
44014a30:	aa45 a9f5 1ea4 2173 a9cb 1e9f 28f9 24ae     E.....s!.....(.$
44014a40:	a48b a9ab 2430 19f9 25c4 a6ec a5ee 9c0e     ....0$...%......
44014a50:	27ea ab0e ab1e a85c a8a1 aa91 289b 220d     .'....\......(."
44014a60:	a7b6 a51a a695 a6c5 a428 29d5 255c 21a3     ........(..)\%.!
44014a70:	a189 2153 232c 9fd0 a7fd 2571 9f5c 254b     ..S!,#....q%\.K%
44014a80:	1cf1 a297 a614 26ef 9b51 a742 278d 9a4b     .......&Q.B..'K.
44014a90:	ab12 a897 1517 21c3 ab6a a978 a3ae aa4d     .......!j.x...M.
44014aa0:	a8df 22c6 262b a848 ab07 1e6b abc9 1691     ..."+&H...k.....
44014ab0:	a919 1f8f ac1b a794 1eae a65d 27bb a51a     ..........]..'..
44014ac0:	2bab 266b 2541 2a3c 293a 2c90 a324 a1ad     .+k&A%<*:).,$...
44014ad0:	280a 9439 a245 a8bc 2b87 272c 9047 a5e2     .(9.E....+,'G...
44014ae0:	1e84 a4fd 2b0d 1b78 2856 8d28 ab7d 992f     .....+x.V((.}./.
44014af0:	ae21 a3c7 977d 2b15 2f07 2acc 2339 a588     !...}..+./.*9#..
44014b00:	2ac2 2da6 2904 24ad 2752 2d2c 2db3 2158     .*.-.).$R',-.-X!
44014b10:	1b79 aa3f 2530 2b2a 2692 aae3 9646 2979     y.?.0%*+.&..F.y)
44014b20:	2810 ad2a 22fc b018 ad15 ab77 9726 a2fe     .(*.."....w.&...
44014b30:	a304 a459 2084 2caa a7be 2b94 2bd0 2805     ..Y.. .,...+.+.(
44014b40:	2545 a0c3 a602 1e14 26d4 2b9b ad6f a571     E%.......&.+o.q.
44014b50:	2457 a675 282c 256c 9c1c 3022 315f 2f86     W$u.,(l%.."0_1./
44014b60:	aa99 2a18 2d12 308b 2eed a304 21b0 2b99     ...*.-.0.....!.+
44014b70:	2455 2f76 2b08 2ee7 2c0b 2a62 1d93 2fe4     U$v/.+...,b*.../
44014b80:	2e71 2aa1 2031 acbd a2d0 1ca1 30e7 3166     q..*1 .......0f1
44014b90:	3161 25e5 29b6 2ce3 2b39 319b 1f37 2bce     a1.%.).,9+.17..+
44014ba0:	2a52 2391 2ced a406 2c15 999e a666 aab5     R*.#.,...,..f...
44014bb0:	27ba 2ab2 2d16 28da b26f 2dde 2eb5 1d0c     .'.*.-.(o..-....
44014bc0:	268d aea0 29c6 a5f4 2c3a 9b51 93a7 2058     .&...)..:,Q...X 
44014bd0:	2b4a a163 8fa5 a659 215a 2a42 2a6b 229b     J+c...Y.Z!B*k*."
44014be0:	25b1 10cc a867 1afc 282b a0a5 aace a9d2     .%..g...+(......
44014bf0:	a87e 289e 285a 9cd0 a4da 2bc8 119c 281a     ~..(Z(.....+...(
44014c00:	a269 28c6 28db 9a83 26a4 ab97 2206 1e18     i..(.(...&..."..
44014c10:	221b a4ee 1f1b 2bc0 9e36 a68d a5f8 1d5a     .".....+6.....Z.
44014c20:	1b40 2926 2d1c 2fb8 ae26 a864 298c 2998     @.&).-./&.d..).)
44014c30:	1e7b 29c6 2c02 a904 2a67 a9c2 285c 2eea     {..).,..g*..\(..
44014c40:	283e 2a4f 29b5 2198 2ddf 29a3 1e3f a276     >(O*.).!.-.)?.v.
44014c50:	2ec4 2d8d ac5e add1 b175 247d a965 acda     ...-^...u.}$e...
44014c60:	974b abf1 9557 2c43 982a 2bce 2212 2681     K...W.C,*..+.".&
44014c70:	a85e 1826 280b 2b47 ac39 afb8 1973 9450     ^.&..(G+9...s.P.
44014c80:	a8ae 216a a98a ac12 24b5 2879 2c21 259b     ..j!.....$y(!,.%
44014c90:	a6a8 2c26 2d25 2d0d a45d 1ef9 2c91 2d3a     ..&,%-.-]....,:-
44014ca0:	adbf a9bd 2b1d 96b5 23ab a764 a75d 1cc5     .....+...#d.]...
44014cb0:	2996 a097 a967 2592 2dd6 3131 2d0f 1db3     .)..g..%.-11.-..
44014cc0:	1e60 1e88 263c 2cf5 20c1 1f78 278e a139     `...<&.,. x..'9.
44014cd0:	26d1 a767 a466 217b a797 20b8 a005 295c     .&g.f.{!... ..\)
44014ce0:	26dd 2cbf 2395 a0c6 a114 aea3 a9fa 2e59     .&.,.#........Y.
44014cf0:	ad97 2337 aac0 ad59 2b36 a9d0 2cf9 1874     ..7#..Y.6+...,t.
44014d00:	24bb 2ef4 2a0f 2c9c 263c 2594 2565 24dc     .$...*.,<&.%e%.$
44014d10:	2ad9 246a a1d4 ae94 26e8 2437 a93b a8a7     .*j$.....&7$;...
44014d20:	2c91 2cad a11b 176c 26e8 24ff a91f a5d7     .,.,..l..&.$....
44014d30:	a410 a233 1cf0 a89e a17a 297d 2900 2bd8     ..3.....z.}).).+
44014d40:	a4ba 9cad 227f 2903 9fed a49a 1851 2c5a     .....".)....Q.Z,
44014d50:	1e55 a99c 293f 2c1e 21d7 a1a5 a842 ac70     U...?).,.!..B.p.
44014d60:	9dae 2cad 2026 274c ac65 a8bf 292a 1f1e     ...,& L'e...*)..
44014d70:	2e29 a055 adf8 ab75 a310 a8bf 2cc7 2d19     ).U...u......,.-
44014d80:	242f 21d2 a068 14f4 a685 a77e 1ff9 aa64     /$.!h.....~...d.
44014d90:	ad8b 245b 9c12 2557 245c 1ad6 a112 a97c     ..[$..W%\$....|.
44014da0:	a82c a294 ad84 ad4b ae6e 1e04 a4b8 2844     ,.....K.n.....D(
44014db0:	2af7 24ca 2472 adfe 24de a8ea 2a3d 258c     .*.$r$...$..=*.%
44014dc0:	a5b7 a48b a416 2abb 2503 22b8 131b a5d6     .......*.%."....
44014dd0:	24fd 9d6b 28b4 a41e a8d9 26d1 a258 a258     .$k..(.....&X.X.
44014de0:	1fe0 29ff 1d3e a032 26ff 9e18 1c07 9cc4     ...)>.2..&......
44014df0:	abe4 217c 2e0a 2d7f 2b30 272f 2334 27cc     ..|!...-0+/'4#.'
44014e00:	2c10 a2d6 22bd 28b7 202e 2d6e 2caa 9d0f     .,...".(. n-.,..
44014e10:	2a69 2a00 2c8b a40e a62c 26ad 2d7a 1ff5     i*.*.,..,..&z-..
44014e20:	9d58 aa6d 2aba 2824 2bf7 a75f 95f4 a286     X.m..*$(.+_.....
44014e30:	2cec 9dd0 a885 2035 2a60 2da7 2fd1 2390     .,....5 `*.-./.#
44014e40:	2254 a617 acbc 2ed8 2da1 29b8 271f acc3     T".......-.).'..
44014e50:	9c23 19f8 20c7 a931 ac24 a482 a9ba 9e58     #.... 1.$.....X.
44014e60:	2d2f 10b2 2a28 1f6e ab86 a5de a75c a4e9     /-..(*n.....\...
44014e70:	a90e 9799 9a13 2e64 2f20 a508 a289 ad6a     ......d. /....j.
44014e80:	2e11 2cc3 aba7 9c98 20b8 2917 2d45 aa46     ...,..... .)E-F.
44014e90:	289d ab34 2c20 2ecb a443 aa0a a5df 25db     .(4. ,..C......%
44014ea0:	a78d ad52 a03b 2b1d 2fe3 2c99 aa00 adfc     ..R.;..+./.,....
44014eb0:	223f 2afa a81f a3a2 ab2f 2c01 2c7d 271d     ?".*..../..,},.'
44014ec0:	1e3b 2ca4 abcd 2e9f 2a25 acb6 a48c 205f     ;..,....%*...._ 
44014ed0:	2b3d a505 ad68 adf1 290b 0656 a585 aaaa     =+..h....)V.....
44014ee0:	1db3 2132 2aa9 9836 ac1d a2e9 23c6 28f4     ..2!.*6......#.(
44014ef0:	2808 226c ac8c a37f a43a a1d0 15a6 a0a3     .(l"....:.......
44014f00:	2a5a a3d0 2cad 2b21 2b51 2675 92d6 2734     Z*...,!+Q+u&..4'
44014f10:	2a52 ad17 a38a 2439 27ba 29dd 9804 299f     R*....9$.'.)...)
44014f20:	27bb 2523 a639 9e09 9cfb 2761 21a3 2886     .'#%9.....a'.!.(
44014f30:	9e4e 1e18 2649 9933 2ab7 298f a852 29da     N...I&3..*.)R..)
44014f40:	3014 2517 aed4 a4a4 261d 2ec6 281d aca7     .0.%.....&...(..
44014f50:	22f0 2808 a494 a2dc a298 9c7c 2fec 2b9c     .".(......|../.+
44014f60:	a029 a92d 2a45 3046 2554 2189 a553 a7bf     ).-.E*F0T%.!S...
44014f70:	b020 a9f9 a5d7 2c76 3121 a6fd a446 ac77      .....v,!1..F.w.
44014f80:	a6d3 1c07 a524 a9bd a803 a9da 22ba a61d     ....$........"..
44014f90:	ab81 2636 265c 2b1d 2221 a4cf a637 a428     ..6&\&.+!"..7.(.
44014fa0:	2b50 a89d 2aa4 20e6 2743 a843 a9f9 2452     P+...*. C'C...R$
44014fb0:	a756 1d56 aa31 2dfb 2ab0 9ea8 a54f a0e5     V.V.1..-.*..O...
44014fc0:	1b82 2baf 2ce9 a8ce aa9d 9f9b 9c0c 2808     ...+.,.........(
44014fd0:	a4c4 2ba0 258e 2a12 2735 ad17 a800 290b     ...+.%.*5'.....)
44014fe0:	1481 a805 ae5a a27d 2eae 2b3d a5e3 aad5     ....Z.}...=+....
44014ff0:	99f6 2d38 274c a507 2352 a400 2ec8 9a46     ..8-L'..R#....F.
44015000:	286a 1f9d 2827 9fee a3ad 3039 3014 a265     j(..'(....90.0e.
44015010:	2251 1b1c a59b 2849 28f7 2b64 1542 a302     Q"....I(.(d+B...
44015020:	a6b6 2418 2afd a887 21de a515 ae65 2cbf     ...$.*...!..e..,
44015030:	aac0 abf5 aee7 2640 a6d7 26ae 289d aa17     ......@&...&.(..
44015040:	19c5 2d6c 27c0 2534 2373 a738 2bf3 9bd0     ..l-.'4%s#8..+..
44015050:	a342 96ca a60e 24d4 2a6b 2bc2 27fa 280c     B......$k*.+.'.(
44015060:	0de5 2967 2c96 a6af a9eb a643 abd2 a485     ..g).,....C.....
44015070:	a5f2 2cb1 2abf 2ade 2ab7 a63b a412 3090     ...,.*.*.*;....0
44015080:	2cb8 2ab6 2450 2676 a23a 267e 296f a30c     .,.*P$v&:.~&o)..
44015090:	9cb9 97c7 24c4 2d6b 2c2f a5c0 9c23 213f     .....$k-/,..#.?!
440150a0:	ab7e a45d a4ec 2f0e 304f 2b57 a4c0 28dc     ~.]..../O0W+...(
440150b0:	2b35 2cdb 2fc0 2871 acd9 afd7 a9ca 1f7b     5+.,./q(......{.
440150c0:	2bb1 a869 b140 1ab9 2cf6 21af a620 2773     .+i.@....,.! .s'
440150d0:	19f4 a6d7 2a75 2923 9ee1 a7a5 ab00 a536     ....u*#)......6.
440150e0:	26f2 2348 a9ae aa07 26ad 25ee 9e34 a45f     .&H#.....&.%4._.
440150f0:	a50a 9f51 1d8f 2d79 2ca5 2b56 1f86 28b5     ..Q...y-.,V+...(
44015100:	25f3 234f 9d5c 2563 a7b1 2837 a35e a745     .%O#\.c%..7(^.E.
44015110:	2840 a210 a10f 254c a79c a7eb 1ebd 28b6     @(....L%.......(
44015120:	2bf5 2bb8 2143 14c5 a8b3 2936 24b7 a032     .+.+C!....6).$2.
44015130:	281b acf5 25da a03b 21fc 2793 a03e aaa4     .(...%;..!.'>...
44015140:	a829 2c37 2bbc 2891 9cd9 ad2e aa1d a04c     ).7,.+.(......L.
44015150:	1d45 2aff a6aa a098 28d2 28e0 2da2 abb6     E..*.....(.(.-..
44015160:	acc7 2ba9 2fc2 2d75 2760 a9dd ad1d 2a3b     ...+./u-`'....;*
44015170:	2cf5 a683 a042 acd7 2d85 1c31 ade0 2550     .,..B....-1...P%
44015180:	2d07 2989 2ba2 2870 973a 2974 2c92 292c     .-.).+p(:.t).,,)
44015190:	261f 960f 290a 9fab 2710 a913 ac9f a851     .&...)...'....Q.
440151a0:	2c46 2240 a65b a7eb 93ed a05e 2a92 21d0     F,@"[.....^..*.!
440151b0:	2bd4 a93c 29a5 a775 aaf2 2085 261f aaf5     .+<..)u.... .&..
440151c0:	a491 ace4 a911 2af6 25ac 1a83 aa3b b02f     .......*.%..;./.
440151d0:	ad89 2a62 188c 2680 28bb 298d 9fd6 2865     ..b*...&.(.)..e(
440151e0:	a95e 2c84 2ea7 2bb1 207a aa27 24b2 29f3     ^..,...+z '..$.)
440151f0:	2845 ae7b b032 ae5e 3023 aa9b a749 2061     E({.2.^.#0..I.a 
44015200:	2cfc 27dd 92a8 2488 a8ef 1f33 286c 26b7     .,.'...$..3.l(.&
44015210:	a835 aa44 27fb 2674 a536 a7bb 9c74 2a2b     5.D..'t&6...t.+*
44015220:	a213 2b86 2db8 2b3d 2c42 214d a511 1f12     ...+.-=+B,M!....
44015230:	28ef 291e 28dc 261c 268c 9d74 292e 2257     .(.).(.&.&t..)W"
44015240:	2c0e a576 a4c6 27df 2665 2c60 2d58 a85b     .,v....'e&`,X-[.
44015250:	1c67 a60c 10ee 2b9b 2562 a0fb 2a33 19b6     g......+b%..3*..
44015260:	28eb ab5f abe2 a977 261e 97ea a441 a031     .(_...w..&..A.1.
44015270:	a001 1c17 a9a6 2237 98c9 2cf8 2ffd 9667     ......7"...,./g.
44015280:	ab1e 28e6 284a 9ead a6dd ac7e a966 24ed     ...(J(....~.f..$
44015290:	a866 21c2 2906 2c6e 2d6e 29ae 2b8e 2054     f..!.)n,n-.).+T 
440152a0:	21fb a9e4 ac0c a045 2409 a605 1fd1 28e8     .!....E..$.....(
440152b0:	2d03 a8d0 a8f1 9d71 2690 2c2a 2638 2029     .-....q..&*,8&) 
440152c0:	2a02 aa8d 2d52 2395 280d a9c5 22c6 28a8     .*..R-.#.(...".(
440152d0:	270b 2a1a a919 299d 29ed 24a0 1f02 9c32     .'.*...).).$..2.
440152e0:	2d3d 2579 133e 2406 2a09 2c31 290e 2c3f     =-y%>..$.*1,.)?,
440152f0:	2961 2953 a0f9 2a3c a323 2652 aac5 a8c5     a)S)..<*#.R&....
44015300:	a194 a8e6 9db0 2971 2b31 1bfe a817 2699     ......q)1+.....&
44015310:	1a30 971e 9c8c 18e9 25cf 25f6 2817 a78a     0........%.%.(..
44015320:	ad3b aa31 a83b a3b6 266d 245c aca2 b0b2     ;.1.;...m&\$....
44015330:	a19f 2cb9 2c20 28fd b124 294d 2a4b 269c     ..., ,.($.M)K*.&
44015340:	a765 a222 aa4a ada5 2357 ad35 2549 2946     e.".J...W#5.I%F)
44015350:	a4b4 a66a 239f 2f3c a9cf aa04 2966 a201     ..j..#</....f)..
44015360:	29c4 29ae 223b 1fd4 99e2 a878 a802 2b8a     .).);"....x....+
44015370:	25f1 aa00 a812 2531 a462 284c a801 a4e7     .%....1%b.L(....
44015380:	97ff 20f4 282c 2585 28aa aa3e a6b5 1e35     ... ,(.%.(>...5.
44015390:	2d09 262a 28d0 a98b 1d96 2d2b 2952 2677     .-*&.(....+-R)w&
440153a0:	a9eb aab3 a7d1 ab46 a95a 2904 1d42 a77c     ......F.Z..)B.|.
440153b0:	21ed 26f7 27be 2ecf 22f0 1f9e a628 a7a9     .!.&.'..."..(...
440153c0:	a43f 25e3 99f2 2cbd a45a a299 a87b 2a88     ?..%...,Z...{..*
440153d0:	a987 abd3 1c9e a490 a95e a3c8 2823 a4a9     ........^...#(..
440153e0:	2f29 9102 a3a3 2d8b 2e38 285c 27fe acd5     )/.....-8.\(.'..
440153f0:	a7b0 2d62 2c57 a78a acd8 281f a8d4 2298     ..b-W,.....(..."
44015400:	a9c4 8965 279a a7fe 26e0 a2b3 2cfb 1d9f     ..e..'...&...,..
44015410:	9efc aaaa a189 2cb8 2c5e a40d 2909 29df     .......,^,...).)
44015420:	1ae0 a89a a1ea 9eaa 278a aa4b a790 a813     .........'K.....
44015430:	a8e6 a7bb 292b a1a8 ab64 2559 a01a a9fd     ....+)..d.Y%....
44015440:	9bd5 213f 2533 2843 a9a6 a873 ab2c aa29     ..?!3%C(..s.,.).
44015450:	9245 a90f a537 a1cf 20fb 27f3 9ee3 a47d     E...7.... .'..}.
44015460:	a2bf 26e7 2172 aac3 a277 a56b a20e 23dd     ...&r!..w.k....#
44015470:	287a 25fe 285f 2899 1d18 2954 1b35 a885     z(.%_(.(..T)5...
44015480:	a5ef a30a a7b3 a89a 27d7 2884 a2e8 2025     .........'.(..% 
44015490:	a4bb a2e7 a736 a2bf ab0c ab8c 1d1b a1dc     ....6...........
440154a0:	2419 ab24 aabd a28d 1ca3 a71b 1fa2 ab30     .$$...........0.
440154b0:	9194 204e ab66 a8bb a967 a930 2602 28f6     ..N f...g.0..&.(
440154c0:	280f a8b8 a845 950b 2824 1ef5 a984 9e47     .(..E...$(....G.
440154d0:	a5c0 a8e4 24d5 a03c aa0e a92f ab23 2670     .....$<.../.#.p&
440154e0:	211b 27f3 240d 25eb 2a4d 280d 9b7e a96b     .!.'.$.%M*.(~.k.
440154f0:	a546 1bf5 27b8 a273 9444 8ebe 25d4 a15a     F....'s.D....%Z.
44015500:	28d4 210a 26f7 a8fb 2027 2168 a4a5 a612     .(.!.&..' h!....
44015510:	a74d 2475 a930 2845 a9f5 94e6 284f a949     M.u$0.E(....O(I.
44015520:	28d2 aa97 286a 26c2 a567 abc1 a442 1b03     .(..j(.&g...B...
44015530:	236a 26a1 28f2 a9b9 a817 a4c2 aab5 24fd     j#.&.(.........$
44015540:	a79b aba7 aa99 a68f aa37 2544 1f37 287d     ........7.D%7.}(
44015550:	a798 250b a98f 1c75 2270 a820 a01f a868     ...%..u.p" ...h.
44015560:	2857 a409 ab75 aad6 1977 231d a57d 9676     W(..u...w..#}.v.
44015570:	24f4 20ff a5c5 a3c6 ab34 aae7 2137 a8d6     .$. ....4...7!..
44015580:	a10c a291 a924 a40e 2316 2809 24d6 2a06     ....$....#.(.$.*
44015590:	262c a64f a059 21c7 a996 2996 270b 2a40     ,&O.Y..!...).'@*
440155a0:	9edd 21ba 293b 1da3 9a9c a92f 2911 236c     ...!;)..../..)l#
440155b0:	a8f0 1960 a4d3 a95f 97f6 a830 1ddc 9d95     ..`..._...0.....
440155c0:	a955 a42a a194 254a a973 a942 227f ab6b     U.*...J%s.B.."k.
440155d0:	2993 a374 a9c1 2115 aa57 aad2 28d6 aaeb     .)t....!W....(..
440155e0:	1e10 29e9 a44c 1cf1 221c aad3 253f a863     ...)L...."..?%c.
440155f0:	28c6 a326 aab7 a8af 9d5f aab7 1f8a a359     .(&....._.....Y.
44015600:	2530 24c9 a2d3 9bea a87c 24b8 1f35 27f4     0%.$....|..$5..'
44015610:	9c01 28ce 25c3 a806 aaf0 1afe a83a ab7c     ...(.%......:.|.
44015620:	a9f0 a930 aba5 9ae8 abb7 1c99 2463 23c1     ..0.........c$.#
44015630:	267b 20b4 9d6b a895 ab79 a954 a82d 262f     {&. k...y.T.-./&
44015640:	9a59 a984 aa53 202c abbf 269c 9b57 a87a     Y...S., ...&W.z.
44015650:	28d4 9ee8 a669 1d5c a8b4 273e 9e8f a932     .(..i.\...>'..2.
44015660:	a997 296e a821 285f 98b5 a9f3 2411 aade     ..n)!._(.....$..
44015670:	a924 265e 2477 2483 2804 9cca 26bc aa78     $.^&w$.$.(...&x.
44015680:	ab17 27c8 a845 a50a a88b a88e 24d1 241c     ...'E........$.$
44015690:	a94c 222d 9724 ab1e a82c a84e 2274 a62c     L.-"$...,.N.t",.
440156a0:	a983 27e0 288f a909 9bca 9a55 251d a93c     ...'.(....U..%<.
440156b0:	2777 285c a3e0 ab50 24c3 aa06 ab52 91ed     w'\(..P..$..R...
440156c0:	aaf8 9559 a8dd a556 99db 27ab a529 a939     ..Y...V....').9.
440156d0:	a21b a5db aa65 a9a9 a367 9fe9 2861 2364     ....e...g...a(d#
440156e0:	1b3a 1a95 a34d a972 a610 a8f6 a3f0 24d0     :...M.r........$
440156f0:	9df4 28dd 2569 a5e8 a666 a9ed 28a5 2863     ...(i%..f....(c(
44015700:	a9d5 2676 28a8 a810 215b 2861 2760 2720     ..v&.(..[!a(`' '
44015710:	1df6 9b28 271e a88d a564 aab9 a784 aaad     ..(..'..d.......
44015720:	a21a 0f87 2616 2957 2948 a696 28c9 1e4d     .....&W)H)...(M.
44015730:	1eb4 2853 292a ab97 a4e2 a97c a0b0 a8e9     ..S(*)....|.....
44015740:	23f5 9f98 a130 2730 1f86 a397 2103 22c7     .#..0.0'.....!."
44015750:	244f a50e a61a a577 a4e3 a7af a635 a9f4     O$....w.....5...
44015760:	a2f1 1e1d 1b95 2870 24fe 227a aa9a 94f8     ......p(.$z"....
44015770:	a5e9 a6bd aba1 283e a44b a58a 9d90 a89b     ......>(K.......
44015780:	2471 a02a aa27 9058 2849 2903 ab8e 8b09     q$*.'.X.I(.)....
44015790:	a915 aabe a92a a0c2 a9f6 a3b7 a405 2520     ....*......... %
440157a0:	2187 2ac8 9b31 a936 26b4 2375 289c a35d     .!.*1.6..&u#.(].
440157b0:	a9d1 a5e3 99e4 2b34 a013 a5a0 a7fb a8a3     ......4+........
440157c0:	22d8 a374 2457 283e ac1e a33c 2898 1967     ."t.W$>(..<..(g.
440157d0:	aa2c 2412 284e a9c4 a92b a8b1 1ef0 ac2b     ,..$N(..+.....+.
440157e0:	2896 a5af 9dc7 a415 aa71 a57c 16a6 17b9     .(......q.|.....
440157f0:	a7cb a98d 24b2 a473 213e ab72 2689 28d9     .....$s.>!r..&.(
44015800:	9e4d 9efc a23c a161 2694 aa4f 1f14 ab88     M...<.a..&O.....
44015810:	2650 230b aa9f 23b4 9737 abe5 a5da 9ebf     P&.#...#7.......
44015820:	a5f4 ab98 9ffb 1da3 1895 a568 9ef3 a022     ..........h...".
44015830:	aa7c aa10 20a3 a5d9 1c31 255a 2849 186c     |.... ..1.Z%I(l.
44015840:	211a a5ea ab2e a54a 9870 a339 a53c a082     .!....J.p.9.<...
44015850:	22c7 29bb a75a 2892 a1c8 9d82 ab99 2853     .".)Z..(......S(
44015860:	a829 a312 a83a a013 aa9b 23c3 2829 a5fc     )...:......#)(..
44015870:	a808 9357 25b9 ab41 a98f 9894 a673 abc9     ..W..%A.....s...
44015880:	aa2e a4d6 ab9a 2658 2ab5 2575 99f1 9fe6     ......X&.*u%....
44015890:	260c 2964 a25e 2581 a8b1 281b 1e49 2850     .&d)^..%...(I.P(
440158a0:	2a83 9dc1 a6f8 a29a 24e9 a890 ab2f 2496     .*.......$../..$
440158b0:	a87e a51c 1d2a 219b ab5d 0fd9 26ee 2397     ~...*..!]....&.#
440158c0:	a90b a498 a7b5 28d7 9d51 2851 a9b6 2b8a     .......(Q.Q(...+
440158d0:	2c19 2799 a005 293e 1fde a6a1 2536 210e     .,.'..>)....6%.!
440158e0:	a993 a6d1 2724 248f 1d81 218a abda aba3     ....$'.$...!....
440158f0:	a8d2 a220 28fc 2a7c aa46 2402 a9d4 9b2e     .. ..(|*F..$....
44015900:	a689 9c04 a619 a746 a198 29b2 a6fe 2707     ......F....)...'
44015910:	94e2 abf5 9963 9f9b 9e50 9069 a9b3 206d     ....c...P.i...m 
44015920:	a49e a637 2795 a98d 1d03 a9b3 a6e8 a8b4     ..7..'..........
44015930:	2a08 2076 2881 a0b7 1b9f 2811 a1b8 a453     .*v .(.....(..S.
44015940:	a6d7 a54e aaca 8c18 ab51 a0fe 9962 a9b0     ..N.....Q...b...
44015950:	a1c3 25ad 25db a975 2689 259c aa3d 234b     ...%.%u..&.%=.K#
44015960:	24ed 1a07 a900 9c15 a5ce abad a787 26b4     .$.............&
44015970:	2879 1c75 a66e 2c08 1e0f a5a6 a6da 1ded     y(u.n..,........
44015980:	a683 a7ed a803 a7fd 2c15 01d2 1d29 9e82     .........,..)...
44015990:	aa60 a8a5 29c9 246c a055 a87b 2865 a87a     `....)l$U.{.e(z.
440159a0:	a85f 2745 272a aac0 a715 a80f a9bc aadb     _.E'*'..........
440159b0:	22a5 27e2 a422 a99f a84c 2810 a0e1 a584     .".'"...L..(....
440159c0:	a692 a972 2b59 290c a405 10f6 27f8 a5a6     ..r.Y+.).....'..
440159d0:	a96b a012 236f 2b1e 14fd a035 a678 265a     k...o#.+..5.x.Z&
440159e0:	a5c3 a652 2b4a 237f 23d6 a101 a6b5 1d6f     ..R.J+.#.#....o.
440159f0:	a255 a941 a89a ab6c a97f ab90 a9e1 20c0     U.A...l........ 
44015a00:	a9fe 2002 1df8 a40c ab08 a63a 2847 276c     ... ......:.G(l'
44015a10:	98eb a5a0 abb0 9d8e 29c2 27da a9a6 1962     .........).'..b.
44015a20:	a820 1e03 a048 a188 a87c 9f9f 27ca 21da      ...H...|....'.!
44015a30:	268d 246f 2691 1a02 9d66 2489 a7ee aa46     .&o$.&..f..$..F.
44015a40:	aaeb a9de a7bb a602 a9e0 ab78 abed 2876     ..........x...v(
44015a50:	a47b ab2d a6b5 aa55 a552 ac37 aa18 a625     {.-...U.R.7...%.
44015a60:	a9ad 2563 a819 a9aa 243d a892 aaed ab06     ..c%....=$......
44015a70:	a5d1 a684 258c 2a1a 9936 a384 26a4 2c4a     .....%.*6....&J,
44015a80:	25e5 26a0 ac04 2c57 2b89 2935 aa0f 248e     .%.&..W,.+5)...$
44015a90:	2ae7 a4d7 2653 a793 2d31 29ad 9f9a 179f     .*..S&..1-.)....
44015aa0:	ae1a 2c1d 29c6 2a86 ab8d a81e 2cb1 2c84     ...,.).*.....,.,
44015ab0:	9d98 1caf 27ed 295e 2c4e a9a9 acac af05     .....'^)N,......
44015ac0:	a834 a7e6 2cf2 a094 9f0e 2922 2b0c 26a6     4....,....").+.&
44015ad0:	a57d 2417 2802 a0b7 ad43 1fc3 a573 a394     }..$.(..C...s...
44015ae0:	ac23 2baf a79a ae5a a643 17d4 3033 26b9     #..+..Z.C...30.&
44015af0:	2ab8 2c17 a0ed a76b 28ee 2184 2d38 2729     .*.,..k..(.!8-)'
44015b00:	2d38 2dfc 9ba0 abf3 ac52 1113 a471 b00b     8-.-....R...q...
44015b10:	9f6e 2691 ac7c af93 ac32 3115 2e9e acef     n..&|...2..1....
44015b20:	ad55 24fb 2b8f 291e 1df2 2d0c 2ec8 2c07     U..$.+.)...-...,
44015b30:	2a2b 254c 2a91 aa50 a6c4 addf 2d44 a9cf     +*L%.*P.....D-..
44015b40:	aa40 281e 302c ac40 ab46 28c6 3035 2fa2     @..(,0@.F..(50./
44015b50:	ad94 ae66 28d5 2dfc 2e8c a9e7 a585 a01e     ..f..(.-........
44015b60:	9c22 aa8f a7dc abf4 aa85 a822 98b8 a412     ".........".....
44015b70:	2978 25c6 28c6 ad1a 2c41 28ed 2b1e a51c     x).%.(..A,.(.+..
44015b80:	a438 2770 2434 2707 2853 29f3 aa2a a8d9     8.p'4$.'S(.)*...
44015b90:	250c 2ca1 2a92 2601 1eab 1e36 a2f4 a3de     .%.,.*.&..6.....
44015ba0:	2c9c a8ca a345 aa7e 99b2 246f abe3 2694     .,..E.~...o$...&
44015bb0:	2b2e a825 ad71 ab66 970b 148d a1dc acc8     .+%.q.f.........
44015bc0:	2092 2ba5 2cb2 2995 2b0b 2bc1 2920 23fd     . .+.,.).+.+ ).#
44015bd0:	a872 2f71 a0a0 242d abea 2ba5 268e ad07     r.q/..-$...+.&..
44015be0:	aed1 28e1 252e ab98 ac0e 25a4 25f4 abc8     ...(.%.....%.%..
44015bf0:	a642 27ae 1277 896f 21d1 ac86 ac90 2423     B..'w.o..!....#$
44015c00:	9eaa 1666 a86c 9f1c 2cfe 1c9a aab7 309a     ..f.l....,.....0
44015c10:	2a7d 2552 a216 a0e1 2d73 294a 2b2c 25f9     }*R%....s-J),+.%
44015c20:	a0e5 a72d 19bc 27a1 2b69 2562 ac87 27ed     ..-....'i+b%...'
44015c30:	25f7 2414 1a0d 2736 28bb 99c7 ae69 aaa5     .%.$..6'.(..i...
44015c40:	2a3a a6fd a823 a951 24cc 29d3 a038 2637     :*..#.Q..$.)8.7&
44015c50:	2442 23c4 a6b6 27e9 29dd 2caf 24dc a022     B$.#...'.).,.$".
44015c60:	2de5 2a56 aa1a ab12 2d82 a446 aca8 29fb     .-V*.....-F....)
44015c70:	2700 2701 ab42 ac84 285d a76f a021 aaf9     .'.'B...](o.!...
44015c80:	a9d1 2276 a3f5 2769 1ca7 284a 2506 2f9d     ..v"..i'..J(.%./
44015c90:	a3fa 2af3 2e09 9fd7 a555 aa2d a03b a75e     ...*....U.-.;.^.
44015ca0:	adcb acb4 a98f b09c aaef a6f6 2e17 a092     ................
44015cb0:	2214 30d8 2f47 2ede ad9f a99d abbb 0de2     .".0G/..........
44015cc0:	2837 078d 284f 27ec 291a 29f1 28ea 2a9a     7(..O(.'.).).(.*
44015cd0:	a7d1 a6ab 28ad 2c32 1c9c 98a8 ab7f 2a55     .....(2,......U*
44015ce0:	206d 237f a217 aa17 2c4a a74d a908 23e7     m .#....J,M....#
44015cf0:	9c9e a4b1 a9ff a496 ac3b a8a2 29d7 9f3b     ........;....);.
44015d00:	28a7 2b15 291a a554 2c35 3022 2368 a7ca     .(.+.)T.5,"0h#..
44015d10:	2356 2612 2cdd a543 2839 2a44 ad63 a4af     V#.&.,C.9(D*c...
44015d20:	a97b aba6 263a 242c 188e ad5c a095 199f     {...:&,$..\.....
44015d30:	1e0e 1f50 9ee5 24f3 a380 308b 3204 2e2e     ..P....$...0.2..
44015d40:	a40d ab7c 30ef 2ca4 2d63 a223 985a ad3b     ..|..0.,c-#.Z.;.
44015d50:	a21a 28b7 29cf 24b1 9c2a 24d3 2a36 28ba     ...(.).$*..$6*.(
44015d60:	a1ae 2a67 2d0b 2cef 2b61 ab10 278e 25a7     ..g*.-.,a+...'.%
44015d70:	ac62 26dd 9ffa 273d ab65 a857 2863 2c53     b..&..='e.W.c(S,
44015d80:	a8fb 2767 a634 aadd 261d 289c a7a5 9699     ..g'4....&.(....
44015d90:	a31c 263a a933 9c58 9e82 240f 222f 2897     ..:&3.X....$/".(
44015da0:	a614 aa92 1c69 a2cd a8cf 28a1 a1c3 26e4     ....i......(...&
44015db0:	2893 1628 a944 a481 a4fd 2751 8d5b 2bd8     .((.D.....Q'[..+
44015dc0:	a105 a9ef a292 a7a1 a932 2875 a9ec 2475     ........2.u(..u$
44015dd0:	20d2 26b5 a7a9 ab29 a82c a0fa 2461 a4b1     . .&..).,...a$..
44015de0:	25bb 26f1 aa5c a114 a692 28d7 2209 a841     .%.&\......(."A.
44015df0:	a690 aa77 a9ce 902c 205d aaf1 28c3 a9b0     ..w...,.] ...(..
44015e00:	99f2 a1c7 ab0a a531 a96b 1ba8 aaf6 9095     ......1.k.......
44015e10:	a393 204c 2825 15e7 a890 a4d2 a60c aa92     ..L %(..........
44015e20:	a82d 9a3d a951 a5b5 2205 a7f4 2746 9d50     -.=.Q...."..F'P.
44015e30:	2514 a6ce a995 2121 a8f5 a93e 2715 a8a3     .%....!!..>..'..
44015e40:	24cf 2415 a745 ab25 28b3 2477 aa20 1c5b     .$.$E.%..(w$ .[.
44015e50:	2818 ab20 a4ef 258a a938 1f83 a536 a215     .( ....%8...6...
44015e60:	ab6d a6b3 a773 208f a5ea abe6 1cba a7d2     m...s.. ........
44015e70:	a1dd 28b7 2418 a5be a81d aab0 a596 a8a1     ...(.$..........
44015e80:	a5cb a867 286e a925 24e3 a7b9 a00a 27ed     ..g.n(%..$.....'
44015e90:	9bdd 136e a386 aa29 a896 aba1 ab1c a79a     ..n...).........
44015ea0:	214a 2452 a230 a9cf 273b 1f96 ab7a 25ee     J!R$0...;'..z..%
44015eb0:	27c7 a56f 9e8e 982b 2100 12b2 aa91 2596     .'o...+..!.....%
44015ec0:	a211 aaa9 a83d 19b5 aa4c 25df a095 a5ed     ....=...L..%....
44015ed0:	a9b8 2422 225b a55b 24eb aa62 a6e8 a4bb     .."$["[..$b.....
44015ee0:	a47b 262c aa53 2889 2315 2803 2431 a962     {.,&S..(.#.(1$b.
44015ef0:	a9fe a696 2274 a7f2 ab7e aa4b 2262 aa1d     ....t"..~.K.b"..
44015f00:	26f9 a787 aa33 1c82 a355 ab9a a898 27ad     .&..3...U......'
44015f10:	22be 2831 a83e 12cf a8c0 a859 281a 1c98     ."1(>.....Y..(..
44015f20:	286d 2448 aa2d 23db 269a a497 a6bd a905     m(H$-..#.&......
44015f30:	28a2 2014 2241 ab23 288c 226d 25f4 2595     .(. A"#..(m".%.%
44015f40:	9baf a8f1 a0bf 2809 1c23 a9e9 273b aa17     .......(#...;'..
44015f50:	1871 95ea 1a29 a646 9f79 2814 27cd a5a2     q...).F.y..(.'..
44015f60:	9140 a8a9 a8a9 2058 a00f 9c9d a940 a7c9     @.....X ....@...
44015f70:	a8f8 2407 2879 1671 a47e 21a5 a59e 2589     ...$y(q.~..!...%
44015f80:	a97c 26fb a945 aaf1 aad9 a909 9d44 a6f2     |..&E.......D...
44015f90:	a84a 24b0 aa56 28b5 26ed a892 aaf2 a305     J..$V..(.&......
44015fa0:	a603 272b aa64 1e18 1fa2 1ff7 1f17 a9a2     ..+'d...........
44015fb0:	2490 28da 2798 27ac a3d4 995d 98aa a7fb     .$.(.'.'..].....
44015fc0:	228a a829 a95a 2a6f ab13 26b7 aac0 a6d2     .").Z.o*...&....
44015fd0:	24e4 280d 234b a4d7 203e aaf7 a610 a43f     .$.(K#..> ....?.
44015fe0:	9b98 aad3 229b 26ee 262f aa3e 24b9 a7c7     .....".&/&>..$..
44015ff0:	a58e 2678 a8c0 28c7 2893 a99b 9fa3 2647     ..x&...(.(....G&
44016000:	a977 a7d4 2440 a929 a6cf 2884 a3ac a75b     w...@$)....(..[.
44016010:	a460 a5a9 a538 24b5 a8c2 a757 ab7e 2652     `...8..$..W.~.R&
44016020:	27ed a89a ab2b aa82 2578 2821 a74c ab9c     .'..+...x%!(L...
44016030:	a58d aa00 a89d 23f2 a9fa 25be 2425 9f0d     .......#...%%$..
44016040:	2ab6 a0d3 1a51 2884 ab4b 2262 280a 270d     .*..Q..(K.b".(.'
44016050:	a19d aae7 a22b 2824 9d24 a2db a60d ab0f     ....+.$($.......
44016060:	2bda 1e95 2893 a65c 2522 9f4c 2af1 a631     .+...(\."%L..*1.
44016070:	ab13 a4e6 25dc a8b3 aba2 24b4 ab2f 1c69     .....%.....$/.i.
44016080:	a4b9 a652 a107 a3c1 abc9 a5b9 9ba2 a925     ..R...........%.
44016090:	9919 21a3 2638 2961 a89d 2018 a756 28dd     ...!8&a)... V..(
440160a0:	227d 2c13 1aa4 a55b 2d21 ac27 9d4e 2d30     }".,..[.!-'.N.0-
440160b0:	2c70 a21e a91f 28a3 2a72 2ccc 24f4 aa04     p,.....(r*.,.$..
440160c0:	1c08 a944 287a a504 9432 2bb0 2aa1 210d     ..D.z(..2..+.*.!
440160d0:	abe1 a4f4 a6ca ad36 20f6 ac36 2c34 2d50     ......6.. 6.4,P-
440160e0:	2925 aad4 a72e a9c0 27a1 9eb4 29e8 a83a     %).......'...):.
440160f0:	adfd 8a76 1da1 2b02 a5cb ab83 abb5 aa7f     ..v....+........
44016100:	a2f3 aad3 a9a1 2933 24d1 92e6 280d 2538     ......3).$...(8%
44016110:	2830 aa6f 2965 306a acc5 a8bb 2ccb 2965     0(o.e)j0.....,e)
44016120:	2c4b 26bf a93f 2185 acc7 ad8a 11c0 abf7     K,.&?..!........
44016130:	a05a 2ddc a068 2856 abb6 a82f 28d2 a685     Z..-h.V(../..(..
44016140:	a6c1 2870 2cb7 aacf aea6 af03 ad60 ac70     ..p(.,......`.p.
44016150:	ae19 b0be b03a 0f1b aa89 ab5a 28da a96a     ....:.....Z..(j.
44016160:	ac3c 2d8d 3018 3179 2974 aba8 a6e1 ab4d     <..-.0y1t)....M.
44016170:	2df1 9df4 2ca0 aa0c ae5e ac55 ab3e 2571     .-...,..^.U.>.q%
44016180:	ae94 b0d0 affd accb 1fe2 a888 2c54 306c     ............T,l0
44016190:	acba ab21 1300 2db8 2fd1 2ab3 2a2c 2bc8     ..!....-./.*,*.+
440161a0:	9cfe a423 2b83 2173 9f67 a555 28f8 22f2     ..#..+s!g.U..(."
440161b0:	2d8d 2afa 2e78 8a8b 2703 2c1c 29b2 a642     .-.*x....'.,.)B.
440161c0:	abcd 2c67 9b95 1c00 adc5 a88e 28f4 274a     ..g,.........(J'
440161d0:	a807 2259 1d38 a104 2c84 2390 2c44 244b     ..Y"8....,.#D,K$
440161e0:	a810 a6f9 280a 2887 24ff adff 9ecd 965d     .....(.(.$....].
440161f0:	29df a737 a981 a9ec 2890 2c74 a529 ac06     .)7......(t,)...
44016200:	a0ae a975 2c91 a7f9 2b58 a70d aa7a 2aca     ..u..,..X+..z..*
44016210:	a14d ac7b ac26 2824 9a35 a87f b00b b04b     M.{.&.$(5.....K.
44016220:	aa78 2a36 24cd b138 ae43 10f9 2738 a793     x.6*.$8.C...8'..
44016230:	28b0 a0b6 a87b 29c5 273c 24b2 2714 99a8     .(..{..)<'.$.'..
44016240:	2032 2d4e 3007 2ac8 2f6e 2b7f 999f 2c6a     2 N-.0.*n/.+..j,
44016250:	2973 24bc 22f6 afe8 a996 1c69 a01f aa05     s).$."....i.....
44016260:	a56a 3021 1bb8 2660 a47b 2eb8 a2ce a6f3     j.!0..`&{.......
44016270:	248c 2bce 2670 a9f4 2928 256d ac1e ac3b     .$.+p&..()m%..;.
44016280:	a0a6 a7d6 aa14 9cd3 28f4 23c0 a99e 23d5     .........(.#...#
44016290:	21eb 9c07 2a9c a977 a457 2688 2020 248b     .!...*w.W..&  .$
440162a0:	25a5 2914 a96e ae9e abcf 1fcc 2081 a80e     .%.)n........ ..
440162b0:	a685 b048 aaad a8ed 2ac3 294a b00c a04e     ..H......*J)..N.
440162c0:	247c 2c9a 11e4 2ba1 a237 a702 2946 3026     |$.,...+7...F)&0
440162d0:	2c9e ab12 a7bd a61c 25e4 a8e7 a345 9bd5     .,.......%..E...
440162e0:	ad05 b1d9 ac07 1e3c a4d7 a5be b132 a74d     ......<.....2.M.
440162f0:	257b 2380 2a95 26cf 288e a68e a737 26ca     {%.#.*.&.(..7..&
44016300:	2ac7 99c9 2d14 a0c5 a2c4 a584 2c53 9e32     .*...-......S,2.
44016310:	2b11 a46a a51d 8cd4 a622 21e9 2556 a804     .+j....."..!V%..
44016320:	24a6 1c86 a562 29d8 a3ee 294a 233f 25ab     .$..b..)..J)?#.%
44016330:	a60c 2687 ad5c 0fd6 2cd5 1a7c a396 ad07     ...&\....,|.....
44016340:	285b 2d0a 2967 92d4 1873 293f 2362 a9a8     [(.-g)..s.?)b#..
44016350:	ac86 2b77 27c6 ab93 acf3 a9e3 ad0b 9eee     ..w+.'..........
44016360:	aad5 a877 2331 aefb ac16 a90c a003 aa05     ..w.1#..........
44016370:	2ce6 2974 96be 29a2 99aa 3126 2a3d 2b28     .,t)...)..&1=*(+
44016380:	247d 20d5 332f 2ece 268d a94a adb3 2c35     }$. /3...&J...5,
44016390:	a0eb a3fa 27b9 2e37 2bd4 28b4 26d7 27ca     .....'7..+.(.&.'
440163a0:	2c6c 2b11 2a2d 2d26 25ab a4d8 a4cb 241a     l,.+-*&-.%.....$
440163b0:	a336 9b92 ac6c a2fb a4a8 abdc a1b2 a7e1     6...l...........
440163c0:	a7bb 17f2 94cd 28c5 ae20 a74a ab7a 243a     .......( .J.z.:$
440163d0:	9da8 ab6b 2c32 a26d ad39 a072 2649 2a00     ..k.2,m.9.r.I&.*
440163e0:	29e5 abf2 964c 19b1 9a53 a838 2732 a9b8     .)..L...S.8.2'..
440163f0:	20c0 aced a5c5 204e 2678 aa16 abab ad70     . ....N x&....p.
44016400:	24a3 2e60 1f14 a5ec 9d5c a386 a857 aa74     .$`.....\...W.t.
44016410:	a812 2052 a892 ad93 a30f 2c05 26bc 270b     ..R .......,.&.'
44016420:	a96c 218b 307f 2c03 2807 a436 ac55 1ddc     l..!.0.,.(6.U...
44016430:	2c01 2bd3 a035 aa0f 2de0 2c13 96fe 2609     .,.+5....-.,...&
44016440:	a109 a5d2 2ca7 2e3d 2f84 28e9 29b2 2e2f     .....,=../.(.)/.
44016450:	9595 ac28 9c85 a95d a883 292a a8f0 b16d     ..(...]...*)..m.
44016460:	adaf ac17 2969 2bad a86b a1e7 274d 2a69     ....i).+k...M'i*
44016470:	30bb 27c3 2b1c 9ff6 3042 297f aef3 2e82     .0.'.+..B0.)....
44016480:	2d38 25fc b078 b2ae 98d1 a9ab 1a20 a926     8-.%x....... .&.
44016490:	b293 a5dc a30d 23a6 2cf7 acea 2b57 a701     .......#.,..W+..
440164a0:	2d35 3068 a66b 2831 23b0 2fbb af29 a8da     5-h0k.1(.#./)...
440164b0:	2eca 2d7b 2c11 b227 9885 ac34 23cf 2c89     ..{-.,'...4..#.,
440164c0:	2b72 ab0e a17c a670 a458 a438 aec5 ac5e     r+..|.p.X.8...^.
440164d0:	ac44 ace4 ad7f a8cc aa9e 1efb aeb1 acc8     D...............
440164e0:	275f 1ec7 98c2 24b0 2b32 2dbc ac80 21a8     _'.....$2+.-...!
440164f0:	23cb 2dff a60c acfa ad2c ab87 a0bf a0b3     .#.-....,.......
44016500:	a709 9fba 291e a970 99ca 2bd4 9c1c a11a     .....)p....+....
44016510:	1e38 ad3c 2e62 9bc2 aad0 ab47 1003 26cb     8.<.b.....G....&
44016520:	28b1 2ea5 244d aa9f a8cd 2afe 2e1a 2e60     .(..M$.....*..`.
44016530:	a808 ad70 ae3c 2a50 2dbf 951a a7f3 30ba     ..p.<.P*.-.....0
44016540:	299c 9ac0 abd5 2eaa 2d8e a134 aae6 ad5d     .).......-4...].
44016550:	2c95 2ec3 2bfb 295a a9cb 2aea 2040 1e44     .,...+Z)...*@ D.
44016560:	288a b081 94c8 ad61 ac96 a6fb ad9e a95c     .(....a.......\.
44016570:	16a5 26b0 25fb 2cf4 a560 976a 2c3a 297a     ...&.%.,`.j.:,z)
44016580:	2979 ab91 9c33 2234 a372 aabc 2413 1fae     y)..3.4"r....$..
44016590:	ab95 98bc 0dc5 2950 aac5 2b83 2938 a61c     ......P)...+8)..
440165a0:	2914 2c8c 219b 1d3e 254e 2a90 25c9 9f26     .).,.!>.N%.*.%&.
440165b0:	a7ae a986 ac1c 220b 2912 1feb ae7a ae2a     .......".)..z.*.
440165c0:	23c5 a714 2e2e a8ff ad8d 287e 291b 2d77     .#........~(.)w-
440165d0:	a861 16a4 2c49 2d16 a970 b0ae 2b4f 2eae     a...I,.-p...O+..
440165e0:	a179 a8af ae57 ad16 2f0f ac62 9d66 afcf     y...W..../b.f...
440165f0:	9d72 2bae ac07 a7d4 ac30 a33a 282e 24da     r..+....0.:..(.$
44016600:	294a 3045 24a8 2553 ab5c 2955 3242 2b7d     J)E0.$S%\.U)B2}+
44016610:	2481 aa7d 28c9 307f acb3 1c2f a80c 9209     .$}..(.0../.....
44016620:	a616 a932 97dd a364 a8cd a6bf a7ab a82e     ..2...d.........
44016630:	236d 1d18 a57f a8f6 a85c 0683 a05e 29c8     m#......\...^..)
44016640:	a09e a872 a26f 9db4 ac37 a5d4 a937 2a47     ..r.o...7...7.G*
44016650:	2a73 ac16 ac1c ad13 9d93 1b3f a4e9 a4db     s*........?.....
44016660:	aaba abed aa0e a75e adaf a593 a46b 2a7f     ......^.....k..*
44016670:	9c24 aba4 ab92 2a4e 2bf9 2a39 a411 270b     $.....N*.+9*...'
44016680:	a7fb 2d63 2176 2600 1c97 a9b3 2c70 29f2     ..c-v!.&....p,.)
44016690:	a499 accf a5a1 adaa a414 b0bf a404 a9e5     ................
440166a0:	2728 1341 b182 b14a 2ce6 2e98 2d23 ab30     ('A...J..,..#-0.
440166b0:	a1d0 2e2f 9cc1 a49e ad4c acb6 9cf7 a35c     ../.....L.....\.
440166c0:	b0a1 ae3a aa22 a47f ab93 2118 22a2 283e     ..:."......!.">(
440166d0:	2a22 29e7 2d8f a5f8 a979 2a48 11e0 2d55     "*.).-..y.H*..U-
440166e0:	a197 aa32 acbe ac28 aa13 a318 1ca2 29c8     ..2...(........)
440166f0:	a918 ab83 a378 2b8f 1a4c 2874 23d7 2b00     ....x..+L.t(.#.+
44016700:	1ccc a96f 2677 2ec4 a5fb a907 a78d a69c     ..o.w&..........
44016710:	a424 2a8d 293f 2cb1 239b ab0f 9df7 25e9     $..*?).,.#.....%
44016720:	a26c 297e a6ca 22ec 9f2b 22a0 2a36 2438     l.~)..."+.."6*8$
44016730:	2617 2332 2518 a490 23f5 a74a a8af 200f     .&2#.%...#J.... 
44016740:	2b90 2af8 2ccc 2eb3 3032 2f44 2ceb 2979     .+.*.,..20D/.,y)
44016750:	2e35 2c19 2530 a79c 2c69 2e53 2934 264d     5..,0%..i,S.4)M&
44016760:	a996 1be4 2534 a611 27a4 1cad 2e6f 26b6     ....4%...'..o..&
44016770:	29c3 236c ac8d 1f24 2f41 2e2a 2d21 a229     .)l#..$.A/*.!-).
44016780:	29c2 2b0a aa5c 2d61 278e 2cb5 94e8 2a98     .).+\.a-.'.,...*
44016790:	2fb8 2d2c 1d14 a375 3073 2ca8 29da a905     ./,-..u.s0.,.)..
440167a0:	28df 28ad ad97 b01c 2e14 2dba 2e06 2e0e     .(.(.......-....
440167b0:	2560 26f7 2a09 a374 2c7c add7 9ccd ad4a     `%.&.*t.|,....J.
440167c0:	2a71 2e9f 2c66 a4af 1b83 2e69 a96a a999     q*..f,....i.j...
440167d0:	a866 25c2 2b15 a338 ac62 2b09 2424 aa47     f..%.+8.b..+$$G.
440167e0:	acd5 ac1a a00a 27aa 1c9f a069 a4ef 292e     .......'..i....)
440167f0:	240c 2706 a47e a887 a650 9b16 acb3 a092     .$.'~...P.......
44016800:	28cf a5b3 a5a5 2871 2f5d 3103 212b 2399     .(....q(]/.1+!.#
44016810:	2295 aa04 ade5 2145 251a ab8f ad2a a3fc     ."....E!.%..*...
44016820:	27e2 26f8 27a3 a804 249d 2c33 a69e 252c     .'.&.'...$3,..,%
44016830:	9a6e a450 2337 180a ac14 1ebe 25ac 2efd     n.P.7#.......%..
44016840:	302c 2dcf 2676 21a8 2770 2cb5 2c58 1c66     ,0.-v&.!p'.,X,f.
44016850:	ad21 2644 a9a7 a45e 2378 a530 2e48 2d3d     !.D&..^.x#0.H.=-
44016860:	2c26 2ad9 ad16 2bfe 2fee 266b 2835 9a04     &,.*...+./k&5(..
44016870:	2437 8da0 ab7a 288e a142 28b0 aa1d a87c     7$..z..(B..(..|.
44016880:	a948 a62c a1ab 2983 ab0b a44c 24e8 2802     H.,....)..L..$.(
44016890:	a0e4 1ec9 2d55 2cdd a552 221a 9aea 2db8     ....U-.,R.."...-
440168a0:	2d01 ad1d 217f 252c aa67 a44d 2896 2692     .-...!,%g.M..(.&
440168b0:	a764 a1bb ad76 298e 2868 284a 2cc2 2a6e     d...v..)h(J(.,n*
440168c0:	2803 a698 293e 1731 235f 2696 a62e 9f71     .(..>)1._#.&..q.
440168d0:	abbc 90d9 24d9 2ec6 2c5c 20db acba 2c80     .....$..\,. ...,
440168e0:	2811 aaa5 a638 af26 a2c6 2692 aca2 2c44     .(..8.&....&..D,
440168f0:	28ad 265b 2912 1b4f 26ce 23d0 2188 2c35     .([&.)O..&.#.!5,
44016900:	a7d5 a318 a1e8 a3de ab8f a8df 2cc9 2e0b     .............,..
44016910:	a9b6 20e6 1d45 a373 2b5e 2ba5 2b4b 1c5a     ... E.s.^+.+K+Z.
44016920:	27b4 20ab 2c9c a896 a2dc 2a75 2fdf 9ad1     .'. .,....u*./..
44016930:	2544 230a 23bd aaed 228f a963 a8cd 928e     D%.#.#..."c.....
44016940:	ad4b 214a 29f6 a4fe 24be a88a a541 28e4     K.J!.)...$..A..(
44016950:	a956 23b7 a550 a2ed 21cc a8a9 25d3 2a90     V..#P....!...%.*
44016960:	a78a aa79 22da 2d33 299b 1b31 aaa6 aa3f     ..y.."3-.)1...?.
44016970:	a915 ac4a 2630 2ab8 a5e2 a92c a622 2d4b     ..J.0&.*..,.".K-
44016980:	a970 2802 ab17 2a83 24c3 a87f a59a 2411     p..(...*.$.....$
44016990:	2f47 ac87 aec9 a6ef 2e55 2f24 25c4 215c     G/......U.$/.%\!
440169a0:	a415 a234 aab7 2ed6 2ddd 2ada 2a21 2e1d     ..4......-.*!*..
440169b0:	a9c2 2625 14e0 a546 a753 a935 275c 9983     ..%&..F.S.5.\'..
440169c0:	a4c1 2968 aed6 aced ac70 2cb9 2ed9 85fd     ..h)....p..,....
440169d0:	a557 9e69 ad89 add3 2979 a558 a28a aaa1     W.i.....y)X.....
440169e0:	acb3 aac7 ac56 96f8 9e7f 9da3 a4c4 a6ab     ....V...........
440169f0:	2d70 2efb 2f0f 9fb9 2187 2e3b 2dda 2827     p-.../...!;..-'(
44016a00:	2833 2c6f 2867 2a96 29d0 2859 287c a5a1     3(o,g(.*.)Y(|(..
44016a10:	a476 2279 2f30 a6fd 1a30 aa43 a787 a0e8     v.y"0/..0.C.....
44016a20:	9e3e 2616 1c08 a862 0de8 26c1 2dce a1d2     >..&..b....&.-..
44016a30:	a772 2d3c 26f0 ad3f aeed a933 2c69 29de     r.<-.&?...3.i,.)
44016a40:	a338 ad48 23cb 2c56 1cb3 2b4d a3d7 2cb5     8.H..#V,..M+...,
44016a50:	1894 2925 a5f9 a7d8 29d4 20cf 2d1a 1909     ..%).....). .-..
44016a60:	a998 ac9a aa92 a33f 26b3 2e2d 2944 af9f     ......?..&-.D)..
44016a70:	1aca 29a4 298d a781 2932 a5f6 2c67 216c     ...).)..2)..g,l!
44016a80:	9cac aaf8 abfd 1c8d 2a95 280f aeeb a921     .........*.(..!.
44016a90:	abfc a293 21fd 2eb5 2de3 a49f a4f6 a5e2     .....!...-......
44016aa0:	2bcc 2af9 2905 ace8 1091 2e9e 2f7a 2a3a     .+.*.)......z/:*
44016ab0:	2932 2548 3048 3001 2c9f a132 2955 2aea     2)H%H0.0.,2.U).*
44016ac0:	2c93 2615 a548 25a9 2efa 28fb 1436 aeb6     .,.&H..%...(6...
44016ad0:	ae6c 2765 a8ed 13da b047 2f61 2d20 2c8b     l.e'....G.a/ -.,
44016ae0:	2c63 28d5 2c4b 2de7 2d8b 22d9 2037 26e5     c,.(K,.-.-."7 .&
44016af0:	2fb2 2e65 1e01 a829 a9c0 28b4 a99c 1aba     ./e...)....(....
44016b00:	a1ab 2b8a 28f5 25f3 2c19 2e90 2fa6 2d8e     ...+.(.%.,.../.-
44016b10:	29cc a050 984f 27dd 26c8 ac84 aa94 ac05     .)P.O..'.&......
44016b20:	aaf6 a83e 2bf5 2aef 9d1b aac9 264b 2c7a     ..>..+.*....K&z,
44016b30:	20ae abb2 2649 2c69 243f a271 2a54 aa4c     . ..I&i,?$q.T*L.
44016b40:	2b9c 2d2e a358 28d4 a344 a936 24d3 2863     .+.-X..(D.6..$c(
44016b50:	a8fb 279c 29d1 27f7 a8b9 27a9 ad24 a8e8     ...'.).'...'$...
44016b60:	a45a ab14 ab1b ad03 2c62 2e7e 19de 2916     Z.......b,~....)
44016b70:	a025 2b3d 2db4 2a8d 29a8 a399 2bae 2da5     %.=+.-.*.)...+.-
44016b80:	a612 a194 2c0e 2c1f 27bc a1ad a973 a4b7     .....,.,.'..s...
44016b90:	a9c6 aa5c a987 26d4 2da9 a523 27e8 2cf1     ..\....&.-#..'.,
44016ba0:	294e 29fd 2104 a6fa a944 1d91 2b4c af1d     N).).!..D...L+..
44016bb0:	af3d a83c 1c59 26c2 acf9 a10e a645 1a36     =.<.Y..&....E.6.
44016bc0:	aa17 a487 26a0 2ba6 a410 ac53 241b 2b91     .....&.+..S..$.+
44016bd0:	2b98 a5b2 204d 2618 9873 214b 28c5 1ae8     .+..M .&s.K!.(..
44016be0:	a2a9 a690 252b a2e0 28bc a870 a2ac a5e0     ....+%...(p.....
44016bf0:	28fe a5a0 2c1e 9f81 ac29 ada4 b04d 2f0e     .(...,..)...M../
44016c00:	25df a58d a984 2733 2970 1d92 2ddc 2b8c     .%....3'p)...-.+
44016c10:	2b1c 23e9 262f 2962 a369 99f1 29b4 28f6     .+.#/&b)i....).(
44016c20:	2860 a07d 1e88 a4d6 a647 2cb5 311b 2406     `(}.....G..,.1.$
44016c30:	1f56 ad0a ad85 2ad8 1f58 a362 ac03 22e7     V......*X.b...."
44016c40:	2a4e 2cb0 2217 a088 2d16 29de 2ab8 2836     N*.,."...-.).*6(
44016c50:	a711 a97d ad35 9270 29ff 9c70 2c74 a391     ..}.5.p..)p.t,..
44016c60:	a02e 2d13 2553 2c60 1b4c 251c 2d28 29d7     ...-S%`,L..%(-.)
44016c70:	23bc a770 a6b4 a8cc 253c 27bd 17a7 1b7e     .#p.....<%.'..~.
44016c80:	a34b 2a87 2672 2940 a6cf 2e60 2c47 a49d     K..*r&@)..`.G,..
44016c90:	2983 2b56 2b9a a331 2bd2 1e9a a48c 2f23     .)V+.+1..+....#/
44016ca0:	2bb9 a654 a379 aad9 ac18 ab6d 9af0 a151     .+T.y.....m...Q.
44016cb0:	ab0e acf5 a836 2c01 a475 259f 29f2 28be     ....6..,u..%.).(
44016cc0:	2881 294a 2ca2 21c6 2d94 2479 a945 a79a     .(J).,.!.-y$E...
44016cd0:	aa30 28fa 1b3a a856 1c87 b1d8 ac07 2478     0..(:.V.......x$
44016ce0:	a905 2a0c ae93 214b 2ec3 21b6 abae a914     ...*..K!...!....
44016cf0:	a536 2b8b a17d 2213 2450 9dcd 2c4f 2ccb     6..+}.."P$..O,.,
44016d00:	2b6a 25e3 254d adcc 1e3d 2a88 a700 1fe6     j+.%M%..=..*....
44016d10:	aa1a a223 255a 28b3 2de9 245b a45e 2683     ..#.Z%.(.-[$^..&
44016d20:	aa3b 2717 2422 2cf1 254b a58b aa44 a88b     ;..'"$.,K%..D...
44016d30:	2350 2bf1 2b2a ac25 a605 252f 257e a03a     P#.+*+%.../%~%:.
44016d40:	2aa8 a2db a4b1 9ab7 1b29 286e 279a 2931     .*......).n(.'1)
44016d50:	a379 ad42 ad0b 2003 2d42 2684 ac7d ab97     y.B.... B-.&}...
44016d60:	9271 22d4 2d8c 98e1 a95b ada4 a05e 256b     q..".-..[...^.k%
44016d70:	2758 2dc5 a1f1 a9df aa4e 29be 2e03 2174     X'.-....N..)..t!
44016d80:	ae85 2adc 313f 2e07 2bbd 27d8 aeb8 2f11     ...*?1...+.'.../
44016d90:	2916 2c1e 2bd6 abf3 2c75 2bf1 2204 a3c1     .).,.+..u,.+."..
44016da0:	23f3 208f 2d51 1ecd a168 2315 2a5d 2eb8     .#. Q-..h..#]*..
44016db0:	2b66 20f8 2cd7 a8d4 af52 ab8c aae9 a4d9     f+. .,..R.......
44016dc0:	26af acc1 20df a89a ad07 2901 1624 2c78     .&... .....)$.x,
44016dd0:	28ea 89a8 2d55 29aa 9f50 293d 2218 a533     .(..U-.)P.=)."3.
44016de0:	a57d 1710 af0c ae5b a40a ae99 1bd5 ad67     }.....[.......g.
44016df0:	af25 a9ad a49d 2d2a a925 aa09 2396 20fd     %.....*-%....#. 
44016e00:	a454 2d1a 2fe2 2e68 a523 1a1e a4d6 29e5     T..-./h.#......)
44016e10:	24ff 2351 b022 b080 21f9 ad3c 9def 2b43     .$Q#"....!<...C+
44016e20:	2952 2a43 a932 a9fc a4f4 29d1 27b6 a19e     R)C*2......).'..
44016e30:	adf2 acd6 29e9 285b 1e1d a6f0 a728 277e     .....)[(....(.~'
44016e40:	2cc6 a7bb 2819 2d1d 200d 2f5b a295 a8b8     .,...(.-. [/....
44016e50:	2b8e 2d3f a2a1 1991 a83e 2630 a418 27ec     .+?-....>.0&...'
44016e60:	a59e 9e85 29e4 a685 15d5 2c33 2c10 a4c9     .....)....3,.,..
44016e70:	a4d5 24e6 9934 24db 2685 28fa 2af1 285b     ...$4..$.&.(.*[(
44016e80:	a842 2236 2225 2283 a48e 271a 2b5c 2d66     B.6"%"."...'\+f-
44016e90:	aaca 9fbd ac0f 2b68 a5e4 a5ea 2950 28ab     ......h+....P).(
44016ea0:	a4b0 a4e7 1f97 a058 253a 2284 a565 a33e     ......X.:%."e.>.
44016eb0:	243d 2de5 300a 2679 2bfa 2f99 25f6 267d     =$.-.0y&.+./.%}&
44016ec0:	9ba9 ab09 a7c5 a845 aa5d acb0 a101 a40a     ......E.].......
44016ed0:	a412 a8f1 9063 2d49 2aa6 2c38 2a6b 29fb     ....c.I-.*8,k*.)
44016ee0:	3088 163c 27c8 2c2c 25b7 a7db 8f04 2af9     .0<..',,.%.....*
44016ef0:	a21f 2c9e a66b 24e3 2a4d 29a6 a82c 2a38     ...,k..$M*.),.8*
44016f00:	2a39 2c94 29d2 278b 2b98 258e 2a60 2e95     9*.,.).'.+.%`*..
44016f10:	abcc 2aa6 1fdd 2a26 a9b3 a4a2 a9da abda     ...*..&*........
44016f20:	20d4 a01d 2db0 2610 a7df 1077 25d9 97d1     . ...-.&..w..%..
44016f30:	244d a4fe 9d29 2827 a521 289b 2cd4 289a     M$..).'(!..(.,.(
44016f40:	ad66 a9d7 ac03 2716 9b77 a858 24f5 b166     f......'w.X..$f.
44016f50:	80a1 2f38 2c37 2d8d af38 299b 2eb3 2f4f     ..8/7,.-8..)..O/
44016f60:	2842 1b89 10f6 2688 a937 2abf 2f30 2435     B(.....&7..*0/5$
44016f70:	a950 2439 aae0 305e 2889 a93b 2c36 2b53     P.9$..^0.(;.6,S+
44016f80:	a2ea 29be 216f 2a1e 2c78 a752 9c22 1f58     ...)o!.*x,R.".X.
44016f90:	a00f 283d a642 293e 25ca 2c74 a843 a28b     ..=(B.>).%t,C...
44016fa0:	2728 269f 2882 141b 2a3c abc1 237e 29af     ('.&.(..<*..~#.)
44016fb0:	2cc4 2596 9ebc 9e04 aa7d 2c22 96b0 abfb     .,.%....}.",....
44016fc0:	aa49 a634 18b8 a650 96a0 a401 1dfc 2592     I.4...P........%
44016fd0:	2974 2a63 2256 253e 2bd5 2a0d 2df1 2c9f     t)c*V">%.+.*.-.,
44016fe0:	2c0e 2c3e 2d7d 2b8a 922b ad6b 2c72 2f71     .,>,}-.++.k.r,q/
44016ff0:	ac81 acb6 a895 28c2 a881 988b a959 24e2     .......(....Y..$
44017000:	2f06 2992 29b1 2c2d 271e 2be3 2942 1a22     ./.).)-,.'.+B)".
44017010:	27d7 2deb a6af a776 ab87 ab78 a885 a9f0     .'.-..v...x.....
44017020:	ac1d ae2c ac32 25a5 2590 293c 2c30 2b46     ..,.2..%.%<)0,F+
44017030:	1dff 9ee5 2cd3 9ebb 215e 14a2 190c 26f0     .....,..^!.....&
44017040:	28b8 2009 29e0 2544 29a5 a8ac 2aa4 a7a4     .(. .)D%.)...*..
44017050:	a97d 18c4 2bfc a255 a4d0 9bce a450 ac7b     }....+U.....P.{.
44017060:	a6f6 9b7b 2807 26e9 a810 2e61 2c90 2e52     ..{..(.&..a..,R.
44017070:	2f7c a7d7 2587 1eb3 a54d 9e54 2c6b 29d4     |/...%..M.T.k,.)
44017080:	2897 acad ab22 a449 a0fa a552 aa80 289a     .(..".I...R....(
44017090:	2762 2dcb 2c2a 2be9 2559 2953 24ef 10cc     b'.-*,.+Y%S).$..
440170a0:	27c8 a7f4 acc7 298e 2cd9 a3e7 2155 9e46     .'.....).,..U!F.
440170b0:	aa1a 29a6 2c87 aaad 2afa afd1 278f 9678     ...).,...*...'x.
440170c0:	2bed abe5 178c 290b ac91 af4e af51 b01b     .+.....)..N.Q...
440170d0:	ad9a aa04 9623 2eb0 2ce3 aab3 ad22 aa9c     ....#....,.."...
440170e0:	269d a5a5 aa27 ac3b b109 2815 28cb 9c5c     .&..'.;....(.(\.
440170f0:	0fec b131 21d0 2fd1 2849 249e a7c0 a995     ..1..!./I(.$....
44017100:	a4b4 a37a 2bef 2681 2f0c 9bc9 ae21 b08c     ..z..+.&./..!...
44017110:	afed a277 a5bc aaf1 b03c ae21 aa93 293c     ..w.....<.!...<)
44017120:	15c2 ae19 afdd 2a61 19f5 aa84 2793 279c     ......a*.....'.'
44017130:	a805 9c5a ab0a a55f 29e7 254d a16f 9fb9     ..Z..._..)M%o...
44017140:	2127 a2ee 28f9 a52d 9586 2915 2c03 2827     '!...(-....).,'(
44017150:	253a ab73 2358 2828 0afa a576 a472 a1ff     :%s.X#((..v.r...
44017160:	ae33 28d9 20bf 2594 28e0 a98f 238e 2a00     3..(. .%.(...#.*
44017170:	2ce7 2955 2b09 a525 2a32 285f 2a87 a8b1     .,U).+%.2*_(.*..
44017180:	a29b 2062 28c5 1fda 9dc4 9a2e a1fc ad7a     ..b .(........z.
44017190:	abb5 2d6d a5e2 a864 a229 2f3c 2c58 0af4     ..m-..d.).</X,..
440171a0:	2502 a725 aea9 ab1a a850 2a1b a3bd aa60     .%%.....P..*..`.
440171b0:	296c a992 a680 2d6b 1f74 2431 2058 1bc6     l)....k-t.1$X ..
440171c0:	a0ef a51f 2088 2c49 9b5a a747 240b 2926     ..... I,Z.G..$&)
440171d0:	2672 2be7 2c59 2c63 29c7 25c2 9ec8 2d27     r&.+Y,c,.).%..'-
440171e0:	2820 2e48 a78b aadd ab45 259d 2491 ad60      (H.....E..%.$`.
440171f0:	a046 a9a5 aefd ae91 ab9c abaf ab68 acde     F...........h...
44017200:	248a 2a92 2c1c 2d6e 20ac aa65 a298 28b8     .$.*.,n-. e....(
44017210:	2979 873d 230e 1c06 9929 2561 a8f8 abe3     y)=..#..).a%....
44017220:	acc1 a4f3 1fa0 aaed a687 a825 25e2 25b4     ..........%..%.%
44017230:	2d1e 2d36 9610 0e9d 1d44 a596 acbd 2a45     .-6-....D.....E*
44017240:	28d2 29fc 2659 9c0e a4ed a078 290c a856     .(.)Y&....x..)V.
44017250:	ac7b 2013 1bef a86f 1e57 2df9 2c38 25d3     {.. ..o.W..-8,.%
44017260:	27bd 2f7f 2acf 2d0a 2f59 2ded 26ec a8a8     .'./.*.-Y/.-.&..
44017270:	a512 a676 a043 22e1 a0c9 2b6e a454 2cc8     ..v.C.."..n+T..,
44017280:	ad1c acce a889 a4ef ad99 af19 af23 2776     ............#.v'
44017290:	ac76 a8f5 2a92 2c7e a8f5 9e95 2bf2 2b4a     v....*~,.....+J+
440172a0:	26aa 2010 262e a6b6 24d5 960d 2047 0db7     .&. .&...$..G ..
440172b0:	26d5 238f ab14 acd0 14a5 2a4b 18c3 288c     .&.#......K*...(
440172c0:	2cac 2ca8 2b34 282e 1fe3 21d4 2c6f 2bf7     .,.,4+.(...!o,.+
440172d0:	2ac3 2671 abf1 26b7 242b 283c 2ac8 2d20     .*q&...&+$<(.* -
440172e0:	1389 a6d1 0d85 ac0c aa56 aabe 1206 2bef     ........V......+
440172f0:	2483 a0af 2bdd 2f24 9fe5 2a2f a639 ac28     .$...+$/../*9.(.
44017300:	1b89 a927 2a99 2087 a0d5 1ecb aa0d ab58     ..'..*. ......X.
44017310:	aa74 a962 22f6 2d82 a465 a89d ad78 93b0     t.b..".-e...x...
44017320:	2c0a 2fd3 a574 2d33 2ccd 9c6a a6dc a236     .,./t.3-.,j...6.
44017330:	1e26 2285 2bb3 2d31 280c a284 99e9 a701     &..".+1-.(......
44017340:	2d36 9d97 2695 a37c a5a5 a19a 252c 2922     6-...&|.....,%")
44017350:	aa1d ab06 ad4d 2a0d 2cbb a952 a9e8 2c68     ....M..*.,R...h,
44017360:	29e4 2647 a9ea 24e3 a2d5 273d 2935 ac0d     .)G&...$..='5)..
44017370:	a8f2 2c78 1d22 ac09 ac8d aa28 257e a912     ..x,".....(.~%..
44017380:	a483 a248 24f5 284d 9f57 2c33 29f7 24dd     ..H..$M(W.3,.).$
44017390:	983c 2c71 295a a8a0 9d76 ac20 a197 a7b4     <.q,Z)..v. .....
440173a0:	aa69 abaf a9fe 2845 29f9 ab40 ac5d 2c62     i.....E(.)@.].b,
440173b0:	2a2d 2ef2 297c a69b a56c aa2b 2d3f ae75     -*..|)..l.+.?-u.
440173c0:	aacf a983 29ed 2da4 2ccd 2c72 2898 2d89     .....).-.,r,.(.-
440173d0:	2e1e 255b 2a8b 2212 a5ac 259d a988 abf1     ..[%.*."...%....
440173e0:	1825 1d09 224a adac a04c 2acc 2792 a8a7     %...J"..L..*.'..
440173f0:	2597 2ca9 2ed0 23f8 ab15 2c59 2766 a63b     .%.,...#..Y,f';.
44017400:	269a 2cfd 2b78 acc1 b04d 94a0 23d1 a0b4     .&.,x+..M....#..
44017410:	a9a5 aa64 a759 20ce a066 2a40 2237 aed0     ..d.Y.. f.@*7"..
44017420:	b021 1711 2e9a 24ad 28e4 2a03 2c2d 991e     !......$.(.*-,..
44017430:	a85f 14bc 2df0 222f b0b0 b10a 2956 2f7e     _....-/"....V)~/
44017440:	aa6a ab76 2e75 a843 27d8 a512 2b62 2f91     j.v.u.C..'..b+./
44017450:	9ea0 a84a b0f6 a874 3031 93a7 2b6e 1877     ..J...t.10..n+w.
44017460:	ac2f 26e6 235a ac4d ad43 2495 2d32 a883     /..&Z#M.C..$2-..
44017470:	a345 a4cc 2cdf 2dd7 9dca 2c3c 9d48 a350     E....,.-..<,H.P.
44017480:	abc1 2582 20da 2cb0 292a 1828 9d1c a409     ...%. .,*)(.....
44017490:	9de7 a822 a712 29a9 1b7f 2bc0 acb2 2c5c     .."....)...+..\,
440174a0:	228e 2260 ab9b acdc 9812 2808 2a67 9ec4     ."`".......(g*..
440174b0:	a228 1e22 1e67 a741 2bb4 261e 284b a455     (.".g.A..+.&K(U.
440174c0:	2bdd 1c64 1c0b a3cb 29b4 2caf 2cf8 ac90     .+d......).,.,..
440174d0:	aaeb 2a8a 2aa6 2c6d a871 2806 278f a665     ...*.*m,q..(.'e.
440174e0:	aded 2923 22c8 abe6 af17 a338 247e a6d4     ..#)."....8.~$..
440174f0:	9a3a 21e4 22ce 2df5 2d40 abf5 26f4 2edb     :..!.".-@-...&..
44017500:	2f22 2d2f ad75 9cf0 a625 aa24 838a a0d0     "//-u...%.$.....
44017510:	2875 ad27 ab6d 1f96 27d5 2d46 2e18 22d3     u('.m....'F-..."
44017520:	2cd1 a321 2177 2448 2708 298a a278 9dc6     .,!.w!H$.'.)x...
44017530:	2d2f 246d ad5e 0c8d 2c4a a3e0 a2a6 22b6     /-m$^...J,....."
44017540:	a395 a94a a8e7 9423 2c5b 24ae 1f2b 247e     ..J...#.[,.$+.~$
44017550:	2be5 2dc4 2d37 2044 2ccd a5f5 a03e 2da6     .+.-7-D .,..>..-
44017560:	28de 9517 ac1f acaa 29af 9bb7 a808 aae7     .(.......)......
44017570:	2b1e a6c3 246f 977b 2864 1b5e 92a3 209b     .+..o${.d(^.... 
44017580:	add5 251c a817 a3b3 ad31 a50c 2f33 2ebd     ...%....1...3/..
44017590:	25ce 1893 2ca6 3232 206f a251 25a4 2bbf     .%...,22o Q..%.+
440175a0:	a19e b03e a88c ae43 a8c9 2aa3 2815 2743     ..>...C....*.(C'
440175b0:	2240 2e20 2ddc 2d39 2826 a7d8 2bb2 a69d     @" ..-9-&(...+..
440175c0:	20a7 259d a80b 9d06 a7b3 a38c a001 20b4     . .%........... 
440175d0:	9587 abba ac3c 2a4b 29fc 2ac6 acc8 12dd     ....<.K*.).*....
440175e0:	27eb 29bd a890 a63b 28ec a012 a102 a896     .'.)..;..(......
440175f0:	276e 1cf9 299f 9b34 a52e 2de1 2cca a067     n'...)4....-.,g.
44017600:	a985 2832 27b8 a6a6 2416 2d6f 2824 1922     ..2(.'...$o-$(".
44017610:	ad8d 2cc4 2ff6 2484 8c66 a723 28dc 2535     ...,./.$f.#..(5%
44017620:	a455 29e6 2868 2747 a956 a44a a171 2c8b     U..)h(G'V.J.q..,
44017630:	aee6 a663 27c2 28a4 2b39 291b a2f7 2cf3     ..c..'.(9+.)...,
44017640:	2f02 a742 30f4 3116 3043 aced aca3 a9a4     ./B..0.1C0......
44017650:	a273 1eb3 25d2 1cf3 2506 9e3f a661 2d64     s....%...%?.a.d-
44017660:	2942 2a29 2c52 288e a5be a220 2c4e 2d44     B))*R,.(.. .N,D-
44017670:	a862 178a 2aa5 29d8 2a1b 2509 2bac 245a     b....*.).*.%.+Z$
44017680:	2a51 2a46 2b80 29b9 2cbb 2745 9f0a 2b7b     Q*F*.+.).,E'..{+
44017690:	a606 15bb 2f72 9af7 a9f1 a495 298d 284d     ....r/.......)M(
440176a0:	a488 a88e a0aa a533 a829 285f 2a2b 2663     ......3.)._(+*c&
440176b0:	27af 2a82 a928 a554 a9f1 a4f4 29c4 257b     .'.*(.T......){%
440176c0:	9cc4 285b 2e58 2f40 272e 24ea 2d3e 2b1a     ..[(X.@/.'.$>-.+
440176d0:	297c 1f39 a632 24e7 24fd 223c 20bc 8d07     |)9.2..$.$<". ..
440176e0:	a45d 2581 2a95 2e66 24c3 a7bd a746 ab1b     ]..%.*f..$..F...
440176f0:	1f9a 2510 9f3c adb3 1b49 a8b5 1ecf a257     ...%<...I.....W.
44017700:	2d86 aaff a6db a60a 2a58 2a22 a58e 21df     .-......X*"*...!
44017710:	a063 a25b 1ab6 306f 2cf7 b02e afe0 b1a8     c.[...o0.,......
44017720:	2ccd a5ef aaf2 a9c9 2d5c 2af6 a330 2907     .,......\-.*0..)
44017730:	2eb9 2e32 2d32 a09b 2d3d 217e a756 284f     ..2.2-..=-~!V.O(
44017740:	301d 297b a955 2a1f 3003 20f4 ad14 b3c3     .0{)U..*.0. ....
44017750:	b3fa 2693 a54b ac08 ad49 3373 29b3 2572     ...&K...I.s3.)r%
44017760:	282f 2d99 31be 2b68 278f 2d37 278f 9c0d     /(.-.1h+.'7-.'..
44017770:	2d36 2c51 262f 222e 261e 26cb 1e36 a6cb     6-Q,/&.".&.&6...
44017780:	2cf0 2de8 1c5e 24a4 1f53 2acf 2966 155f     .,.-^..$S..*f)_.
44017790:	243b 9f37 a8b3 abfd 221d 1ddd a539 acad     ;$7......"..9...
440177a0:	23f0 18aa 2480 a59c ad6d a5e0 2799 2a2c     .#...$..m....',*
440177b0:	282a aae4 2081 2d1d 2c30 a4cf a6b6 2981     *(... .-0,.....)
440177c0:	26fe 2885 a4f2 2544 29e4 1ece 2956 a81a     .&.(..D%.)..V)..
440177d0:	a8fe a475 9e6f 9e7b 1b00 ab3f a769 a583     ..u.o.{...?.i...
440177e0:	a86b b0dd af4c abf1 312b 305e 9cce 9de3     k...L...+1^0....
440177f0:	a084 2eea a22f a8d9 2e66 2c8e 2fc8 2cbc     ..../...f..,./.,
44017800:	a89e 2643 2166 30a3 2a19 256f 9cb7 a824     ..C&f!.0.*o%..$.
44017810:	268e 29b7 289b 20a0 9a03 9dbe 2da2 2ab9     .&.).(. .....-.*
44017820:	a9ba 280b 2446 248b a55c 1cb3 22ae ab04     ...(F$.$\...."..
44017830:	a94b ab94 283f 28a4 a55f a6ca ac87 aaf7     K...?(.(_.......
44017840:	a7e6 a5fa 2c92 2e03 ac5c ae52 a52e a2af     .....,..\.R.....
44017850:	aab8 20c3 29ec a109 2948 1a7c 1f3b 29e3     ... .)..H)|.;..)
44017860:	2c44 a528 92bc a79a a216 2867 29fe 23be     D,(.......g(.).#
44017870:	292b a755 a4bf 21e2 acf3 af79 b089 2b38     +)U....!..y...8+
44017880:	2a02 adc5 a5c5 2bc2 2e05 a819 2adf 2e3c     .*.....+.....*<.
44017890:	2b0f 2eb9 294e a1fd 9f24 a9b8 2a93 1382     .+..N)..$....*..
440178a0:	9515 acf6 2209 2c61 3001 30bf a189 b082     ....."a,.0.0....
440178b0:	2b5c a39b ae76 af56 ae9e 9d08 acad ae9d     \+..v.V.........
440178c0:	a1c6 30ed 2b11 2c13 0456 28e9 2bdd 2898     ...0.+.,V..(.+.(
440178d0:	a268 abd7 a978 283d a1df 281f 2d15 24b6     h...x.=(...(.-.$
440178e0:	2c5b 2ce7 285f a5ab 2036 2987 289b 2a2f     [,.,_(..6 .).(/*
440178f0:	a968 a6d3 25f8 27c6 a7c3 2256 a42b 2984     h....%.'..V"+..)
44017900:	aa8e 285b a115 24f4 a67c 2e6c 243f 2960     ..[(...$|.l.?$`)
44017910:	2afd 29d6 2cd7 2408 2f71 a8b1 a7ac 2c62     .*.).,.$q/....b,
44017920:	2c15 a658 a88a a01b 1c6c a592 ab4c a6c5     .,X.....l...L...
44017930:	a85e a796 295e 2a36 298d 2738 a25d 9c6c     ^...^)6*.)8'].l.
44017940:	a834 2d20 2d0f 2863 2ce2 2951 a33a 2257     4. -.-c(.,Q):.W"
44017950:	a4d5 2916 25f0 2112 aa47 b020 ac66 1c61     ...).%.!G. .f.a.
44017960:	a9f9 246e b037 27b0 23e2 a553 27ad 254e     ..n$7..'.#S..'N%
44017970:	a4b3 22cb 2d1d 28a2 2c6a 9f2d a03f 25fe     ...".-.(j,-.?..%
44017980:	2c36 2a08 a64a a99f a8d2 26d8 288b a361     6,.*J......&.(a.
44017990:	a8c0 9975 2518 2662 120c 9da0 a4d6 0c40     ..u..%b&......@.
440179a0:	a8a2 aa71 1f08 28e3 2837 a675 25f2 a97b     ..q....(7(u..%{.
440179b0:	2515 2826 ab45 221d a4b0 289b aaaf a3db     .%&(E.."...(....
440179c0:	a798 94a6 20b1 0850 2927 2bc7 2c43 970f     ..... P.').+C,..
440179d0:	9bd0 aa5e a42e 2de6 2e69 29bf a3f2 a261     ..^....-i..)..a.
440179e0:	2e52 a18d a4b5 ac0f acdb 296a af9a a668     R.........j)..h.
440179f0:	ad7b a50b 2b27 aa17 adfc 2cc9 207b 29c8     {...'+.....,{ .)
44017a00:	9edb 2983 241c a8b3 a9b7 890d 1e64 22ec     ...).$......d.."
44017a10:	a988 aca5 237d 284a 2e37 a8b1 2549 2904     ....}#J(7...I%.)
44017a20:	2b48 2a5b 2805 29a1 27d1 ac32 a9c4 a06d     H+[*.(.).'2...m.
44017a30:	1ba4 ac29 aabd af4b a87e a046 a121 28e8     ..)...K.~.F.!..(
44017a40:	ab1f b022 2aeb 2d4a 99e9 a831 21d5 2a99     .."..*J-..1..!.*
44017a50:	1556 a5d3 2d22 1aaf 2d14 b006 ab98 2e4f     V..."-...-....O.
44017a60:	2c76 244a a67b 291e a94c ae3b 20bf 2bdb     v,J${..)L.;.. .+
44017a70:	22f3 af0d ad0c 2572 2d3b 2d44 a5f6 2814     ."....r%;-D-...(
44017a80:	292b b091 b08a a740 2d2b 29e1 ae4a ad71     +)....@.+-.)J.q.
44017a90:	9687 2bc7 a415 a8a4 208a a4ff 2ba5 26b5     ...+..... ...+.&
44017aa0:	2ec4 a3ef a5aa 28de 258c aa11 18c1 acc7     .......(.%......
44017ab0:	a743 a9ef a745 ab9c a55f 1c88 a89d a9da     C...E..._.......
44017ac0:	a1ce 2864 a53b 28de 2cab 2bd0 a7c3 12b5     ..d(;..(.,.+....
44017ad0:	2365 297a a17e a71f 9e59 2413 2d12 adb9     e#z)~...Y..$.-..
44017ae0:	ac8a a7d3 a258 28e4 ac95 a11c 9de7 2806     ....X..(.......(
44017af0:	a68b 2590 2d7a 2ab2 9b86 2a6e 2652 aac7     ...%z-.*..n*R&..
44017b00:	a985 2cbd 2ceb 2b15 af1a aa6c 255a 2ac1     ...,.,.+..l.Z%.*
44017b10:	2c59 b02c a6c8 a32e 2bb7 2500 a4fe a69f     Y,,......+.%....
44017b20:	9d5a aa35 a618 2de5 29f7 2812 aa93 27cd     Z.5....-.).(...'
44017b30:	226d 2ddc 2b30 195a ad2e 2b57 24f1 27ea     m".-0+Z...W+.$.'
44017b40:	28c2 aa1a a699 ad24 ae22 28c5 28d2 ab5a     .(....$."..(.(Z.
44017b50:	a348 28db acf8 afb4 a9b7 2642 27f0 a6d5     H..(......B&.'..
44017b60:	a01d a1c1 2cb0 a03c 26ec 244d 2b0a ad2d     .....,<..&M$.+-.
44017b70:	249a 2544 2214 a86d ab46 2e74 2844 a786     .$D%."m.F.t.D(..
44017b80:	ac1f a854 1e90 299a ab59 28f2 2c1f 2916     ..T....)Y..(.,.)
44017b90:	2c5b 2936 aaa3 a0e8 a54c 2f00 2d43 a8c3     [,6)....L../C-..
44017ba0:	aa66 2c23 2c56 2d9a b042 ac60 2827 268e     f.#,V,.-B.`.'(.&
44017bb0:	aebf a720 2092 2484 9ff4 ae02 2b7f 2263     .. .. .$.....+c"
44017bc0:	2d41 9e59 2c06 a418 2bfc ab1c a217 aba5     A-Y..,...+......
44017bd0:	245e 2bdb a684 2365 8f32 2469 2c13 297d     ^$.+..e#2.i$.,})
44017be0:	2d11 2fb9 a4e1 2efe a960 aa51 a8fc 9faf     .-./....`.Q.....
44017bf0:	29b2 998e a890 a8fb 23db a1af 29d3 2bfd     .).......#...).+
44017c00:	2c6e a4b7 ac3b a5b7 2964 24a3 ad19 adcb     n,..;...d).$....
44017c10:	2966 a388 abcc aa27 1bea 2b8a 2b56 21c4     f)....'....+V+.!
44017c20:	2ebb 257c a164 a850 91bd 97f8 292a 2cb3     ..|%d.P.....*).,
44017c30:	2116 28a7 a57f a42f a551 aa1a 2600 27e4     .!.(../.Q....&.'
44017c40:	a952 a348 2811 2015 25e2 af1f 9ca7 2ceb     R.H..(. .%.....,
44017c50:	19b4 2ed1 2924 2c52 2da0 a78b a99d aa1c     ....$)R,.-......
44017c60:	1fbf 2734 229e 292f 2a37 a913 a417 aed7     ..4'."/)7*......
44017c70:	2ad8 a8fa ac06 a47c 2164 2ceb 18e3 a86d     .*....|.d!.,..m.
44017c80:	2c9a 2c30 288f 1e92 a080 2e24 24eb a96f     .,0,.(....$..$o.
44017c90:	2d0b 2940 2aa3 1c9e a762 a4cf 9d1c a647     .-@).*..b.....G.
44017ca0:	aa7d ad9e 2805 2b0e 18df a977 aae4 a52e     }....(.+..w.....
44017cb0:	2c99 abd5 adbc 2946 2d37 2746 a928 2c49     .,....F)7-F'(.I,
44017cc0:	9817 274d ad47 2644 1d36 1a3d 2783 a918     ..M'G.D&6.=..'..
44017cd0:	ab68 a438 2e82 2745 294c a4a5 9fd9 2c1d     h.8...E'L).....,
44017ce0:	2b24 28da 2651 9fc9 282d 2c3d 25dc 28db     $+.(Q&..-(=,.%.(
44017cf0:	2956 a02d 2b83 2582 a45b 264c a803 27d7     V)-..+.%[.L&...'
44017d00:	a842 278d 2d54 2d11 21a0 aa2c a57f 2c4c     B..'T-.-.!,...L,
44017d10:	253d 28f4 9c3f 28e7 2b50 2d9a 2ac9 ac21     =%.(?..(P+.-.*!.
44017d20:	ad5c aad3 1fa0 2ba7 2dc3 2d6e 27ce ab75     \......+.-n-.'u.
44017d30:	a802 2d04 2d5f a99f afa4 a696 a033 ab85     ...-_-......3...
44017d40:	28c1 acb2 2c50 9c24 2481 26cb 2270 1d3e     .(..P,$..$.&p">.
44017d50:	a880 2422 a52b 2d7f 9e20 28f6 219c a993     .."$+..- ..(.!..
44017d60:	2593 25f1 2860 9fdd a53c 2e62 2d6d abcc     .%.%`(..<.b.m-..
44017d70:	a193 a95e 2860 2638 2375 24d1 2c6b 257a     ..^.`(8&u#.$k,z%
44017d80:	a04c ae2f 9919 286b 2533 2eb3 2ee5 ac69     L./...k(3%....i.
44017d90:	a834 21e1 2af7 a89d aa66 2139 285f 2696     4..!.*..f.9!_(.&
44017da0:	ab27 241e 2add 29e1 a02f a5a0 262a 2eaf     '..$.*.)/...*&..
44017db0:	29ec aa85 ae66 aebd 2d2f ab64 ae04 abc0     .)..f.../-d.....
44017dc0:	a4ab 19c9 2068 aa7b 9d76 99d4 2a19 2975     ....h {.v....*u)
44017dd0:	a962 ac24 97a8 2567 2bce a170 a220 a234     b.$...g%.+p. .4.
44017de0:	ac06 a459 2c4c 27d1 2885 2931 a97f 27dd     ..Y.L,.'.(1)...'
44017df0:	21fd ab52 28a8 24f4 20f8 a8a0 a3be 29d5     .!R..(.$. .....)
44017e00:	2d15 2101 a5da 28e0 214f 2218 2db1 a95d     .-.!...(O!.".-].
44017e10:	2833 2c3e 9a4f 9c14 28ab 2aba 246a 27e2     3(>,O....(.*j$.'
44017e20:	2cfb 269a 223e a71b 2c60 2837 2a48 ad38     .,.&>"..`,7(H*8.
44017e30:	a3dc 2675 9b9d 2ae3 a8a1 a85e 2e3b 2073     ..u&...*..^.;.s 
44017e40:	2333 a9bc 2bff 1a41 247a a22b 2609 a95d     3#...+A.z$+..&].
44017e50:	aebf ae9f a87c 259f 2d48 b04b ad7c ac28     ....|..%H-K.|.(.
44017e60:	a79c a6ea ad39 adc6 abdf a826 a526 1ce6     ....9.....&.&...
44017e70:	a839 2356 29b1 2bd1 1f03 2d27 2bc6 294e     9.V#.).+..'-.+N)
44017e80:	a731 adef a427 2c7e 2c31 a909 ae1a a095     1...'.~,1,......
44017e90:	2419 1ed8 a82b 2c05 183c 2c9c 2872 22ae     .$..+..,<..,r(."
44017ea0:	27a0 2b40 22b6 a5eb a298 968f 299c 25e6     .'@+.".......).%
44017eb0:	a482 26cf a80b 2851 27c8 a941 ac4b 2c26     ...&..Q(.'A.K.&,
44017ec0:	9fbf 2371 a294 1809 2872 a066 249a 20cb     ..q#....r(f..$. 
44017ed0:	218e 2e04 2716 a968 2812 26f9 2174 a578     .!...'h..(.&t!x.
44017ee0:	9912 a8c6 a01a ac09 abde 2d2c 3085 a062     ..........,-.0b.
44017ef0:	a9c2 a8e3 2bcb 2c91 256f 9a94 241f 2b09     .....+.,o%...$.+
44017f00:	2859 2421 234a add2 2844 aaa2 2747 2c8b     Y(!$J#..D(..G'.,
44017f10:	aa14 ac2d a794 22f2 ac33 abee a944 237e     ..-...."3...D.~#
44017f20:	2b15 a71c 1d1c 9e8a a2e9 2719 2d90 278e     .+.........'.-.'
44017f30:	29ca a8e7 a5aa a4c4 2626 2672 aa0d a833     .)......&&r&..3.
44017f40:	906d 2c96 2964 a8a2 a494 14ee aa5f a441     m..,d)......_.A.
44017f50:	1ead 2c42 176a 18b9 a6da 29c7 2b03 284d     ..B,j......).+M(
44017f60:	a476 2745 9ce2 a876 2927 24f9 2a68 22b4     v.E'..v.').$h*."
44017f70:	aa75 28bd 287c a397 1d73 2bfe 203c ab27     u..(|(..s..+< '.
44017f80:	acf5 acca 21a2 2c8a 2c24 25e6 a22f 2eb7     .....!.,$,.%/...
44017f90:	1e48 2811 2f71 2546 ad01 ae40 a8d7 2480     H..(q/F%..@....$
44017fa0:	2c1d aab4 ad61 2dd6 30cd abb3 2161 a785     .,..a..-.0..a!..
44017fb0:	a634 a722 2849 a7df a22e aa24 22b4 a227     4.".I(....$.."'.
44017fc0:	a4fb 014d 291a aa09 292a 2460 2d24 2b70     ..M..)..*)`$$-p+
44017fd0:	2040 28aa 2b66 2b20 282b 2887 2a2d 2b48     @ .(f+ ++(.(-*H+
44017fe0:	2776 23e2 226f 9c1c a4f1 2b06 2aa3 254d     v'.#o".....+.*M%
44017ff0:	2b79 a423 201a 2918 2b32 a2a5 2c23 a9f3     y+#.. .)2+..#,..
44018000:	a44f 215e a006 26e6 ac9e a23a accf 22cd     O.^!...&..:...."
44018010:	a765 9f46 2744 2fa5 2d81 2e7c 2bd9 24df     e.F.D'./.-|..+.$
44018020:	2290 28cd 2cd7 1ce8 a830 96af 2e04 299f     .".(.,..0......)
44018030:	2ac8 a957 162c 2ba2 ab17 a7e7 1e1e 2c15     .*W.,..+.......,
44018040:	2a9a 2987 2081 ae6b a99f b095 a0ee a957     .*.). k.......W.
44018050:	aa00 ab58 acf1 2817 a2dc 2b29 2c98 2a85     ..X....(..)+.,.*
44018060:	2c78 2d19 1f03 25b1 295d 2a50 94ad 1d0b     x,.-...%])P*....
44018070:	142e ab52 af59 a598 2bef 2dd7 2ba9 2d2c     ..R.Y....+.-.+,-
44018080:	a9f0 2aa4 ab2d 2cd6 3289 9c5e a903 1c9d     ...*-..,.2^.....
44018090:	2efa 308b 2d3a a5e4 225a 2734 ab86 2d4f     ...0:-..Z"4'..O-
440180a0:	2e40 2804 277b a3b9 288a 29e1 2a23 2ddc     @..({'...(.)#*.-
440180b0:	30bc 2a2e a0e6 20f6 2df9 32c2 9f3a ad69     .0.*... .-.2:.i.
440180c0:	28db 3167 26f0 2b1c a4cd 2f50 2977 a9f0     .(g1.&.+..P/w)..
440180d0:	2558 2f98 30bc 2faf b085 27a2 1407 a56c     X%./.0./...'..l.
440180e0:	1cab 9f5b 1eff a255 2c80 9d13 a83e a7a6     ..[...U..,..>...
440180f0:	15d7 2179 9da5 a100 a8f7 a7bb 2a24 137e     ..y!........$*~.
44018100:	2abb a900 a967 a9d7 a85c 2c85 a5c9 a27d     .*..g...\..,..}.
44018110:	289a 2ac9 28af a1ad 2453 2b22 2a2c 28ea     .(.*.(..S$"+,*.(
44018120:	9b90 a62f 27b2 298d a04b 986b 263d a83c     ../..'.)K.k.=&<.
44018130:	a103 21d9 9d1a 9e6a a093 a97f a9fd a87e     ...!..j.......~.
44018140:	269d 24ca 2b6b 1a7e ac13 2b3e 22ab 2caf     .&.$k+~...>+.".,
44018150:	2cd8 27f4 2e2a acf3 2ba6 a0f3 2a8a 2c43     .,.'*....+...*C,
44018160:	2b45 2d08 aba9 285a 2be2 24c7 2938 9667     E+.-..Z(.+.$8)g.
44018170:	a7b0 28db ae95 ae4c ae54 25fd aa03 a834     ...(..L.T..%..4.
44018180:	2066 ac56 2c23 2c27 2344 2ce2 212b 0b3f     f V.#,',D#.,+!?.
44018190:	2817 2cc0 2cf9 27d0 adae ab9c a995 a92e     .(.,.,.'........
440181a0:	ac4b ac35 a8d3 abe5 1b9d 2bbc 2746 27a3     K.5........+F'.'
440181b0:	25c7 293f 2c69 1e87 aaec ac4e 2c0e 2d7b     .%?)i,....N..,{-
440181c0:	25d6 a92a 2928 2c93 a85c ac57 a7f4 2585     .%*.().,\.W....%
440181d0:	ab40 a89b a8ee 2857 263d 1a49 2e5f 2bad     @.....W(=&I._..+
440181e0:	18fb 9d15 263c 29ef 218c 246d 9f5b 2161     ....<&.).!m$[.a!
440181f0:	a7b4 259f 29cb 154a 28a1 ae0f 28cd 27e1     ...%.)J..(...(.'
44018200:	2b6b 2a5f a1da ac11 a92f a8ca ab26 2cf3     k+_*..../...&..,
44018210:	a327 a657 a448 b0a2 a063 96c0 2964 af97     '.W.H...c...d)..
44018220:	0e56 2db7 2882 2444 a922 2dbf 2a9f 2870     V..-.(D$"..-.*p(
44018230:	2976 ad01 2012 acf5 2b3e 2935 1e19 2288     v)... ..>+5)..."
44018240:	2d46 2d3e a490 a7a3 2c1c 296c 1be7 26a1     F->-.....,l)...&
44018250:	a5de 2bae 2855 a6cb 97c4 ac1c 9e6d 1f36     ...+U(......m.6.
44018260:	aafe a081 21a2 1dc5 aa5c 265c a75e 2b48     .....!..\.\&^.H+
44018270:	a1f5 2630 2a0d 2cf9 9e7f a5d9 ab2d 294a     ..0&.*.,....-.J)
44018280:	9ee2 2c35 ab69 1f05 28b0 a5b7 a885 2c84     ..5,i....(.....,
44018290:	2787 abc7 a671 1e6b 2407 2cfd 1a3a a218     .'..q.k..$.,:...
440182a0:	21fb 1de5 a883 29dd 2c28 01fd ac5b a92e     .!.....)(,..[...
440182b0:	23a3 2cd2 2450 966d a4df aeb4 a516 9519     .#.,P$m.........
440182c0:	af5f 283e afe8 b048 aa37 255a 2d3e 2988     _.>(..H.7.Z%>-.)
440182d0:	2b8a 1dfb a255 aaf2 2c7a 276b 2b23 a721     .+..U...z,k'#+!.
440182e0:	1510 19a9 a8cb 29f0 2c69 1fee ac73 ab67     .......)i,..s.g.
440182f0:	2290 2c1f 1cd1 aa14 247e 2936 a629 aa3c     .".,....~$6)).<.
44018300:	9ee2 a6fb 27c2 ab7d a8c3 2aa2 16e2 a363     .....'}....*..c.
44018310:	29d5 a713 2a77 2c8a a2a3 a6b0 1acb aa6a     .)..w*.,......j.
44018320:	a5b1 2908 2216 a9af ac28 a7fa 11af 22da     ...)."..(......"
44018330:	1a3d 2b21 a07b 2031 2281 a90a 246a 2642     =.!+{.1 ."..j$B&
44018340:	1631 ad10 9903 2ae7 2bbd a5dd a65e 9981     1......*.+..^...
44018350:	a366 289d 2979 28f2 1232 2c09 282a 28b9     f..(y).(2..,*(.(
44018360:	ada4 ab7c 261b 2c1a 2da1 2a6a 211e 29b7     ..|..&.,.-j*.!.)
44018370:	a949 a6a9 281d ad14 2c06 aca6 acf6 aa00     I....(...,......
44018380:	a51e 1fc4 2c57 2480 2d64 25c6 981f 20e0     ....W,.$d-.%... 
44018390:	2bb0 a95a a354 2d53 aadb 1e88 a997 b13b     .+Z.T.S-......;.
440183a0:	23e4 abce a533 abf8 aa17 9f98 28ef 2920     .#..3........( )
440183b0:	ab17 a768 2b59 2726 95b4 aaa1 29d7 abe0     ..h.Y+&'.....)..
440183c0:	a801 abe1 ac9d ad3c a629 1dea a836 a9f4     ......<.)...6...
440183d0:	afc5 281c a89e 2695 ac9e ad77 265a 2de7     ...(...&..w.Z&.-
440183e0:	1ecb ac7c 9af4 2831 25eb abf8 a054 9582     ..|...1(.%..T...
440183f0:	2518 a56b b05e b0b7 2824 a8a6 a837 ab9a     .%k.^...$(..7...
44018400:	26fc a8ea 2604 a98c 27ab a727 2ccb a8d4     .&...&...''..,..
44018410:	a10c a868 2c32 297b a3fb 29a4 aad6 2b84     ..h.2,{)...)...+
44018420:	21d6 a4fa 29da 26ab a1df 28e6 a25b 9aa7     .!...).&...([...
44018430:	239d ab8b aa73 a542 a964 a671 a101 9e76     .#..s.B.d.q...v.
44018440:	a69c 2c16 228b a22e 20c3 28ff 2526 2c40     ...,."... .(&%@,
44018450:	a799 1dca 1989 a43c 23be aae9 27a6 2d63     ......<..#...'c-
44018460:	9c13 24d1 af49 ac0d 2b8f 28ca 29cd a80a     ...$I....+.(.)..
44018470:	a829 2292 ad13 2bac a946 a949 2427 9784     ).."...+F.I.'$..
44018480:	2ac3 1c67 9eec a1fc a92e 9cf2 23a1 aa50     .*g..........#P.
44018490:	8e64 9e61 2831 a4af 2bb2 1aee a879 2462     d.a.1(...+..y.b$
440184a0:	a9f8 2748 abd1 ab9d adb2 25bd 2277 91b2     ..H'.......%w"..
440184b0:	24dd 2707 2886 2937 28ab 2c7d 2b8c a63b     .$.'.(7).(},.+;.
440184c0:	2789 9bac a13a 2817 1508 ac11 a454 2080     .'..:..(....T.. 
440184d0:	a44f a451 a49f 9a09 2936 28ed a590 29e6     O.Q.....6).(...)
440184e0:	28f2 2466 2936 a1db a288 a5bc a500 9dc4     .(f$6)..........
440184f0:	a202 1f74 2230 9d3f aa88 ac2a ae36 27df     ..t.0"?...*.6..'
44018500:	ad6b aa6b a8db a78e 287c 1e7f 2608 a8a1     k.k.....|(...&..
44018510:	21c6 2138 a826 a479 a863 28a2 2c65 1840     .!8!&.y.c..(e,@.
44018520:	9abf ac2f a862 ac4c 2946 280f 2b57 afc5     ../.b.L.F).(W+..
44018530:	879f 1dd9 2bfb 2e50 1d27 a45e a85c 302f     .....+P.'.^.\./0
44018540:	2cd8 2986 2654 a833 a887 a43b aa60 29a6     .,.)T&3...;.`..)
44018550:	23e9 a0b4 ab1f 2ba5 a8f3 2175 259d a569     .#.....+..u!.%i.
44018560:	a848 2a38 a475 218b 9e30 aa54 2c2b a41c     H.8*u..!0.T.+,..
44018570:	2514 a907 20e1 9b98 244a 22d8 99b8 28e7     .%... ..J$."...(
44018580:	297d 2c97 9810 a7e6 9e24 a68e a1a6 aa0f     }).,....$.......
44018590:	9aae a8d9 2b5f a4f7 29ef 28a6 2c2e 2738     ...._+...).(.,8'
440185a0:	213b a8d9 2bd3 2821 1e5b 2844 2a7b a9f3     ;!...+!([.D({*..
440185b0:	265f a4c3 24d9 2e1b a2a3 26a9 a806 9633     _&...$.....&..3.
440185c0:	a87b a2a5 2c19 a273 2c75 2e92 2e3e 3046     {....,s.u,..>.F0
440185d0:	ad21 a9c3 a48f 2b28 9a21 b0d9 afcc 994c     !.....(+!.....L.
440185e0:	228c 249d a6e5 2bd6 3121 2c38 270e 26b2     .".$...+!18,.'.&
440185f0:	a8ef 2627 26c0 22b6 22a9 a6cf 9820 a683     ..'&.&.".".. ...
44018600:	21d6 a0f5 a24a 1cbb a986 2c0a 2cd5 29dc     .!..J......,.,.)
44018610:	2078 2670 2cf6 22f8 2cda a343 2465 a412     x p&.,.".,C.e$..
44018620:	2ad0 267d a907 11cb a97b 29d0 2673 2cd0     .*}&....{..)s&.,
44018630:	1d13 23a3 a7d9 1f95 9d2e 27f9 2bf4 239c     ...#.......'.+.#
44018640:	27bc 20d4 a9cb 28da a65e aca5 aa79 a9da     .'. ...(^...y...
44018650:	a929 0233 a6d5 ad82 a6d2 addd 2b12 28b0     ).3..........+.(
44018660:	274c 28fa 24d0 2ea4 28a9 2016 2155 2ab5     L'.(.$...(. U!.*
44018670:	284f 1de0 aa4e a35c a2dd ad8e aaf4 2a4f     O(..N.\.......O*
44018680:	2851 a960 1991 a887 a28f a400 225a a982     Q(`.........Z"..
44018690:	2cba 28b3 2ad0 1d86 abfc 2591 28ce 21ba     .,.(.*.....%.(.!
440186a0:	2aa5 a572 ad07 2852 2bb2 2b90 28ba 2933     .*r...R(.+.+.(3)
440186b0:	a45c 286c ace7 2bd3 2b62 a615 2d11 2431     \.l(...+b+...-1$
440186c0:	2dc5 2a8a ad0c 2b98 3040 9bf8 1ee4 a875     .-.*...+@0....u.
440186d0:	a923 2abb adda a919 2b17 2a09 a139 28d1     #..*.....+.*9..(
440186e0:	30bd 2df9 2db1 2d2e 2c30 132f 2501 a79d     .0.-.-.-0,/..%..
440186f0:	285c 29da 250b a77a 257e 26bd 1196 af39     \(.).%z.~%.&..9.
44018700:	2973 9b97 29a2 a857 9fb6 a48e a491 2d4c     s)...)W.......L-
44018710:	1aa8 2cc4 2ec7 30b4 a8f6 28cc a80b 2218     ...,...0...(..."
44018720:	2b5b 2852 29fa 24eb 9b04 a569 a26a 2ac5     [+R(.).$..i.j..*
44018730:	2d53 2d5a a22f 246b 9e8d 1cb8 9155 a744     S-Z-/.k$....U.D.
44018740:	9658 ad56 a809 ad60 a99a a99c 2946 288d     X.V...`.....F).(
44018750:	ac72 a09a 9ae2 2829 2849 a6b9 aa72 22e5     r.....)(I(..r.."
44018760:	2a89 1af8 2c2d 2ab6 2cda ae78 a782 2aa4     .*..-,.*.,x....*
44018770:	9ac6 acaf aa00 a9dd 1ac2 a054 ae3c ac09     ..........T.<...
44018780:	2ae6 ace5 a1bd 1fe1 28ce 2ea2 a812 a74e     .*.......(....N.
44018790:	a11d 2d11 2b46 aae5 9821 24f6 a69b 2629     ...-F+..!..$..)&
440187a0:	2723 2b3e 28d4 ab78 2e56 308d 29d6 ad73     #'>+.(x.V..0.)s.
440187b0:	24ec 9c3b a5e7 2ae1 a639 ae1e 24c0 2782     .$;....*9....$.'
440187c0:	2839 2cdb a90f 2614 2b0e 20bd 2d99 2c97     9(.,...&.+. .-.,
440187d0:	268c 2cf8 2893 2bed a76c a956 ad92 a8a7     .&.,.(.+l.V.....
440187e0:	ae3d 2870 1e3a 25b3 260b 2a56 2313 a8b5     =.p(:..%.&V*.#..
440187f0:	997a a944 2be0 246d a21e a664 2a3d 2e5d     z.D..+m$..d.=*].
44018800:	a0e5 ab13 a6b6 28c5 a7c1 9f88 15eb ad70     .......(......p.
44018810:	9baf 106a a42a a127 ad11 ac34 a886 2ae3     ..j.*.'...4....*
44018820:	298f ad8c 26df 2b6c 2c63 283e a8c7 9bb3     .)...&l+c,>(....
44018830:	2989 28c6 a8ec 2445 a4ac 2925 a110 2edd     .).(..E$..%)....
44018840:	29ab 27ac a565 a813 258b 3017 2404 2857     .).'e....%.0.$W(
44018850:	2a1c afdf aded ac2b a7e0 a401 b125 a8ae     .*....+.....%...
44018860:	2b39 2b4b a9ef ab41 28f0 2fac 28c5 2429     9+K+..A..(./.()$
44018870:	2356 1a66 a091 abfe a4c9 29c9 a50e 224e     V#f........)..N"
44018880:	2572 2c6d 2a37 290b 21ed 9d9c 2a1e 2b9d     r%m,7*.).!...*.+
44018890:	1ee6 296f 229b 9dda 28d0 ad85 a8af a376     ..o)."...(....v.
440188a0:	af18 a7c5 ab1b 289c aa2f 1e12 2ba5 a672     .......(/....+r.
440188b0:	2464 2919 256f a6e2 a639 a417 2055 2920     d$.)o%..9...U  )
440188c0:	2c91 2bb0 aac0 a9d0 9988 2da7 abe4 abc6     .,.+.......-....
440188d0:	2a0a a8bc afb2 ae77 ab3a 27ea 2917 a8a3     .*....w.:..'.)..
440188e0:	ad2a 280a a259 a29e 255e 2c2c 24cc 2945     *..(Y...^%,,.$E)
440188f0:	a632 2e53 2848 ac1f aa80 1d69 9a69 a7cb     2.S.H(....i.i...
44018900:	b2aa ac5c 2ad0 b0a2 ae47 ad13 2502 a698     ..\..*..G....%..
44018910:	a49e 249c a7a1 2c4c 06af 2cbb a9af a873     ...$..L,...,..s.
44018920:	a678 292a 2999 ac7f a54d a081 0c58 aaa9     x.*).)..M...X...
44018930:	20a9 2cb2 1982 ae39 af33 acc1 a5d4 aeb4     . .,..9.3.......
44018940:	ac3f 282c 25ca 2450 2a07 a896 9e49 ab6a     ?.,(.%P$.*..I.j.
44018950:	8a7f a5f6 8b8c a1d8 2282 274d a396 a5a9     ........."M'....
44018960:	a82d 284d a039 a97b 212f a942 a1e5 a433     -.M(9.{./!B...3.
44018970:	251a 1110 ac0b 20ea a8a2 2840 8d64 a972     .%..... ..@(d.r.
44018980:	1c36 a89a 2625 a7e1 a0f4 aa81 1f5c 1f0c     6...%&......\...
44018990:	a1c3 a70b a84c 99cf 1497 a108 a744 ac20     ....L.......D. .
440189a0:	ac3d 2887 a3e4 a922 21b5 a854 a33b a974     =..(.."..!T.;.t.
440189b0:	ac02 2738 a267 1ed0 ab80 9c98 2978 a9bc     ..8'g.......x)..
440189c0:	aaf4 2077 a675 a685 aacc 2211 21fb a7d3     ..w u......".!..
440189d0:	a9ec a3f6 a8b0 2016 aadc a64b a899 a8bb     ....... ..K.....
440189e0:	28e8 a034 27fd 98a2 ab67 2b70 284f aabb     .(4..'..g.p+O(..
440189f0:	a7d4 a4c1 2601 a767 2778 271f 198c 2825     .....&g.x'.'..%(
44018a00:	9c1d 1bc2 a81c aa2a 2638 a690 1749 284e     ......*.8&..I.N(
44018a10:	a943 27c0 8c98 a469 a4db 20b8 a727 a8b7     C..'..i.... '...
44018a20:	1815 24e4 a6d7 26bd 9455 9685 2bee a6b7     ...$...&U....+..
44018a30:	2527 aaa5 a455 292c aa17 177f 1788 a503     '%..U.,)........
44018a40:	241c 2522 26dc 1264 a1e6 a731 24f6 a75e     .$"%.&d...1..$^.
44018a50:	ab54 240a a983 1d76 a432 a90c 96a6 1baf     T..$..v.2.......
44018a60:	a419 9914 a470 2628 aad8 1254 ac0c 26d9     ....p.(&..T....&
44018a70:	9ae1 9e97 a7b5 a9bf a8ae 27b1 a757 a54b     ...........'W.K.
44018a80:	2b61 a1eb aa4e aa12 a48b 2495 a466 2531     a+..N......$f.1%
44018a90:	a619 21c8 1f07 204e a937 a8bf a9a6 283a     ...!..N 7.....:(
44018aa0:	23dc 25c6 289e a4d3 aaaf 20de 96d2 a9cd     .#.%.(..... ....
44018ab0:	2693 2b69 a7f9 a479 2017 a807 9881 a913     .&i+..y.. ......
44018ac0:	2b38 9fdf 2376 ab96 a8de 25ad 2931 1cc9     8+..v#.....%1)..
44018ad0:	99c5 24c3 a8c7 2406 9e3e a71a a7db 1b60     ...$...$>.....`.
44018ae0:	a439 a9a6 a896 a89e aa75 28da 9e51 aafb     9.......u..(Q...
44018af0:	a8a5 28ef aa3c a6b6 1bc0 a88b a74a a64f     ...(<.......J.O.
44018b00:	1ede 2139 1e50 aa17 2432 18ae a73f 25ae     ..9!P...2$..?..%
44018b10:	240a 24d4 2763 a90a 2177 a47a 1cbf 1c9f     .$.$c'..w!z.....
44018b20:	2557 24fe 2826 a80a a040 a1da 2628 26d5     W%.$&(..@...(&.&
44018b30:	a666 a8b5 24eb 27d4 2040 271c aa5f 1eb4     f....$.'@ .'_...
44018b40:	a684 264a 22df a67f a8c3 a8c7 a312 a9e7     ..J&."..........
44018b50:	2b9c 2b85 abde 2052 1eaf 2163 1c0b ab03     .+.+..R ..c!....
44018b60:	282a a912 ac08 aa3a a4ae a452 2a03 26b4     *(....:...R..*.&
44018b70:	11a2 a22a a4ef 1f09 a81c 1fae 260f abe9     ..*..........&..
44018b80:	a5c8 a99e 24b1 25e1 9c9c a742 2b48 2370     .....$.%..B.H+p#
44018b90:	2023 9442 a92f 1a16 2806 a5fe a308 2b41     # B./....(....A+
44018ba0:	a856 2168 a823 a0c7 27e8 a228 a6d5 a705     V.h!#....'(.....
44018bb0:	a7b6 abc0 ac41 24f4 a848 ab3a 25bf 9714     ....A..$H.:..%..
44018bc0:	25c1 a6ae 2833 a654 2279 a848 ab4b a90d     .%..3(T.y"H.K...
44018bd0:	a70f a49b 2273 221c 1e06 a666 a84d a994     ....s"."..f.M...
44018be0:	a63b 9b3a a6c6 2450 2885 a907 20dc a43d     ;.:...P$.(... =.
44018bf0:	2879 263e 9125 a799 a9e0 aa45 289d a120     y(>&%.....E..( .
44018c00:	27aa 1f08 2898 21be ab31 a933 298e a004     .'...(.!1.3..)..
44018c10:	a3c4 2588 aa36 a4fa a427 a906 1e3a a7d4     ...%6...'...:...
44018c20:	a8ef 1cc8 a672 250d 1a88 ac22 ab0a 9f33     ....r..%.."...3.
44018c30:	26fe 9c95 aaba 2878 26df aada a790 1f85     .&....x(.&......
44018c40:	a35d 28f0 a9ea a97e a948 a571 2756 a486     ]..(..~.H.q.V'..
44018c50:	2554 a871 2841 a92a a7be 2015 2609 a925     T%q.A(*.... .&%.
44018c60:	a970 a7cf 2b47 28fa 2d7b a609 a9e8 2021     p...G+.({-....! 
44018c70:	26af a407 aa2a a103 225d a5e3 ac51 a149     .&..*...]"..Q.I.
44018c80:	2858 24f9 2b1b a3f9 2e15 2d88 2ab2 2805     X(.$.+.....-.*.(
44018c90:	1f5b af41 a59b 27d4 2c37 30ea a824 aa4b     [.A....'7,.0$.K.
44018ca0:	a783 2de0 24f9 a8f6 a684 a338 aaa5 abdf     ...-.$....8.....
44018cb0:	ab36 a72a 9e24 aa1b a810 2abb 2815 223f     6.*.$......*.(?"
44018cc0:	a8b3 2bdc 3211 2c39 acda ad8e afc2 2fbb     ...+.29,......./
44018cd0:	1b01 a37d 9fda 296f 2973 9fd2 a380 29c1     ..}...o)s).....)
44018ce0:	2ea9 28b5 2d04 26fd 2d5d 2655 157a a422     ...(.-.&]-U&z.".
44018cf0:	a089 a5b1 2c30 af67 acba aeb5 142b 1d8d     ....0,g.....+...
44018d00:	aef9 ad8d a152 2b19 2fbe 23c0 22e4 29b1     ....R..+./.#.".)
44018d10:	219a ac7c 2d6a 2a93 a58b a9bb aaed 2c6b     .!|.j-.*......k,
44018d20:	23b1 aced ae74 a810 aa45 adfd aaec 2792     .#..t...E......'
44018d30:	2c0a b002 a974 2d06 306d 3057 ac80 1c01     .,..t..-m0W0....
44018d40:	ac31 a8d3 214e 22cc 2c70 ad5f ad68 acd6     1...N!."p,_.h...
44018d50:	2467 a361 ac62 b068 2915 a2b8 2d7d 2e64     g$a.b.h..)..}-d.
44018d60:	3021 1c71 a761 2468 9ae3 a10e ae54 ad19     !0q.a.h$....T...
44018d70:	abf8 abf1 ac81 a497 ab70 ae0f 15e6 2634     ........p.....4&
44018d80:	2671 1f7b 9262 a041 2514 2e02 9667 aa8d     q&{.b.A..%..g...
44018d90:	24f0 28e3 27af ade6 a0e4 27e5 2c03 2260     .$.(.'.....'.,`"
44018da0:	aa76 aba3 2cb1 28cd a499 2f1f a3e5 1bc5     v....,.(.../....
44018db0:	a727 28aa 27cb a256 a828 2c3b 29a3 a4a1     '..(.'V.(.;,.)..
44018dc0:	a5f2 9c74 2820 2e9f b043 af8e 2850 2f9b     ..t. (..C...P(./
44018dd0:	2f78 b0fc add4 2984 2640 a98c 1855 2028     x/.....)@&..U.( 
44018de0:	18f3 a2de ad4b 2c8f 2407 ac3d a23b 27a1     ....K..,.$=.;..'
44018df0:	3026 302d 29cc 2c1c ae6f 2f8b 284b 0f14     &0-0.).,o../K(..
44018e00:	a919 a7a4 aa0c a800 ab3b ad8b 1e70 ac06     ........;...p...
44018e10:	11b2 2997 2646 2c9b 24da a016 2baa 9f2b     ...)F&.,.$...++.
44018e20:	26e5 28a3 2c29 a175 9bc3 a4bc 2a7a 9b53     .&.(),u.....z*S.
44018e30:	247a 2c17 9d3e 2adf a1d1 254c 28e6 2937     z$.,>..*..L%.(7)
44018e40:	2935 2a14 93a9 ab99 9f18 20a7 279d 25f2     5).*....... .'.%
44018e50:	26cf 9df5 a997 9a33 a849 2e9d 2dbf b161     .&....3.I....-a.
44018e60:	ad79 2cb6 2cb6 3143 ac76 ac0b 15da a18d     y..,.,C1v.......
44018e70:	a8ac a354 226d 2700 ad01 abca 2e71 9e4e     ..T.m".'....q.N.
44018e80:	a3bd 22f0 a42f a6ef 2bdc 9c49 b105 b3a1     ..."/....+I.....
44018e90:	2ba0 2b20 270b 27ea ab93 2768 30d2 2f34     .+ +.'.'..h'.04/
44018ea0:	2fde 2b19 2bd5 2e69 1c6f a90d 2f76 a75f     ./.+.+i.o...v/_.
44018eb0:	1c33 1cf2 a505 2a8d 2549 204e 28ff 2971     3......*I%N .(q)
44018ec0:	2834 a8aa 08f0 a46a 2147 2916 ae82 a3ae     4(....j.G!.)....
44018ed0:	21c2 a802 a31c 2040 21d5 26dd 2b2c ab12     .!....@ .!.&,+..
44018ee0:	2a9b 26d1 2b71 a543 27ae a67d a011 2620     .*.&q+C..'}... &
44018ef0:	28ed 2985 a835 2a2a 98b1 a69d ac79 ac2a     .(.)5.**....y.*.
44018f00:	aef2 aa00 a200 2605 aaca ae36 20d8 2862     .......&..6.. b(
44018f10:	a582 2c45 2d42 2e13 2432 2993 9f3d 2bcd     ..E,B-..2$.)=..+
44018f20:	268f 848f 2aef 248f a977 9a09 acb1 a861     .&...*.$w.....a.
44018f30:	2c06 b050 ab05 22d5 a6b9 26da a195 26ec     .,P...."...&...&
44018f40:	2f16 2c58 285d 2e5a a12d 2c45 241a 2960     ./X,](Z.-.E,.$`)
44018f50:	923b 2a51 2c4a ab7f aacd a360 9e64 a9b8     ;.Q*J,....`.d...
44018f60:	a14f add2 a72c 25a5 a619 a709 a68b 2406     O...,..%.......$
44018f70:	200b 9e1a a72e 29d8 233f 9821 a37c 250b     . .....)?#!.|..%
44018f80:	2027 a829 ae0e a822 1cab a540 28c5 288d     ' )..."...@..(.(
44018f90:	21ce ab89 2729 17d0 2736 221c 9cc7 a2c3     .!..)'..6'."....
44018fa0:	2cb4 2b86 2cb2 9a2b a358 1d95 2844 29de     .,.+.,+.X...D(.)
44018fb0:	2673 2e58 24c3 a2a1 add0 ae81 28a1 2373     s&X..$.......(s#
44018fc0:	a688 ae52 b069 a22c a8c3 2685 aaf9 2428     ..R.i.,....&..($
44018fd0:	1f71 17d2 2be1 a527 2dc7 2d30 2b8e a93e     q....+'..-0-.+>.
44018fe0:	a56b aa09 acea 2e4d 2d86 2eda 3099 ad1f     k.....M..-...0..
44018ff0:	ad90 9975 2935 2c38 a717 279f 14cd 9b88     ..u.5)8,...'....
44019000:	a9ba 233c 2d4e 2d5d 9d76 2d85 2562 2552     ..<#N-]-v..-b%R%
44019010:	24df a724 2b81 2786 276b 2ea1 20a4 2779     .$$..+.'k'... y'
44019020:	a767 9b54 2ceb a983 a5b2 2864 2542 28ab     g.T..,....d(B%.(
44019030:	acde a8e3 9c33 2ea5 a65f a4f7 a4a9 a4cc     ....3..._.......
44019040:	aed2 abe9 aa0d a141 25b8 2c9b 3004 2ed6     ......A..%.,.0..
44019050:	2907 a6f4 9a80 2539 a8dd b092 2577 2aac     .)....9%....w%.*
44019060:	29a6 ae4e aeda 1875 2c69 985a a7d5 2920     .)N...u.i,Z... )
44019070:	2a37 a922 b110 b16c 2d6b 9e4d aa50 aca5     7*"...l.k-M.P...
44019080:	b137 a76f 9c94 2811 ab0b a4c3 2db3 285b     7.o....(.....-[(
44019090:	963b a294 2c22 3096 a008 2693 a90c 2778     ;...",.0...&..x'
440190a0:	a29a 2c63 290e 2ce5 2877 a17f a70f 9d0f     ..c,.).,w(......
440190b0:	2c22 a8c8 aef3 2520 9eea 2574 ad6e 234f     ",.... %..t%n.O#
440190c0:	2444 1d64 a7c4 9c13 9dc8 284e 2c3b 2c34     D$d.......N(;,4,
440190d0:	9972 2d50 2a64 2b9f 244f 2c22 a675 306b     r.P-d*.+O$",u.k0
440190e0:	2e75 2a1e 2889 a487 a4a1 23a2 9d88 adf6     u..*.(.....#....
440190f0:	accd 1b8e a9d7 a5d1 a85b aa95 a53f 2509     ........[...?..%
44019100:	a84b a712 2986 9af7 25c9 a8a2 2740 a62f     K....)...%..@'/.
44019110:	a048 ae62 ac28 9965 2d80 ac32 a9e6 a85a     H.b.(.e..-2...Z.
44019120:	ac2f 2bf3 a811 ac54 a8c8 258f 1e00 2610     /..+..T....%...&
44019130:	aa21 282b 2cb2 2efc 2dd8 2c86 2c81 282f     !.+(.,...-.,.,/(
44019140:	2d97 a642 a99e 2051 9fb1 1b14 ac32 254c     .-B...Q ....2.L%
44019150:	a7a7 2ac1 a940 28c8 21ca 26b8 2823 a928     ...*@..(.!.&#((.
44019160:	a6df 29c1 1d62 a446 a243 23a7 a52d 1e3d     ...)b.F.C..#-.=.
44019170:	a891 2b46 2c8f 2ac2 259f 9bdd aa04 a310     ..F+.,.*.%......
44019180:	187d 1edd af11 b072 a673 2a03 8c3c aa45     }.....r.s..*<.E.
44019190:	ac6d 2029 2b51 a4ec a3ba 2b56 2c91 1a79     m.) Q+....V+.,y.
440191a0:	22dc 99de 294f a363 ad06 254b 2e44 3049     ."..O)c...K%D.I0
440191b0:	a801 ac09 aa60 3392 311a 2bfa 23ab 2e20     ....`..3.1.+.# .
440191c0:	268f ad57 2a35 2664 2ab6 25b4 a2f8 2c02     .&W.5*d&.*.%...,
440191d0:	2537 ab2e a5f3 1a32 20ad a25b 27e6 2189     7%....2.. [..'.!
440191e0:	a639 9c5c 2573 2bbb 1852 a17d a141 9fbd     9.\.s%.+R.}.A...
440191f0:	1a79 a2a1 29bb 2894 2a31 2d19 2105 a58f     y....).(1*.-.!..
44019200:	a6a2 2c32 2acf 9afb 2252 a305 2b70 a5f3     ..2,.*..R"..p+..
44019210:	aa41 2937 2642 27f7 91e6 25f7 a39e 2c3e     A.7)B&.'...%..>,
44019220:	236d 2ae4 2e22 2828 a07f 1098 a277 98b8     m#.*".((....w...
44019230:	29c9 abb1 2942 290e 2904 a8b3 a665 a847     .)..B).).)..e.G.
44019240:	28e6 a496 ac8f 2e65 2c15 2de1 2c61 21fa     .(....e..,.-a,.!
44019250:	2c73 18a6 1b4e 2d40 226f 209e 9f7e 232c     s,..N.@-o". ~.,#
44019260:	2cdd a525 a9a7 9f0f 2d95 ab9f ac95 2c09     .,%......-.....,
44019270:	a664 a419 a6f0 a764 26e8 2802 a631 9d65     d.....d..&.(1.e.
44019280:	a318 29f3 2b37 ac20 2764 2bf9 2a59 2cb3     ...)7+ .d'.+Y*.,
44019290:	1adb 2bac 2bfe 274d 2e8b 2589 a716 2ce6     ...+.+M'...%...,
440192a0:	a83e 1bd9 aa35 a781 a445 a81b 9b13 1844     >...5...E.....D.
440192b0:	ab7d 954a 2552 a7a6 a3d1 272d 9e21 9e70     }.J.R%....-'!.p.
440192c0:	9dd5 185c a9a1 a870 9c9e 9974 a9f2 aa39     ..\...p...t...9.
440192d0:	2438 9f06 221c 26d1 26f5 a824 288f 284f     8$...".&.&$..(O(
440192e0:	a359 9dc0 a551 2516 2737 2761 9e56 2875     Y...Q..%7'a'V.u(
440192f0:	2424 a25f a9da aac2 9cb4 ab3c 2208 9534     $$_.......<.."4.
44019300:	a8cd 2534 1b81 ab03 2839 1751 aab1 2425     ..4%....9(Q...%$
44019310:	1f53 a922 a87a aa70 1a49 aa64 a06a a61f     S.".z.p.I.d.j...
44019320:	245f a1a0 a45c 09b6 9c11 2012 a7b5 a595     _$..\...... ....
44019330:	ab52 a3bb 1ef9 a9eb aab6 24f8 9c23 a326     R..........$#.&.
44019340:	27aa aa03 264f 9578 8c6f 9bf0 224a 287d     .'..O&x.o...J"}(
44019350:	283e 26b4 2437 a88e 2690 1f1e abb2 a762     >(.&7$...&....b.
44019360:	25dc 28a1 9cc2 a101 a766 1f4c 9c91 a4aa     .%.(....f.L.....
44019370:	a884 25f9 a85c a88f 28ff 9c5b 259c a9db     ...%\....([..%..
44019380:	2859 a57d a48e 25ea 23a7 a943 1ddf aa20     Y(}....%.#C... .
44019390:	a8b0 a750 a4c7 146a a8ca a084 a6cc 2712     ..P...j........'
440193a0:	a971 a81e a800 a897 a74a ab73 261b aa86     q.......J.s..&..
440193b0:	a9c1 20b1 a888 ab27 a889 ab6b 271b 2014     ... ..'...k..'. 
440193c0:	a85e 2523 2090 aa48 2893 ab46 a78c 210f     ^.#%. H..(F....!
440193d0:	aa7f a3ac 2832 a5bf 285f a990 9801 2558     ....2(.._(....X%
440193e0:	161c aa9c 2218 a5c8 9772 aad0 a38e a9f1     ....."..r.......
440193f0:	276d a772 29be aa0d ab59 275c 9ef4 a99a     m'r..)..Y.\'....
44019400:	25fb 28d2 a937 a128 aaa5 2626 a6af a9ee     .%.(7.(...&&....
44019410:	9afd a934 9d5d a78a a37a 96dd a2a8 25f7     ..4.]...z......%
44019420:	a891 19e2 a551 9d8a a5f3 21c6 ab68 28cc     ....Q......!h..(
44019430:	2678 2823 2422 a474 a690 aa2a ab70 2924     x&#("$t...*.p.$)
44019440:	1a01 a1db ab71 a3e8 2426 aa86 27aa 267d     ....q...&$...'}&
44019450:	a521 aa7c 99fa ab73 a5d3 a8ea 1caa ab89     !.|...s.........
44019460:	aaee 9e85 a7e2 9f90 abad 9e81 a8ae a895     ................
44019470:	a5b6 283f a49f a6c4 2899 a4b2 2649 2698     ..?(.....(..I&.&
44019480:	a400 a54c ab1b a4ad abbd 1356 95b4 2669     ..L.......V...i&
44019490:	a908 a9cf a584 a501 1a77 9ed8 a717 0d2d     ........w.....-.
440194a0:	9c0e 28e9 a85d aa67 a9ec a915 a876 a943     ...(].g.....v.C.
440194b0:	2154 a8f8 a92d 2749 24dc aab3 a846 a742     T!..-.I'.$..F.B.
440194c0:	ab18 a53b a8dd aa89 a701 a57e a9c3 1e4a     ..;.......~...J.
440194d0:	9a9d a833 283c 2853 103b 21ff 28e8 a9c5     ..3.<(S(;..!.(..
440194e0:	1b06 28b7 1a09 26c3 1da5 1c28 2534 a891     ...(...&..(.4%..
440194f0:	a762 2440 2787 1949 28ff a42b 282d aa0a     b.@$.'I..(+.-(..
44019500:	a8b2 a2d2 226b a983 26b3 a1bb 2325 9e26     ....k"...&..%#&.
44019510:	a651 1032 abc4 a625 ab8d a8e6 a614 a809     Q.2...%.........
44019520:	a7eb a403 269f a5f9 95b4 a9c7 24f9 a43a     .....&.......$:.
44019530:	25bb a0fa a421 a5b7 28dc a9e6 ab79 a86f     .%..!....(..y.o.
44019540:	a55e aa82 a909 a9ad 269a aa9a a77f a558     ^........&....X.
44019550:	1eb6 2384 a47e a286 a1ce a45e a648 a05d     ...#~.....^.H.].
44019560:	aa1e 9b02 ab8b 2570 a45b a4b4 a8b9 27a3     ......p%[......'
44019570:	28e9 2634 a9c5 2429 2899 aad5 a68f aadc     .(4&..)$.(......
44019580:	a68b 246b 2a22 a641 a47b a947 aa84 a418     ..k$"*A.{.G.....
44019590:	27a0 aac1 1854 9dc0 ab8a 21fe 26f7 2876     .'..T......!.&v(
440195a0:	a9dc 1e7b 2452 956e 21e7 29dd 26da 1c63     ..{.R$n..!.).&c.
440195b0:	2095 a1e4 2766 a92c 288d 12b9 a0b7 1c43     . ..f',..(....C.
440195c0:	2cf5 23e1 2c4b 2d6f 2969 a7b8 2b68 2c54     .,.#K,o-i)..h+T,
440195d0:	2c35 2cc7 245d 2e5c 287e a399 a712 a503     5,.,]$\.~(......
440195e0:	a042 a4dc 2bf5 26b1 1bc5 a0fc 2661 290c     B....+.&....a&.)
440195f0:	22aa a777 a90f a724 2b3f 2c1d 237d 25c5     ."w...$.?+.,}#.%
44019600:	2ed3 2c67 1cdb 9f22 a669 9f98 27d9 a44e     ..g,..".i....'N.
44019610:	a8c0 a815 a646 26e1 ad56 2ab9 28c1 252a     ....F..&V..*.(*%
44019620:	289b 2abd 2d0a ad40 ad31 aa7f 9e3e ab55     .(.*.-@.1...>.U.
44019630:	a844 ac17 ae5a 2847 253a adc1 aa1c 289b     D...Z.G(:%.....(
44019640:	2f10 a48f 2203 2cff 2ac9 2860 a410 2722     ./...".,.*`(.."'
44019650:	25e3 0c2d ae63 a985 1c57 a98d 9451 a0ba     .%-.c...W...Q...
44019660:	9ac3 ab11 a65a 26a2 333d a5a2 258a 2ce1     ....Z..&=3...%.,
44019670:	a950 2a15 25aa 3036 2adf aa13 a8f5 3032     P..*.%60.*....20
44019680:	2c5d 2bc5 aa7d a5bc a136 a3b9 afea ad72     ],.+}...6.....r.
44019690:	2bca 9cd6 add7 25a0 2a91 33db 2089 a754     .+.....%.*.3. T.
440196a0:	a1b4 28fb a70a 1f0e 2cae a375 acb1 b0af     ...(.....,u.....
440196b0:	2e23 2a61 2dc9 1c0a 9fe6 9706 1e73 2d18     #.a*.-......s..-
440196c0:	2d2a 2162 2bd8 2e36 2db3 2247 aec1 2666     *-b!.+6..-G"..f&
440196d0:	9167 28f7 a9fe a117 24fe a491 295d a3ad     g..(.....$..])..
440196e0:	29f2 2601 a7e6 9c4c 2310 a5e6 a332 2018     .).&..L..#..2.. 
440196f0:	a8d1 1f11 2ce7 1d73 2b0d a45b 299a a593     .....,s..+[..)..
44019700:	aa94 a800 2e84 29d0 2a38 9ea0 2dff 2225     .......)8*...-%"
44019710:	9864 a776 2cc7 1d46 25d7 a7f3 a521 9f2d     d.v..,F..%..!.-.
44019720:	aeac ac67 a22b 2c11 a9bd ac11 a685 1219     ..g.+..,........
44019730:	2df0 a8ae ab03 a5b6 2a30 2257 2831 9d95     .-......0*W"1(..
44019740:	2c84 99d3 ad2c 2c67 2e04 2a2d a6a8 288d     .,..,.g,..-*...(
44019750:	980e 2843 a576 aca8 aad7 29d1 29fc ab68     ..C(v......).)h.
44019760:	ac45 a932 263a 28cd aa64 24c2 29f8 a771     E.2.:&.(d..$.)q.
44019770:	2a91 2c11 29e5 2b84 2259 9ead 204a 21f7     .*.,.).+Y"..J .!
44019780:	9cbc 2491 2d8c 20ea ac41 1e17 a6ac 2897     ...$.-. A......(
44019790:	a8f3 1f74 2e0a 206c a969 2cd4 2eb7 25b4     ..t...l i..,...%
440197a0:	1616 00f8 22ef a41a 9a79 ac82 aa41 24fc     ....."..y...A..$
440197b0:	259a a05c ad74 a1dd aad4 1835 a456 a93a     .%\.t.....5.V.:.
440197c0:	a74c 1879 2f62 31af a15a a32e 2d6a 1f1f     L.y.b/.1Z...j-..
440197d0:	2991 a433 2b2f 1c5e a97e abe1 2adf 2ecf     .)3./+^.~....*..
440197e0:	2ce3 9f13 0c40 281c 2e0f 2e0d b02c afdc     .,..@..(....,...
440197f0:	18e6 a774 ab7b afd7 af28 2403 a34a 29eb     ..t.{...(..$J..)
44019800:	2f97 2fdf 2d5b 2e5e a7bd 220f 1b34 9862     ././[-^...."4.b.
44019810:	23b9 abea ac73 ad11 2b16 2077 25d1 2bfa     .#..s....+w .%.+
44019820:	2360 a11d 2a00 280b 2c60 2378 9204 29a1     `#...*.(`,x#...)
44019830:	a9e9 2487 2c60 a9d7 2696 2940 26d0 29f5     ...$`,...&@).&.)
44019840:	980c 2251 a40f a6cb 2190 9c6e a6fe 2a6d     ..Q".....!n...m*
44019850:	2bd8 223e 200d 2de1 2576 ab15 20b5 a235     .+>". .-v%... 5.
44019860:	2964 29db aa19 2a86 aab0 a966 ac2e 2473     d).)...*..f...s$
44019870:	2af0 a43f 9e20 a4ee a959 221c 2dbb 2871     .*?. ...Y..".-q(
44019880:	2404 2147 2d08 22e6 2948 269c 281f ac4e     .$G!.-."H).&.(N.
44019890:	2572 2cf8 a48f 95ae 229b af51 acf3 acfc     r%.,....."Q.....
440198a0:	a5d1 262c ae2d af54 ad3c 25e0 2cf3 29cc     ..,&-.T.<..%.,.)
440198b0:	2b4c 2dba 29fd ac08 23ca 9ecf 9efb a9d5     L+.-.)...#......
440198c0:	aaf0 24f4 28be 22ed 1f5a 2b17 1f8b 2314     ...$.(."Z..+...#
440198d0:	2d05 287d 2b3c aae5 184c a3f3 22fc 9f95     .-}(<+..L...."..
440198e0:	24a9 2a69 2910 a300 a6e0 2c55 2162 295c     .$i*.)....U,b!\)
440198f0:	2b68 25be 2404 9e20 a4cf 269b 26b6 9ffc     h+.%.$ ....&.&..
44019900:	a160 aa9a 278a 2703 9b20 a66b a948 16a0     `....'.' .k.H...
44019910:	9c52 2679 9eb7 a475 1e98 2dcf 2796 aacb     R.y&..u....-.'..
44019920:	aa6a 29e5 2b15 9ee8 aa45 a42f 954f a61d     j..).+..E./.O...
44019930:	aa35 0ea5 a8a8 a0fa a383 a4ab 27ea 1cc1     5............'..
44019940:	a117 26de 2dc5 28b8 ad6d ac28 244f 28ab     ...&.-.(m.(.O$.(
44019950:	287d 9e11 a9d3 2c20 2d7c 2b61 24c3 2756     }(.... ,|-a+.$V'
44019960:	a5d6 28b5 a86b a806 223c 2db6 2bb0 2d15     ...(k...<".-.+.-
44019970:	2c11 2bf4 aa2d a968 aad8 aaf9 2cbb 2d7e     .,.+-.h......,~-
44019980:	ac13 aa3b 9b1e 2b1c 2eca aa72 a977 29ed     ..;....+..r.w..)
44019990:	2c7c 2c78 aaae a224 20d8 2c89 20db 2d4d     |,x,..$.. .,. M-
440199a0:	2d0d 2b2f 2841 aa15 a636 af1d 9ed1 a073     .-/+A(..6.....s.
440199b0:	2d2b ac4f 2501 2ba8 2b37 2ca4 a25d ac29     +-O..%.+7+.,].).
440199c0:	2137 2d6e 2465 a4a2 a18a 29b3 2162 aea4     7!n-e$.....)b!..
440199d0:	2739 286a 2f9f 2538 ae77 2dc2 2d71 249d     9'j(./8%w..-q-.$
440199e0:	25b3 945f 2d33 2aff 9e73 28b7 27e5 29d0     .%_.3-.*s..(.'.)
440199f0:	29eb 2b31 2be3 1a9b aaad 2b6a 227d a6f4     .)1+.+....j+}"..
44019a00:	2d10 ac89 ad1d 9706 abfb 2747 a986 ab7d     .-........G'..}.
44019a10:	a456 257c 18d4 a3e4 a6f1 a897 2c59 a0ba     V.|%........Y,..
44019a20:	282f ab93 a34c 2c1f a9f5 a24c ad37 2a62     /(..L..,..L.7.b*
44019a30:	2b0f 21b6 2ca3 25eb a886 ab2c aa4f a036     .+.!.,.%..,.O.6.
44019a40:	ac67 ae50 a9cc a80a 1c48 a4d8 296b 2036     g.P.....H...k)6 
44019a50:	9967 a02c a17b ac22 1f94 a80b 166d aa2d     g.,.{.".....m.-.
44019a60:	296a 231f 2748 a7bc 193a 2b15 2aa5 29b7     j).#H'..:..+.*.)
44019a70:	2a6d 304e 2c2d 20e1 ae3c 2cb3 2d3d 28ab     m*N0-,. <..,=-.(
44019a80:	2cd3 9fa2 2be2 2a5d ab18 a631 20c7 2df8     .,...+]*..1.. .-
44019a90:	2972 28e2 253c 2a2d a452 ac25 a92d 2619     r).(<%-*R.%.-..&
44019aa0:	2724 98f8 a90c a05c aba0 24f9 2930 2ae7     $'....\....$0).*
44019ab0:	a7e8 a734 2cd4 2cca ab35 ad5f 2550 2090     ..4..,.,5._.P%. 
44019ac0:	28fc a8e0 27e8 2661 2896 acc5 ac96 aa17     .(...'a&.(......
44019ad0:	ab42 a508 aa24 a0be 99de a37b 22c2 aabb     B...$.....{.."..
44019ae0:	2118 286c 2c14 2d15 a820 a79d 23e9 2c04     .!l(.,.- ....#.,
44019af0:	2b1e a57d 2444 27f3 9c9e 20e8 19f3 277a     .+}.D$.'... ..z'
44019b00:	2c82 250d a3ea a976 abca aecd ab89 28c8     .,.%..v........(
44019b10:	a816 a767 2be8 a92d 120a 2491 a0fe 1e89     ..g..+-....$....
44019b20:	2a21 2df7 22b2 a41c 2000 2cc0 2e8c ab78     !*.-."... .,..x.
44019b30:	949c a44f a6d3 aa53 2e83 28e4 2871 1c36     ..O...S....(q(6.
44019b40:	2bce 27fa 28ed a9d4 9a67 2937 98e6 a81a     .+.'.(..g.7)....
44019b50:	a2c8 2777 2c59 a494 a4b6 a137 a62f 25a5     ..w'Y,....7./..%
44019b60:	a01e 1cf2 a99c 2562 202e 2911 2963 2497     ......b%. .)c).$
44019b70:	27f1 24de 1535 a0d9 26b9 21fb aa2f a9eb     .'.$5....&.!/...
44019b80:	230f 9a0d a639 9cca a8cc 1fe0 210a a458     .#..9........!X.
44019b90:	9b3f 26c0 afcb aa50 2669 2687 302a 2cf3     ?..&..P.i&.&*0.,
44019ba0:	22e4 22c8 2805 2aae a625 acb4 ac1d 24d8     .".".(.*%......$
44019bb0:	ae40 abce ab6a a063 25e8 adb9 ac41 1b35     @...j.c..%..A.5.
44019bc0:	abbf 9ee1 242a adb0 afb1 260d 24c6 2d6f     ....*$.....&.$o-
44019bd0:	262b 28ec 21f2 2336 a907 1f92 9a33 2a99     +&.(.!6#....3..*
44019be0:	2aa6 a069 0e95 28c7 2173 28b0 9df1 a37b     .*i....(s!.(..{.
44019bf0:	949f 2aa5 2a93 a657 ad76 aa02 a3ee ac61     ...*.*W.v.....a.
44019c00:	14d9 a8c2 aad6 acf2 2385 2acf 2a26 a837     .........#.*&*7.
44019c10:	a0ea 2c46 1983 a6a0 23a8 2d3e 2845 a007     ..F,.....#>-E(..
44019c20:	a58f 2abb 2b22 9aaf abbc 2bc5 974a 2647     ...*"+.....+J.G&
44019c30:	2588 2c49 2e96 2e07 2e2e 2e49 294c a63f     .%I,......I.L)?.
44019c40:	a5c2 a8a9 2240 abac 2128 27ed 280e 274b     ....@"..(!.'.(K'
44019c50:	27c9 2628 2a20 28ca 2bc3 29a8 2d8c 2cd0     .'(& *.(.+.).-.,
44019c60:	2a1b a7c5 273b 0c24 a50a 2c2c 2987 a733     .*..;'$...,,.)3.
44019c70:	ac0c ae19 a85b 2a52 aa18 2889 1ffd 2100     ....[.R*...(...!
44019c80:	2602 9529 a980 a737 290e 2803 aef0 ac73     .&)...7..).(..s.
44019c90:	a76f 26ff 2d43 2cd2 2dc6 2f50 30f8 32ad     o..&C-.,.-P/.0.2
44019ca0:	291a 2a2b 29d3 9c4c 2d6c 28e6 2c32 a15e     .)+*.)L.l-.(2,^.
44019cb0:	aacb 26ac 2571 2c95 a6a3 ac8b a352 a1b9     ...&q%.,....R...
44019cc0:	27bc adb4 1b90 a524 083d 2953 2d41 304a     .'....$.=.S)A-J0
44019cd0:	3434 1f6a 2dd0 26da 2e35 316c 282c 2a71     44j..-.&5.l1,(q*
44019ce0:	a17f 1831 a89e 27f5 2c07 ae1d a4e0 ae8f     ..1....'.,......
44019cf0:	2c58 2f64 aa0e ac36 b096 2eef a00e b03d     X,d/..6.......=.
44019d00:	af08 ae9b a514 9738 1b4c a935 1f55 a9e5     ......8.L.5.U...
44019d10:	25d9 9f33 2981 2d52 9f49 2608 a15f 2bce     .%3..)R-I..&_..+
44019d20:	2c90 a81e 9fe8 27b1 29d1 a052 1533 2746     .,.....'.)R.3.F'
44019d30:	a5e0 a9a2 1cc5 2a63 2a86 256d 289a 2ba6     ......c*.*m%.(.+
44019d40:	2dbf a9a5 a9c3 2550 2bc7 a6a6 a654 1a5f     .-....P%.+..T._.
44019d50:	229c 2137 a1e2 28b8 2897 283e a676 3369     ."7!...(.(>(v.i3
44019d60:	3156 2d2d 3006 2de4 8d9d a027 20c3 a9a5     V1--.0.-..'.. ..
44019d70:	acf4 2df8 2cf2 2091 acc3 9b72 2e07 2a0f     ...-.,. ..r....*
44019d80:	2017 a431 2996 27bf 26b4 2357 2b98 2a90     . 1..).'.&W#.+.*
44019d90:	253a afb5 b15c b0c7 a751 a41a aa18 ad2a     :%..\...Q.....*.
44019da0:	a87c a411 ab53 ac48 a98a 283e 3087 1ba8     |...S.H...>(.0..
44019db0:	aa19 2644 2cbd 2e6f 2133 a2cf 26ca 28ef     ..D&.,o.3!...&.(
44019dc0:	1971 a770 ae93 ae9c a6c3 2f7f a533 2b07     q.p......../3..+
44019dd0:	a43f aace 2770 2c64 1eb5 2641 2859 2c10     ?...p'd,..A&Y(.,
44019de0:	a921 a9cc 2954 2812 2d24 a5d5 a8e1 2050     !...T).($-....P 
44019df0:	8413 a600 2e95 2cd7 2d38 3145 30b9 2e5f     .......,8-E1.0_.
44019e00:	2abb a867 a4cd ab84 2887 28cf a98d acbe     .*g......(.(....
44019e10:	a64f 28eb 2c11 9d21 ab94 a6f9 2afb 2af7     O..(.,!......*.*
44019e20:	2cee a559 a823 a871 aea7 aa53 a248 2d9d     .,Y.#.q...S.H..-
44019e30:	2ccd a8fa a9f8 2831 3098 a3de a884 2c31     .,....1(.0....1,
44019e40:	27d3 225d 2a92 25dd 2dbd a1b6 ac37 2571     .']".*.%.-..7.q%
44019e50:	a9d8 971a a9ac b0f9 2d76 a456 ac17 ac9b     ........v-V.....
44019e60:	1791 2c26 2335 a960 a732 2add a6c3 9c47     ..&,5#`.2..*..G.
44019e70:	a061 2904 29b5 a4bc 2c62 2c79 a0c7 18fc     a..).)..b,y,....
44019e80:	a26e 28dc 2cde 2542 a7ca a6d3 a83d a9f4     n..(.,B%....=...
44019e90:	ae83 ad5f 28e0 a46e 2b32 9c1e 20c8 2b15     .._..(n.2+... .+
44019ea0:	274e 2b8f 2a13 2c44 a83c 26a3 9d44 2189     N'.+.*D,<..&D..!
44019eb0:	2b50 b00a a44c 2454 a9a2 a565 2b3e 9ce7     P+..L.T$..e.>+..
44019ec0:	28f0 acaf a40b 26f6 9d36 2f30 a508 2d70     .(.....&6.0/..p-
44019ed0:	1be7 9fca 2c79 2cd9 282f b251 accd 1635     ....y,.,/(Q...5.
44019ee0:	2731 a88e b247 a534 91a8 a4e2 a891 2851     1'..G.4.......Q(
44019ef0:	2709 aaa8 a99e ab0d 2832 a90b a948 a777     .'......2(..H.w.
44019f00:	11dd 9ea1 28d8 23fe a774 2efa a813 2ad6     .....(.#t......*
44019f10:	279a 24ed 2d60 9ebc 2a49 2ac1 23e7 9e45     .'.$`-..I*.*.#E.
44019f20:	a54e ade4 abfe a01b ab62 2470 ad3d aa87     N.......b.p$=...
44019f30:	a94a 9de6 24f8 2bc0 2bc0 a685 2413 2d3d     J....$.+.+...$=-
44019f40:	298f 9897 262c 236e 2744 a765 aedc 1eee     .)..,&n#D'e.....
44019f50:	2ccb a199 2a63 2a15 2369 a95b a950 a4eb     .,..c*.*i#[.P...
44019f60:	a9c0 2d20 28ef 2648 ac89 9c2a 2d9d 1c8e     .. -.(H&..*..-..
44019f70:	2b3e abef a3f8 a02e 20a4 1e02 ac9c a0ef     >+....... ......
44019f80:	2928 3294 3006 2a43 294f a9d5 258b a92c     ().2.0C*O)...%,.
44019f90:	a8e9 2822 252a a83d af53 2368 aebd abd7     .."(*%=.S.h#....
44019fa0:	1477 2cd3 262a 9984 aa3b a9a4 2cdc 2d5a     w..,*&..;....,Z-
44019fb0:	28a1 a935 af75 ac26 285c 24ae 2bc8 26ce     .(5.u.&.\(.$.+.&
44019fc0:	1208 98a5 ad6e 29bd 2eac 1318 a454 b013     ....n..)....T...
44019fd0:	2cb0 227a 9002 a9ef ace8 2e26 aa58 a7ae     .,z"......&.X...
44019fe0:	a3b6 1d62 2536 288e abe3 21af 2a4f 1866     ..b.6%.(...!O*f.
44019ff0:	9e11 221c 2912 a0e2 2c87 2917 29b3 b0b1     ...".)...,.).)..
4401a000:	aec3 3112 a9ce 248e af7d 251d 2a3b aba8     ...1...$}..%;*..
4401a010:	a2a9 a8d8 2c50 3028 30ae a7f0 1e0e 2bdc     ....P,(0.0.....+
4401a020:	2ab5 2736 ac08 aebe 9cfd a8d8 afcb a56f     .*6'..........o.
4401a030:	29ee 26f0 99f4 aed5 2d4d 2979 2d83 2daf     .).&....M-y).-.-
4401a040:	2cde abb8 210b a8c8 2c76 2b71 a187 ab89     .,...!..v,q+....
4401a050:	22bb 200b 9eb4 a5d6 9b53 2172 9d03 a6a2     .". ....S.r!....
4401a060:	2cb9 a674 a5db a766 a976 2c54 a93a a6dc     .,t...f.v.T,:...
4401a070:	a59d 22c9 a76a ac2a 19d1 ab83 a029 2b24     ..."j.*.....).$+
4401a080:	2c47 2917 1130 98e0 9c51 aa32 9e84 18b4     G,.)0...Q.2.....
4401a090:	2c3d 8da7 abbe af24 1fdf a48d 2cc0 2322     =,....$......,"#
4401a0a0:	0f6d 272a 2065 2adb 2c90 a6df 29c7 2851     m.*'e .*.,...)Q(
4401a0b0:	2c2e a5f5 1926 abd5 25d7 b087 af30 a98f     .,..&....%..0...
4401a0c0:	ab88 ae8d a804 a62f aab0 ad34 aba9 2fa6     ....../...4..../
4401a0d0:	2e0c 2e49 2ede a02f 239c 9d6c 9f6c 21dd     ..I.../..#l.l..!
4401a0e0:	2b51 a977 2729 2aac aa11 a403 a3e0 a776     Q+w.)'.*......v.
4401a0f0:	a4de 1806 2690 2c82 218f 1dbc a5af 28a5     .....&.,.!.....(
4401a100:	2de1 a26b a5e4 27d2 1ebc 2ca9 a472 ac75     .-k....'...,r.u.
4401a110:	285b 250b abf6 9b27 28cd a81c 1e06 abde     [(.%..'..(......
4401a120:	a5b6 abfa 2867 2c94 9bf2 aab6 acd5 a040     ....g(.,......@.
4401a130:	2505 2d81 a0fe 95b0 9c1a a618 a919 a9da     .%.-............
4401a140:	1c33 27a2 2cda afa3 1a5e 2a52 a06c ac5e     3..'.,..^.R*l.^.
4401a150:	abed a505 2fcc b1d8 ac47 1ccb 981c add9     ...../..G.......
4401a160:	a4ed 2dd7 2ba2 1e28 b066 a830 a9a7 a86e     ...-.+(.f.0...n.
4401a170:	1ee3 2bc2 a942 b09e a9c4 2731 a6c1 a9ce     ...+B.....1'....
4401a180:	a716 a8f0 a67c a814 ac3e 20e9 2d75 263f     ....|...>.. u-?&
4401a190:	a1fc 2930 1e87 2464 1d96 2086 2b95 2cf6     ..0)..d$... .+.,
4401a1a0:	a091 a83c a83a aa71 28ae a838 ade7 a806     ..<.:.q..(8.....
4401a1b0:	9fb1 a80d 21ca 88c2 a89d aa7b ac97 2ea0     .....!....{.....
4401a1c0:	2b03 2ad8 98b1 2bf2 2c64 2b6b 1df0 2678     .+.*...+d,k+..x&
4401a1d0:	29e4 a670 acf1 ae8e 9eac 2e33 acb0 acdc     .)p.......3.....
4401a1e0:	a52e 25a5 aa6c 2b30 1eea a42d 28d4 2ddf     ...%l.0+..-..(.-
4401a1f0:	28c4 2806 2fb2 265a a426 af24 9478 1f7c     .(.(./Z&&.$.x.|.
4401a200:	aacf 8888 a6c4 acab adf2 abd7 267c ab45     ............|&E.
4401a210:	2155 26a9 29e3 a4ed 242a a6d6 a106 aa00     U!.&.)..*$......
4401a220:	acfb 2bc7 27b8 12a4 2be1 a426 2c74 a39e     ...+.'...+&.t,..
4401a230:	220a 2e7f 2739 2606 ac9a 26a6 2c51 2774     ."..9'.&...&Q,t'
4401a240:	2852 261c 2896 2b13 9bb3 2491 a5dc 2b2a     R(.&.(.+...$..*+
4401a250:	28d3 15e5 aa6a 2522 26fb 1879 2bce 20db     .(..j."%.&y..+. 
4401a260:	97e7 ab23 a5ca a871 a876 2a65 aa29 ac4b     ..#...q.v.e*).K.
4401a270:	ac16 a408 ad7a aa8a acdf a0b9 2169 9d96     ....z.......i!..
4401a280:	a3ba a44c 2a47 2b48 a7e8 a826 2276 2c7c     ..L.G*H+..&.v"|,
4401a290:	a40e 98a4 aa85 2cc9 2a1e abb4 a71e acd2     .......,.*......
4401a2a0:	a944 a766 2e01 24a2 2bb5 2ae3 9f8b 2499     D.f....$.+.*...$
4401a2b0:	286d 2e03 29be a813 a68a 2b84 2b8e a488     m(...).....+.+..
4401a2c0:	a29a a343 13f4 ad5c 2906 2b16 2bd2 2e01     ..C...\..).+.+..
4401a2d0:	303d 2e57 26a8 294a a912 ad3a 2784 ae5e     =0W..&J)..:..'^.
4401a2e0:	2540 2e0a 2654 ad63 b001 9f7d 2494 aaff     @%..T&c...}..$..
4401a2f0:	28d4 2547 ac3d acf4 2311 2f56 2c17 a905     .(G%=....#V/.,..
4401a300:	9117 20ad 30ef a87e ac71 a9f3 ac18 ae0a     ... .0~.q.......
4401a310:	b1c6 28ee 2e9d ab60 b0d3 aa94 2bcd a88e     ...(..`......+..
4401a320:	af02 a1c1 30d0 a4b8 ae5d 2a13 2d73 3290     .....0..]..*s-.2
4401a330:	ab4c a963 286c 2a56 29fe a8a5 2894 2a58     L.c.l(V*.)...(X*
4401a340:	2b9b a0c4 2bad a99f ab3d 2adf 2935 2956     .+...+..=..*5)V)
4401a350:	a089 2aab 2f44 276c 2e52 3000 2438 ab75     ...*D/l'R..08$u.
4401a360:	ac26 ac73 2893 ab75 ae65 a8e9 a852 a76e     &.s..(u.e...R.n.
4401a370:	a846 9a46 2d88 a312 28f4 24c7 1e43 26e2     F.F..-...(.$C..&
4401a380:	2650 25bd 9707 a15e 2ab0 a964 a852 2a95     P&.%..^..*d.R..*
4401a390:	2549 a48d a90a acb6 2e17 2930 adc3 af37     I%........0)..7.
4401a3a0:	a1e7 a900 a4d4 a5d2 2816 2dac 29f4 2c4d     .........(.-.)M,
4401a3b0:	ac29 302a 1cc9 2796 2c30 29d5 b09a ab9c     ).*0...'0,.)....
4401a3c0:	aa54 2e0c 1e3d b340 aee5 1da3 276b acf3     T...=.@.....k'..
4401a3d0:	24ac 2593 a48c 2321 20c8 ad28 245a 2873     .$.%..!#. (.Z$s(
4401a3e0:	2988 2d1b 2114 2d28 2f1c a17a aa3b 3015     .).-.!(-./z.;..0
4401a3f0:	2b00 a595 a71f 25e2 a7c2 a058 2932 248e     .+.....%..X.2).$
4401a400:	ac45 2add a82d 259e 144c acc6 1f1d 2c9b     E..*-..%L......,
4401a410:	2a44 2c26 22aa a926 a6ed 1256 ad9c 1155     D*&,."&...V...U.
4401a420:	a14a a825 ac6c 2cfd 2af0 9d5e 24cb 1f69     J.%.l..,.*^..$i.
4401a430:	29b9 28bf 28e0 ac2d a8d1 9fcf a94c 25b8     .).(.(-.....L..%
4401a440:	2a62 2c6d 225b a93f 1cb9 2231 a824 2d2f     b*m,["?...1"$./-
4401a450:	2f07 a68e a2af a219 2efa 2887 aac6 a51d     ./.........(....
4401a460:	28e2 aa26 2000 aa6d ac26 8336 2d48 2524     .(&.. m.&.6.H-$%
4401a470:	aceb a543 2a2e 2790 b0c8 a3cc a7af 2985     ..C..*.'.......)
4401a480:	a51f a8b6 2533 ad85 299e a85f 1fd9 ad88     ....3%...)_.....
4401a490:	1f65 1ed1 2c9b 206d a164 a630 922d 193f     e....,m d.0.-.?.
4401a4a0:	a662 a63d 9d0f 9c0e 25de 285f 1edd 256a     b.=......%_(..j%
4401a4b0:	28e4 aa30 2cac 279a a6be a9dd ad5c 1e80     .(0..,.'....\...
4401a4c0:	272e ac26 a8f9 a14f 28f6 2a01 28f3 9f40     .'&...O..(.*.(@.
4401a4d0:	2cd3 9e41 aa18 9822 203e 8c59 2681 ad43     .,A...".> Y..&C.
4401a4e0:	a0f0 2ad4 25d9 aa17 265e 3036 2ce9 af35     ...*.%..^&60.,5.
4401a4f0:	1135 290a 1e90 a179 ac5f 2394 2be3 2750     5..)..y._..#.+P'
4401a500:	240c 8c91 2ec5 af38 afe2 b02e 271f 2c33     .$....8......'3,
4401a510:	aef3 a48c 0bf6 29cf 2ae5 29bd 3076 2cdc     .......).*.)v0.,
4401a520:	a7d4 afdc 32a8 2aaf 264f a86b ae7c a228     .....2.*O&k.|.(.
4401a530:	a12d a9c7 2d07 a508 a42d a8d4 274a 2cff     -....-..-...J'.,
4401a540:	9f5e 2cc7 2a7f 2533 244b aabc 2bf3 2a57     ^..,.*3%K$...+W*
4401a550:	acf5 2a7e a74c 258b af7c ad8c 2b6e a942     ..~*L..%|...n+B.
4401a560:	a9ea ac57 24f7 a5be a972 210b aa4a a7b8     ..W..$..r..!J...
4401a570:	a982 1c69 2564 263e a846 9832 2304 1e02     ..i.d%>&F.2..#..
4401a580:	a362 16f1 254f aba7 a808 2406 255e 1f5c     b...O%.....$^%\.
4401a590:	a33d 1e5b a510 a5b3 a67c 2148 24aa 280e     =.[.....|.H!.$.(
4401a5a0:	a95d 9dfe aaa6 25a5 a76b a527 24a8 a30d     ]......%k.'..$..
4401a5b0:	26e4 2bb6 2270 a3ce 1478 2344 897f 28df     .&.+p"..x.D#...(
4401a5c0:	2713 2804 ab62 a8e4 abda 1440 2570 244d     .'.(b.....@.p%M$
4401a5d0:	ac13 9fdf ab87 25dd a545 2501 9e8c a4cb     .......%E..%....
4401a5e0:	20ce a258 1f42 a328 23d0 a329 9c37 a7ca     . X.B.(..#).7...
4401a5f0:	2318 a84b a82c 276e 2821 ab33 2811 248d     .#K.,.n'!(3..(.$
4401a600:	ab5e a073 2250 a5c2 a1cc ab90 a873 20ba     ^.s.P"......s.. 
4401a610:	2436 aac9 18bc 9fbc a527 23b1 a589 a6e3     6$......'..#....
4401a620:	22e8 a40e 2733 1c7b 2595 a885 a2d9 ac43     ."..3'{..%....C.
4401a630:	a623 a815 a11b 2504 a820 a52c 2190 2a94     #......% .,..!.*
4401a640:	2758 a93d a823 2a61 a59b 9da8 aa78 111b     X'=.#.a*....x...
4401a650:	1956 a00a 27ad 192a 29f0 a159 a2d7 a4ae     V....'*..)Y.....
4401a660:	aada ab79 ab1f abc8 2765 24a2 1d16 a97d     ..y.....e'.$..}.
4401a670:	a692 2648 1d29 2427 25d8 aaa2 a80f ac00     ..H&).'$.%......
4401a680:	a9d3 abbc a656 1d1d a905 a741 a5fe 173c     ....V.....A...<.
4401a690:	1e6f a2e7 a175 a6c2 a851 ab79 2275 a4a2     o...u...Q.y.u"..
4401a6a0:	272f 211f 9ab3 a726 233e a940 a62e 2503     /'.!..&.>#@....%
4401a6b0:	8c3d a0c9 26a2 2454 256d a1d4 231c aa06     =....&T$m%...#..
4401a6c0:	262e 2840 a50e ac54 9ff7 ac0f aa24 a810     .&@(..T.....$...
4401a6d0:	1937 a8d0 a19c a580 a918 248c 9ce8 1b4e     7..........$..N.
4401a6e0:	a3a0 2833 a766 abaa a4e9 9e8a aadc 2757     ..3(f.........W'
4401a6f0:	1cdb a51f 2860 2798 1d7f a236 ac39 a56b     ....`(.'..6.9.k.
4401a700:	a8f0 ac19 259f a5fd 2230 a2fc aa10 919c     .....%..0"......
4401a710:	a828 2280 abcb 2803 a8d7 a5c5 1ea3 aaef     (.."...(........
4401a720:	25e3 2221 2189 a12e a860 a915 aa84 a90e     .%!".!..`.......
4401a730:	aa1b 9b6c a887 2858 a6d7 97b1 aa6e 2718     ..l...X(....n..'
4401a740:	a4b5 200c 26fa a898 ac34 a9d4 9a59 a345     ... .&..4...Y.E.
4401a750:	a36e 25f8 a068 273e 2211 24be a68c 27f4     n..%h.>'.".$...'
4401a760:	202b a720 9c0a 27e5 1985 aac4 a427 a8e1     +  ....'....'...
4401a770:	ab67 1cc7 120d a36f a121 a98e 1f63 aa2d     g.....o.!...c.-.
4401a780:	1de7 24d8 aaa7 a87c ab2f ab06 9fae aa47     ...$..|./.....G.
4401a790:	a4dd 24c6 ab2b a81a 26ac a8c8 a87e a6cc     ...$+....&..~...
4401a7a0:	2bbb a8e4 2427 22b2 272d a547 a317 a6e5     .+..'$."-'G.....
4401a7b0:	9a2c a0bd 2610 265a aaed 2438 a362 ac3a     ,....&Z&..8$b.:.
4401a7c0:	aa9c 9c53 a301 27c9 ac08 24fd a9ef a098     ..S....'...$....
4401a7d0:	a96d a862 ab4d 2518 279f aa19 2477 a6ea     m.b.M..%.'..w$..
4401a7e0:	aa95 254e 267b a723 aa40 a233 141d a8dc     ..N%{&#.@.3.....
4401a7f0:	aa2d 1ea2 22c0 a8c1 9c5f 2829 25ca 21f1     -....".._.)(.%.!
4401a800:	a9e3 aaa9 2843 1ba4 a9a7 aa21 2711 9f8b     ....C(....!..'..
4401a810:	abd5 8aa2 a5ab 242c 2198 a636 26a7 aa28     ......,$.!6..&(.
4401a820:	a2eb a028 a7bc a95a 243f a6e1 2b8f a84c     ..(...Z.?$...+L.
4401a830:	25ac 187d ac67 a60b 01c9 ab2a 16e9 97b6     .%}.g.....*.....
4401a840:	9a41 a99f 1ee1 ab3b a2ac 9f24 a586 1bec     A.....;...$.....
4401a850:	2158 a104 217e a483 a94b 210e 2721 a1cd     X!..~!..K..!!'..
4401a860:	9c97 a84b 20b9 a007 158b a862 ab17 2be7     ..K.. ....b....+
4401a870:	a8ae a77f a83f 267e 2bc5 21b1 a9ec 2475     ....?.~&.+.!..u$
4401a880:	21ab a6ac a8b8 a329 a92b 1769 a8b9 9c8a     .!....).+.i.....
4401a890:	a574 9ecc ac1d 2692 a58a 2046 9ad8 a93f     t......&..F ..?.
4401a8a0:	ab78 ac19 a877 a741 aa0f a74f 9e80 a37c     x...w.A...O...|.
4401a8b0:	a69b aac5 2133 20c9 95a2 2a63 aa03 ac25     ....3!. ..c*..%.
4401a8c0:	990c a846 8728 ab06 9598 ab72 a7f4 aa8f     ..F.(.....r.....
4401a8d0:	a6a1 26fd 0e9c 9cf7 23e1 a297 250c 9dd8     ...&.....#...%..
4401a8e0:	a802 281a 2676 ab1a a963 a7fe a87a 2434     ...(v&..c...z.4$
4401a8f0:	a64c a948 aa82 1c23 a81d aa0d a5b4 a8a7     L.H...#.........
4401a900:	ac07 a4ca abee a3f5 2245 89f5 a64e a876     ........E"..N.v.
4401a910:	2524 a77d aaa9 a853 a56a a4af ac56 21ef     $%}...S.j...V..!
4401a920:	a5cc aa3e 914b a89b a408 a5e8 14b6 a92b     ..>.K.........+.
4401a930:	258f a451 216e 8383 a315 aa22 1f3b 9e5a     .%Q.n!....".;.Z.
4401a940:	aa13 1e30 260e 2110 26c3 a365 a979 a364     ..0..&.!.&e.y.d.
4401a950:	280a a1a7 2524 a86f 1169 a6a4 a81a aa94     .(..$%o.i.......
4401a960:	a629 29ce 26d9 1f64 ac35 ab98 2192 a949     )..).&d.5....!I.
4401a970:	24ba a51e 9c98 27d5 2786 21ac 95d5 a0a3     .$.....'.'.!....
4401a980:	1c0d a9c5 aa3c a94d abaf 9f3c 270a 20ad     ....<.M...<..'. 
4401a990:	ab94 25cc 8941 ac02 a090 2540 a5f0 a0f7     ...%A.....@%....
4401a9a0:	280d aa0e a51d aac9 2431 ab53 a1f9 abc0     .(......1$S.....
4401a9b0:	1b72 a8b4 250f a9ad a817 abda a5b9 9474     r....%........t.
4401a9c0:	a59b abc1 abea 9f00 a475 aaaa a8d9 a14c     ........u.....L.
4401a9d0:	130b a841 2322 9c40 989f a693 a476 2286     ..A."#@.....v.."
4401a9e0:	9f9d a88f a992 a3f0 a3ac a969 2376 8d18     ..........i.v#..
4401a9f0:	a988 9e91 1ee9 a8aa a90d ab75 a882 1c0d     ..........u.....
4401aa00:	aa88 233e a4ce aa0e 24bd a72a a898 ac01     ..>#.....$*.....
4401aa10:	a9a7 23f9 a42c a823 26dd a917 28e4 9c27     ...#,.#..&...('.
4401aa20:	a870 a705 a8d8 aa26 1e96 a6ae a1ce 2262     p.....&.......b"
4401aa30:	aad5 1700 abd1 a493 abd3 a8e0 ab28 9d6a     ............(.j.
4401aa40:	a8a4 a523 290f 9efc a93d a849 a086 8331     ..#..)..=.I...1.
4401aa50:	220e 2014 251c 1fd3 9975 a92b a0c9 25d7     .". .%..u.+....%
4401aa60:	201d abf1 a9eb a9a5 2775 19f6 205e 25c0     . ......u'..^ .%
4401aa70:	1e0a a9ab 24b6 2a5b a74f a978 aa48 a562     .....$[*O.x.H.b.
4401aa80:	a631 a8b4 a542 a939 a9ac 9df9 1ef8 262c     1...B.9.......,&
4401aa90:	a054 1de2 a9da 272b a597 a9fa a37f aba3     T.....+'........
4401aaa0:	1a45 a086 a6f6 25b9 25dd 2782 a99a a5ac     E......%.%.'....
4401aab0:	1816 27fa 27c2 a842 2154 996b ab91 9282     ...'.'B.T!k.....
4401aac0:	ac20 a894 2431 a546 2908 1c34 aa38 22ab      ...1$F..)4.8.."
4401aad0:	ac02 ac58 2711 2a21 ac2d 2557 1da8 a503     ..X..'!*-.W%....
4401aae0:	a5c9 a420 a6e5 a796 ab17 a6e1 a34d a12a     .. .........M.*.
4401aaf0:	a191 2297 a8b3 2786 1a1c 1efd a9ff ac1a     ..."...'........
4401ab00:	a5e2 a9ce abdd a278 a8f6 a17d a0fa ab66     ......x...}...f.
4401ab10:	a16c 9dec 1d5a 2632 a0aa 164d a197 a4ee     l...Z.2&..M.....
4401ab20:	2370 a9cb ac0a aada 27b7 9cd6 a9c3 a449     p#.......'....I.
4401ab30:	a469 a9a5 a47d a582 a5cf ab18 24dd aa22     i...}........$".
4401ab40:	ab5d a4cb ab01 a67c a02c 255d a109 a733     ].....|.,.]%..3.
4401ab50:	26e1 a902 ab7e aa65 aa34 a2a3 25db 107b     .&..~.e.4....%{.
4401ab60:	aa05 a7e1 a8e2 2970 2892 24c7 abce 232a     ......p).(.$..*#
4401ab70:	9dc9 167f a49c 2671 a4c0 1565 a71a 9da7     ......q&..e.....
4401ab80:	a8a6 20a0 2212 9246 ab17 ab55 a3db 2405     ... ."F...U....$
4401ab90:	24b8 180d a79c 24b6 2434 a339 a79d 2752     .$.....$4$9...R'
4401aba0:	2883 28ab 23d8 a8da a774 1243 a0e0 ab14     .(.(.#..t.C.....
4401abb0:	0f02 aa81 a69d ab8a a9e0 acad acb2 a43c     ..............<.
4401abc0:	a960 aace 1d76 a011 2abd ab4c abf3 2831     `...v....*L...1(
4401abd0:	28d8 a868 29dc 24ca 28fc acd4 a53f a4c3     .(h..).$.(..?...
4401abe0:	2858 10d9 a421 a5c6 a512 2887 28d8 acce     X(..!......(.(..
4401abf0:	a3f1 a493 a5f4 a3cc a2b4 ab5f ade0 a58f     .........._.....
4401ac00:	2d04 2d4f abff ac68 2bb9 a700 a096 269b     .-O-..h..+.....&
4401ac10:	28a6 a053 2a9b 27a6 300f 2f1b 27c9 2c2d     .(S..*.'.0./.'-,
4401ac20:	94c2 3028 2de7 2198 2651 af16 2f69 303f     ..(0.-.!Q&..i/?0
4401ac30:	29fb a8b6 ad0b aeb9 275a 2b67 2945 3063     .)......Z'g+E)c0
4401ac40:	a508 a6de 24d0 2d73 9e53 ad4b ac5b 2796     .....$s-S.K.[..'
4401ac50:	2bd7 2062 ac03 ae13 18be 2631 a96e 8573     .+b ......1&n.s.
4401ac60:	a65a 2e50 204f a8c1 2579 26b6 2236 301b     Z.P.O ..y%.&6".0
4401ac70:	2a7d a8c6 22ea 8a03 2d64 b0e1 a9f2 aec6     }*..."..d-......
4401ac80:	9e43 2cbc b0e5 ae90 9ebc 2fe9 2c53 af92     C..,......./S,..
4401ac90:	ad0d 98c8 30d8 300d 26bc a35a 2d35 941d     .....0.0.&Z.5-..
4401aca0:	aaa6 25d5 2afa 2cb3 146d 92a6 a84c a8ce     ...%.*.,m...L...
4401acb0:	1769 2b2a 1e06 acef 2966 a181 a170 a3f9     i.*+....f)..p...
4401acc0:	2403 2b44 2841 a4cb 2e01 2dd8 9d25 a952     .$D+A(.....-%.R.
4401acd0:	a944 9b26 a9a3 a889 a630 8d97 a940 a550     D.&.....0...@.P.
4401ace0:	1bec a7e3 2539 aade a821 a0eb a8a4 2883     ....9%..!......(
4401acf0:	aa60 a401 a8ec a81c 2802 ab88 2672 ac1f     `........(..r&..
4401ad00:	285f 2aab 2db1 208d af7a 2289 2679 2d58     _(.*.-. z.."y&X-
4401ad10:	2942 b1b3 279b 24b1 28ec a9d4 ae21 a55d     B)...'.$.(..!.].
4401ad20:	27cb 2640 abee 2b86 28cc 9e73 a917 2a45     .'@&...+.(s...E*
4401ad30:	246a 2830 2092 2967 26ed 2d5f 2fe2 2aec     j$0(. g).&_-./.*
4401ad40:	294b 2536 302d 2e40 2d1a 2a2f a4a4 253d     K)6%-0@..-/*..=%
4401ad50:	2701 a874 a236 a805 2bd2 2c5d 29a2 282e     .'t.6....+],.).(
4401ad60:	2a42 aae3 ab04 a919 19d2 2c96 a4ac a77c     B*.........,..|.
4401ad70:	22f9 287a a667 2b3b ac13 a897 a380 22d2     ."z(g.;+......."
4401ad80:	9aef ab24 aa73 25fb a6e0 296d a96a 1e4a     ..$.s..%..m)j.J.
4401ad90:	2c0e ac0b 9c59 291d 9419 2d4f 25f8 ab6e     .,..Y..)..O-.%n.
4401ada0:	2c1e a2e6 9c02 a363 a602 a7ac a1cb 20bf     .,....c........ 
4401adb0:	a982 a53e 256b a19a 2073 ace5 a82b 1b46     ..>.k%..s ..+.F.
4401adc0:	2918 2020 a36d ab30 2583 ad65 a77b 2d24     .)  m.0..%e.{.$-
4401add0:	aab1 215f a745 acae 2aa2 2aaa 26dc a8da     .._!E....*.*.&..
4401ade0:	a900 a872 1cdc 24ba a5f2 2be5 2e93 a9d0     ..r....$...+....
4401adf0:	2c1e 2d14 3018 2ddc 860e 9c6d 2163 a704     .,.-.0.-..m.c!..
4401ae00:	270b 219e 9c38 a9f8 a97e 2085 9f2e aaf6     .'.!8...~.. ....
4401ae10:	22ed 2638 1f2a a090 0e3d 1754 1b1e 274f     ."8&*...=.T...O'
4401ae20:	9654 19e0 245a a51d 22b6 201f 957d 26f1     T...Z$...". }..&
4401ae30:	a6fe a8be 9ff6 10b0 20de 9e5c a96b 9ba8     ......... \.k...
4401ae40:	ac13 2b04 a736 a704 2df5 25bb aabd 8887     ...+6....-.%....
4401ae50:	2d6c 2918 aaca a764 25ea 2d7c 1a27 2113     l-.)..d..%|-'..!
4401ae60:	2602 2221 ad27 2772 2b62 aa74 2534 ac92     .&!"'.r'b+t.4%..
4401ae70:	2eef 293a aab3 279b 9c40 31d4 28b4 2741     ..:)...'@..1.(A'
4401ae80:	2a2e 2957 24a2 ad35 addb 288c 2db9 1d48     .*W).$5....(.-H.
4401ae90:	2ca8 28cb 25d1 97fc a895 278a 1b13 0032     .,.(.%.....'..2.
4401aea0:	aa64 1892 1047 2c62 aaa2 ace3 9890 a1fa     d...G.b,........
4401aeb0:	a34e 2758 a9a7 a80e 21d9 2a66 282e 9f61     N.X'.....!f*.(a.
4401aec0:	ace8 1fc2 a0fa 2ca1 28d4 a76b a1e8 2203     .......,.(k...."
4401aed0:	2966 2164 274f 2207 26d1 a91c a213 a836     f)d!O'.".&....6.
4401aee0:	2342 acf6 a4f0 ad2e 2953 a886 ae28 ac2a     B#......S)..(.*.
4401aef0:	b131 acce 21da 9da2 a825 a793 a98a ac4a     1....!..%.....J.
4401af00:	249d a304 aa52 a643 1c23 a623 286a aabc     .$..R.C.#.#.j(..
4401af10:	aa76 a842 2359 a876 adb1 ad1b 29c0 2a7a     v.B.Y#v......)z*
4401af20:	a835 b055 a73c a987 aa28 a94e 263e 2564     5.U.<...(.N.>&d%
4401af30:	2997 2799 2e2d 295e a4cd 2b86 2c5a 2c13     .).'-.^)...+Z,.,
4401af40:	a090 2f25 24da 306a 2f0a a995 29a3 220d     ..%/.$j0./...)."
4401af50:	28d3 17fd b00b ad78 adc8 2d15 2947 2f3d     .(....x....-G)=/
4401af60:	a8c0 286f 2da0 2ba1 9409 1f5f 2c39 1de1     ..o(.-.+.._.9,..
4401af70:	94ee a52c 9d85 264a 1d2a a2c1 a2ac 2e97     ..,...J&*.......
4401af80:	30e0 2a45 3023 a9e5 b04e a820 27c5 2e90     .0E*#0..N. ..'..
4401af90:	a92a 242e 9a54 2c96 86b3 af1d 20cf 2760     *..$T..,..... `'
4401afa0:	2c04 17bc 2770 a2fc 2f21 2cd8 2eaf a555     .,..p'..!/.,..U.
4401afb0:	2a5d 2fcf 3275 3107 ac55 a3db a285 1c17     ]*./u2.1U.......
4401afc0:	acc0 ac5a 24f2 138b 157d 294e 2fc4 243e     ..Z..$..}.N)./>$
4401afd0:	259e a6f2 2860 aaed 1e1d a06f ac31 ac3a     .%..`(....o.1.:.
4401afe0:	29fb ad29 af18 a88e adc1 afe2 ac02 aceb     .)).............
4401aff0:	a962 2a3c 9c6e 27ec 9dd8 a52d 27f6 24d9     b.<*n..'..-..'.$
4401b000:	253a 245b 1700 9a4b ad87 a708 a8a7 2a4e     :%[$..K.......N*
4401b010:	a549 b17f a927 19e5 2595 ac37 b1c5 ac98     I...'....%7.....
4401b020:	b084 ad72 288e 282c ab98 a68f 9933 2d38     ..r..(,(....3.8-
4401b030:	22e4 a90f 2b03 2df0 2620 2c10 21f7 2cfb     ."...+.- &.,.!.,
4401b040:	2eaa 9d41 af2b 2c6e 3050 303f a9c3 b017     ..A.+.n,P0?0....
4401b050:	a9e3 9a1d af28 ac03 ae16 a615 2327 2c56     ....(.......'#V,
4401b060:	307a 3048 a96d 283a 2735 2d5f 1f3e 300b     z0H0m.:(5'_->..0
4401b070:	2ca3 a753 2cff 288e abbc adfa b06e acaa     .,S..,.(....n...
4401b080:	af55 af32 ad1e ada8 a44e 2adc a611 2858     U.2.....N..*..X(
4401b090:	27ee 2cc4 28c0 2cc4 a8a7 2814 2d08 039b     .'.,.(.,...(.-..
4401b0a0:	26f4 a89d a2f8 2a54 ae3e a643 a5c6 a81e     .&....T*>.C.....
4401b0b0:	a8f9 a95c ac3a acba 1a1b 1435 29ea 18e4     ..\.:.....5..)..
4401b0c0:	aa8d 2a16 2d61 a805 a448 2b1b 2c9c 2989     ...*a-..H..+.,.)
4401b0d0:	217e 26cb 2e06 2d93 a987 afad 25ae 2ddc     ~!.&...-.....%.-
4401b0e0:	2d75 aec4 ae5a adba ad5f ae5f 2e91 317e     u-..Z..._._...~1
4401b0f0:	ad11 1c11 2a07 2e35 3062 0b57 2aff 2217     .....*5.b0W..*."
4401b100:	2f57 a93c 29df 2d40 2bf9 aa26 2ad2 9fa8     W/<..)@-.+&..*..
4401b110:	1cbd 245e 9270 291a aa51 95ba a776 2569     ..^$p..)Q...v.i%
4401b120:	9fe9 2a9f 1b4c a0c4 2874 1f52 240d 18dc     ...*L...t(R..$..
4401b130:	286f 2295 a6c7 ad1b aa25 23f5 a43b ad41     o(."....%..#;.A.
4401b140:	a6bf 1cf5 22f5 a810 ac25 ac1f 259f 26dc     ....."..%....%.&
4401b150:	2a5b 2c83 2286 1dce a812 ac42 2b80 2cd2     [*.,."....B..+.,
4401b160:	24e1 25b7 243a 2a30 a9f8 9b18 a80a acc2     .$.%:$0*........
4401b170:	26ba a969 b092 a99c 9ff3 a63b a02d 2d09     .&i.......;.-..-
4401b180:	2d96 2e18 2907 3069 2c83 a4eb ab1a ab0e     .-...)i0.,......
4401b190:	18a0 95d0 a67d aa17 a9a6 a4ab b071 ac74     ....}.......q.t.
4401b1a0:	adb0 ab89 2a12 b1e7 acc7 2953 ac05 abf8     .....*....S)....
4401b1b0:	a917 2bbb 9cf8 a67f ac71 9158 261f 29a8     ...+....q.X..&.)
4401b1c0:	2f93 a2dc 12ba 2c4a 2a20 286e 23a8 ac3d     ./....J, *n(.#=.
4401b1d0:	2b35 a9ef a80d adf5 a863 a206 ae4e b0c7     5+......c...N...
4401b1e0:	2a09 1e66 1c3e a3f3 a195 2938 a0b2 2d46     .*f.>.....8)..F-
4401b1f0:	2614 aa46 2aaf 2774 15e6 2c2d 25f2 244b     .&F..*t'..-,.%K$
4401b200:	2996 a66b a12b 9da6 a179 a8b7 2c32 9d5d     .)k.+...y...2,].
4401b210:	aa02 2aae a485 accd ae34 accb 2dd3 278b     ...*....4....-.'
4401b220:	a2c8 a0fc 284e 2998 2a70 99ab 2818 a562     ....N(.)p*...(b.
4401b230:	2400 2956 a36d 2c41 a875 9c1f 2d57 1110     .$V)m.A,u...W-..
4401b240:	a590 a593 ab6a 3044 309b 2f60 28c2 aeb1     ....j.D0.0`/.(..
4401b250:	16e4 250c 24b6 ac47 aa56 a8d5 a830 2ca7     ...%.$G.V...0..,
4401b260:	2241 ae79 a878 2722 2463 a431 ae02 a587     A"y.x."'c$1.....
4401b270:	280e 28c7 ae12 3037 2ef3 26cb af24 b156     .(.(..70...&$.V.
4401b280:	2e41 a4d9 18d3 ad04 ac33 227e 2af6 294d     A.......3.~".*M)
4401b290:	2300 18fd 2412 a529 2ad7 219c aa1a 28d7     .#...$)..*.!...(
4401b2a0:	2b2c 2918 ad93 261d 2c28 2d0c 9f3d b1b1     ,+.)...&(,.-=...
4401b2b0:	b21c 2b3c 20ff ad37 afbd ac82 2c0e 277e     ..<+. 7......,~'
4401b2c0:	2437 ac6a 9928 2837 2ced 254a ae8d 26f7     7$j.(.7(.,J%...&
4401b2d0:	23b3 2810 a45b a6b2 089d ad1d acf0 ae4a     .#.([.........J.
4401b2e0:	264d 2cf6 29d4 a4da 28e2 ac96 a334 2c0d     M&.,.)...(..4..,
4401b2f0:	23c2 2bbf 245d 2712 9f2b a636 19c5 9e4e     .#.+]$.'+.6...N.
4401b300:	a111 ab15 27d6 2486 26bb a940 2d99 2bbb     .....'.$.&@..-.+
4401b310:	a0a1 a88f 9385 2cc1 227e a7e8 a936 2026     .......,~"..6.& 
4401b320:	2213 29ee 2b37 92d5 2076 224c 9930 2355     .".)7+..v L"0.U#
4401b330:	2045 a954 a91e 1a49 2266 2964 2099 22f0     E T...I.f"d). ."
4401b340:	2f35 a436 ab28 a754 3065 2b6c a1fd 9c91     5/6.(.T.e0l+....
4401b350:	ada5 28b0 aaa0 9f3f 2d13 a84e ab4e 2804     ...(..?..-N.N..(
4401b360:	2c34 2cdb a8e1 2759 2af9 1fe8 1b35 a581     4,.,..Y'.*..5...
4401b370:	b094 afbe 9a53 24db 2d61 ae32 1fd8 ad21     ....S..$a-2...!.
4401b380:	a6f2 a508 24e3 1a78 a293 1d35 9fe2 ac08     .....$x...5.....
4401b390:	ac16 a045 2917 a8be a80b 2206 2c32 2548     ..E..)....."2,H%
4401b3a0:	a165 a6eb 2961 2dbe a999 1c2e a41d 2b58     e...a).-......X+
4401b3b0:	a18f 1a01 a7c6 8f6e 2937 295c a33f 1d84     ......n.7)\)?...
4401b3c0:	10cf 2a02 286f 292e a948 ab9b 2886 a0d7     ...*o(.)H....(..
4401b3d0:	81f4 28e1 2cb0 a9ba aed0 ae96 b22f 2d41     ...(.,....../.A-
4401b3e0:	9477 a378 ac94 ac2d 2dc0 a1a7 2cc8 a653     w.x...-..-...,S.
4401b3f0:	2c17 a5bb 80f7 2391 16a6 a774 a8b7 28fa     .,.....#..t....(
4401b400:	9f2f 8aa4 2a22 9f1c 2cc1 30b7 3014 a5e5     /..."*...,.0.0..
4401b410:	a519 9a10 ab37 a634 2c50 a890 a8c6 aa0c     ....7.4.P,......
4401b420:	28e8 9760 24c3 2b30 2a55 a893 b19f 2c36     .(`..$0+U*....6,
4401b430:	2ae6 8950 ac23 a494 9af2 29f2 20e6 a6c6     .*P.#......). ..
4401b440:	2740 2c7b 2cab 20aa a55d a7a8 2766 2803     @'{,.,. ]...f'.(
4401b450:	286b a87b 2289 a261 a68a a6c7 1d25 25f5     k({.."a.....%..%
4401b460:	ad3d 2917 2179 2baf 2984 2ba7 1f4e 25d9     =..)y!.+.).+N..%
4401b470:	a57d a9ef a40e 2b24 282b a27f 2ace 2b62     }.....$++(...*b+
4401b480:	3006 a173 28fa a5b2 2472 9480 a722 2054     .0s..(..r$..".T 
4401b490:	a12f adb8 25a5 99ca 8bb0 282f aed5 ae9d     /....%..../(....
4401b4a0:	a9f3 25a7 a6e9 ad01 2cee 2e70 2d14 2d38     ...%.....,p..-8-
4401b4b0:	ab38 2fd2 99ec 2c1a a45c a38d a9bf ace3     8../...,\.......
4401b4c0:	1cf8 2c8d af22 a87b 2d1f 2be9 2d21 a62e     ...,".{..-.+!-..
4401b4d0:	ac9a a7f1 9a7b 2639 2cf9 2cb7 2129 2467     ....{.9&.,.,)!g$
4401b4e0:	25a3 2043 2aae 8f1f 29ec 2d98 25be 2950     .%C .*...).-.%P)
4401b4f0:	1c37 286d a22e 2778 284b 1b1a 2c0c a960     7.m(..x'K(...,`.
4401b500:	20e3 24d5 a7f1 a8b2 ac69 240d aaec 29c4     . .$....i..$...)
4401b510:	a949 a851 a559 a1e7 2654 28fe 2a8b a6a5     I.Q.Y...T&.(.*..
4401b520:	25d7 2027 294f 26ac ac33 a83f 9c68 2277     .%' O).&3.?.h.w"
4401b530:	a388 91f4 2356 9218 aa59 aab6 a859 ab0d     ....V#..Y...Y...
4401b540:	ab4a 26a9 956d 1eb0 2699 2808 2b74 2d45     J..&m....&.(t+E-
4401b550:	2a8e 2aaa ab1d 2cb4 2d04 ac23 27ec a8db     .*.*...,.-#..'..
4401b560:	2931 a6d7 9d9c 1d21 2c18 2a92 29b2 28c5     1)....!..,.*.).(
4401b570:	2806 2c3f a1b5 2651 aaaa 253d 9aa3 a327     .(?,..Q&..=%..'.
4401b580:	af18 aa9b ae3c aa72 aaf7 2ac8 24a4 2e75     ....<.r....*.$u.
4401b590:	2f2a 2e04 a1fb 20f0 266b 1f8f 2942 ae24     */..... k&..B)$.
4401b5a0:	299f 2e68 2605 a44f adcd a6fa 2a89 a72f     .)h..&O......*/.
4401b5b0:	20ac 2d1d a9aa a8f3 a5aa 2fb6 29eb a869     . .-......./.)i.
4401b5c0:	a9c0 a556 2957 27a8 ac3d 2ca5 2b8a 073c     ..V.W).'=..,.+<.
4401b5d0:	ae31 23dc 2c1e 9ecf ac78 b077 2b96 aa0c     1..#.,..x.w..+..
4401b5e0:	a82b 2315 31a5 22b5 a65a 2680 20a1 2e93     +..#.1."Z..&. ..
4401b5f0:	1ce0 a7b4 27e0 2c9f 2a73 ab60 ad9f ac87     .....'.,s*`.....
4401b600:	a76e ad20 1d6c a5bd adf0 abf5 2919 281d     n. .l........).(
4401b610:	a7f8 27b6 252f 2a0d 2412 2cb1 2b5f 228b     ...'/%.*.$.,_+."
4401b620:	a4cd aaa9 a642 a7eb a8fd 28ad abb7 a827     ....B......(..'.
4401b630:	a8b6 a668 aa49 2590 2b1b a2f3 ad34 2b04     ..h.I..%.+..4..+
4401b640:	2a22 a97d 20ed 22ef 20e9 a58e a935 2b07     "*}.. .". ..5..+
4401b650:	a59f 2350 1d67 a8ab a806 280f ac0c a688     ..P#g......(....
4401b660:	28ec 2ba9 2c7b a6c4 29f9 a79e 275c 19b4     .(.+{,...)..\'..
4401b670:	a8db 30e6 1e84 a0e0 a5d8 25ab ae0c ac4d     ...0.......%..M.
4401b680:	1a2d 2c39 2ca7 b075 aa62 9b82 a65d 231a     -.9,.,u.b...]..#
4401b690:	ac01 b041 a451 2737 24c2 aee3 ada4 a974     ..A.Q.7'.$....t.
4401b6a0:	2151 276c a850 25a7 2ac0 1f1e af7b 2ebe     Q!l'P..%.*..{...
4401b6b0:	2d8e 1447 2771 1fe7 a42e a78a 2c19 2829     .-G.q'.......,)(
4401b6c0:	aa3d ab0e a573 a68a 24d9 aa51 a4d0 a753     =...s....$Q...S.
4401b6d0:	2244 a17e ad8d ac1c 2198 250e ac3f a5b4     D"~......!.%?...
4401b6e0:	24e8 20d4 a157 2a98 2d77 2949 22f5 21ba     .$. W..*w-I).".!
4401b6f0:	9cfc a8bd a1fa 9610 2c68 1e66 ad44 a961     ........h,f.D.a.
4401b700:	262e 28b1 a6d6 a887 21f7 2530 ac13 262e     .&.(.....!0%...&
4401b710:	2700 2ad8 2330 2820 2913 298e add0 2a88     .'.*0# (.).)...*
4401b720:	1ecd 98f2 23b8 a8db a782 a49d 2a1c 20e4     .....#.......*. 
4401b730:	22ce 28c2 281b 2af8 ae54 abec a854 1f87     .".(.(.*T...T...
4401b740:	a93f b106 ab8c a801 25d3 2c62 247d 9ca2     ?........%b,}$..
4401b750:	a434 2532 2852 ae49 1dc4 a9c6 a8d6 28a6     4.2%R(I........(
4401b760:	9094 9a56 296b a7ab 1f7e 2acf 2287 9c82     ..V.k)..~..*."..
4401b770:	26f6 23ad 2af6 2ad1 220e a5f4 aba4 2d48     .&.#.*.*."....H-
4401b780:	ab1b a951 1511 a693 2b5b ab7f a440 9f79     ..Q.....[+..@.y.
4401b790:	29dc 2509 2480 a2d3 ab43 27cd 28b6 a82e     .).%.$..C..'.(..
4401b7a0:	2264 2694 205e 1e6b 2579 2f8c a529 ac2a     d".&^ k.y%./).*.
4401b7b0:	20ba 1ab4 abc9 abc2 a830 2850 a799 acac     . ......0.P(....
4401b7c0:	a96c a55b 2bff b01d a642 a4e2 2a0c 2b47     l.[..+..B....*G+
4401b7d0:	ac78 a902 243c 27c0 a61d 2645 2f5c 220d     x...<$.'..E&\/."
4401b7e0:	aed6 a875 3323 a734 ab77 aca0 a582 a4fa     ..u.#34.w.......
4401b7f0:	abf7 ad82 a955 acee a886 2037 a6b3 1881     ....U.....7 ....
4401b800:	2405 271b a07f a790 26de 982f 2b8d 2492     .$.'.....&/..+.$
4401b810:	9f6a 2d8c 24d4 21fb acb7 2589 28ab 9fc5     j..-.$.!...%.(..
4401b820:	28e6 ab18 23f0 a578 2808 a922 a52f 9bef     .(...#x..("./...
4401b830:	aa35 a439 a893 a0da 9f58 ab5d 1baf 2584     5.9.....X.]....%
4401b840:	2628 abda 1cef 2416 a421 a1e6 a74d a8a2     (&.....$!...M...
4401b850:	250c 244c a6f2 26ef 268c 1bc7 24fb 20d5     .%L$...&.&...$. 
4401b860:	a383 214e a8b3 aa54 a6b7 a1f8 a94a a80b     ..N!..T.....J...
4401b870:	293c 241d 24b6 a669 a53f a7ed a8ee 271a     <).$.$i.?......'
4401b880:	ac33 a113 a26d a0c5 2706 2038 2447 2410     3...m....'8 G$.$
4401b890:	ab4c 1518 a89f 95aa 2418 29e1 288b 9c44     L........$.).(D.
4401b8a0:	26ef 9c45 a8bf aba3 abc8 abb5 ac08 a5c2     .&E.............
4401b8b0:	ab11 229b 1943 a59c a8ba a1a5 a2f5 a733     ..."C.........3.
4401b8c0:	2983 1de0 25b7 aa4d a9e8 9da3 a96d 1d60     .)...%M.....m.`.
4401b8d0:	a753 28b3 2684 a41f a388 9deb 2675 a4cb     S..(.&......u&..
4401b8e0:	1f5e 2859 aa3f a02b ab16 a7aa a882 29b2     ^.Y(?.+........)
4401b8f0:	a861 2675 a906 1944 9e4d a7bd 2270 aad0     a.u&..D.M...p"..
4401b900:	2028 28e2 aaa4 1ea9 ab85 2713 2a27 160f     ( .(.......''*..
4401b910:	a5e2 a923 a85f 24d0 1e05 aa33 9f91 a9ee     ..#._..$..3.....
4401b920:	2562 22c8 a1fe 1c48 25af 236c a636 26b9     b%."..H..%l#6..&
4401b930:	a1b5 aa9e a5de a640 ab2f 93d7 a866 2797     ......@./...f..'
4401b940:	99cf ab79 aa28 a512 a30e 2742 a925 a4fe     ..y.(.....B'%...
4401b950:	1d58 aaa6 ab90 186e 9cd7 26d7 9fd1 a04d     X.....n....&..M.
4401b960:	a81d 0f7c a5d0 1b76 a180 28dd ac0f 261f     ..|...v....(...&
4401b970:	a369 a95e a7ed a34b a5fa 1abb a8ac a2e7     i.^...K.........
4401b980:	aa93 201c 2198 28a8 ab10 2092 a346 a8f0     ... .!.(... F...
4401b990:	2580 2784 1d29 a522 9440 2897 aa46 255d     .%.').".@..(F.]%
4401b9a0:	aaf0 2851 9b96 264c 1c1d 1cce a6f0 2a70     ..Q(..L&......p*
4401b9b0:	9b1a 2238 208c 26fd 259e 0e54 28a7 a966     ..8". .&.%T..(f.
4401b9c0:	9f6c 2792 84c0 9a52 a9ce 1c48 a7bf abab     l..'..R...H.....
4401b9d0:	a17e a27b 287f 24cc 28f0 2610 2178 a9f4     ~.{..(.$.(.&x!..
4401b9e0:	aa69 a09c a62b a56d 2a34 9d10 a9cb a276     i...+.m.4*....v.
4401b9f0:	a89d a614 a2a7 224d 96b4 1c47 aa1f aada     ......M"..G.....
4401ba00:	a871 1e80 aba5 a1bb a613 9928 a8b5 257b     q.........(...{%
4401ba10:	a9fe 255c 282c 1f93 1977 a4f8 2845 a4d3     ..\%,(..w...E(..
4401ba20:	24b7 a87d aaeb a410 aa70 a1bc a508 9d09     .$}.....p.......
4401ba30:	1914 2aa7 19b7 123d a040 0e4c a56c aa07     ...*..=.@.L.l...
4401ba40:	a450 a90f 2400 22e3 280a 2746 25a0 a994     P....$.".(F'.%..
4401ba50:	2871 1d39 a442 a836 a870 22ef 8d9c 2481     q(9.B.6.p.."...$
4401ba60:	2aee 2996 96b7 00fb 9898 25de 2a8e a427     .*.).......%.*'.
4401ba70:	1843 a8ef 2835 a51e a9be a8cf ab9f ab2a     C...5(........*.
4401ba80:	282f 291c ac1f aa55 2853 a983 1f09 a494     /(.)..U.S(......
4401ba90:	a3bc 9004 a9ed 23c2 ab5a a9d3 286e a9cd     .......#Z...n(..
4401baa0:	a8fb 237f 2294 0967 24c8 26c4 ac0b a97b     ...#."g..$.&..{.
4401bab0:	a30a 1cec 2561 a395 2402 a9ae ab03 a7fa     ....a%...$......
4401bac0:	a590 90ea 8bc0 a183 a9c8 a5e9 a98f a99e     ................
4401bad0:	a9b0 2a16 2654 a946 a254 aaeb 158f a8e8     ...*T&F.T.......
4401bae0:	a79f a906 a6b2 209e 2532 1c4d 26bd a9da     ....... 2%M..&..
4401baf0:	8955 2751 a5b4 161b a0b3 9d31 21e4 9fd4     U.Q'......1..!..
4401bb00:	a989 28e7 a949 25bd 290e aa6a aa31 28ba     ...(I..%.)j.1..(
4401bb10:	26aa 9b74 29e3 22c3 aabb 24e8 27b3 26ba     .&t..)."...$.'.&
4401bb20:	2109 ab56 ac3c ac52 a383 256d 206f aae0     .!V.<.R...m%o ..
4401bb30:	27a7 28e1 a91a 2890 2727 ac05 24c0 1b2e     .'.(...(''...$..
4401bb40:	9ebf 2846 25e0 a17e 21ad 9df5 ab85 a954     ..F(.%~..!....T.
4401bb50:	ac62 a2de 2425 a746 a066 ad46 a513 285b     b...%$F.f.F...[(
4401bb60:	a8bb 9f67 99ee a4de a4cb a1d0 a387 a072     ..g...........r.
4401bb70:	a8eb 2c19 20c2 2bc2 ad9c a97c a826 9c38     ...,. .+..|.&.8.
4401bb80:	a82f 9f9b 1d4c 2523 2973 a9f6 2993 2b98     /...L.#%s)...).+
4401bb90:	2c49 2c78 21f6 2170 228f a856 2c4b 271e     I,x,.!p!."V.K,.'
4401bba0:	a5d3 acc0 acac 2c0e 302a 27be 2cb2 2cde     .......,*0.'.,.,
4401bbb0:	2d70 2a4c 2c8f 24e0 a516 2b80 2689 a429     p-L*.,.$...+.&).
4401bbc0:	afc9 a27f a7f7 a5d5 1ad0 a03a a463 2b36     ..........:.c.6+
4401bbd0:	2cc1 2cdb 2ef2 24ee 170b 9ca3 28ad 295d     .,.,...$.....(])
4401bbe0:	2aa6 2761 2e2c a882 b0a1 24a6 2c96 2e28     .*a',......$.,(.
4401bbf0:	294c a851 9830 293c 2b02 2c1a 28aa ab25     L)Q.0.<).+.,.(%.
4401bc00:	227a a614 a5db ae2c 2b82 22fa 2ec3 26fc     z"....,..+."...&
4401bc10:	ac5a 2cc5 203c 2b92 a7b3 b12e 200e 2909     Z..,< .+..... .)
4401bc20:	2d73 2dbe 2f9b 2ca8 267e 2c67 2c90 2c21     s-.-./.,~&g,.,!,
4401bc30:	1d21 2c3a 24cc b1c0 aa4c 29bf 254d abb8     !.:,.$..L..)M%..
4401bc40:	a49a 9167 a540 ab10 ab0f 2de5 3038 a9ba     ..g.@......-80..
4401bc50:	ac4a aed0 a88e 1906 a943 a5b9 ae48 abb3     J.......C...H...
4401bc60:	9ca5 a8fd a15d 2c38 2823 255a a5d6 2c86     ....].8,#(Z%...,
4401bc70:	9474 2826 ac31 a779 a877 275a ac90 a669     t.&(1.y.w.Z'..i.
4401bc80:	a869 271b ad0b a49e abb3 9dca 212f a4c6     i..'......../!..
4401bc90:	2537 25c5 2b30 26b5 9c57 0c4e 22f0 a7ee     7%.%0+.&W.N.."..
4401bca0:	29d0 2ba0 2694 ad71 99b9 2a29 2f9b 2648     .).+.&q...)*./H&
4401bcb0:	ac02 2e0e 2f67 290d 2159 9c4d 2be9 298c     ....g/.)Y!M..+.)
4401bcc0:	1ecb a45d 1ffb 2521 2bde 2b82 26cb ac54     ..]...!%.+.+.&T.
4401bcd0:	ab8c 2710 2982 27df 2cc9 9f4e 221a 2c9e     ...'.).'.,N..".,
4401bce0:	2eff 2de5 9f59 adb1 ae89 aafb ad27 a8a9     ...-Y.......'...
4401bcf0:	a4b7 ae0f aaae a068 2601 268b 2b65 23f1     ......h..&.&e+.#
4401bd00:	2229 a93b a894 a877 2a0b 2699 ad28 2030     )";...w..*.&(.0 
4401bd10:	290d 1deb accc 24ee a806 a5cd a5df 2275     .).....$......u"
4401bd20:	1d81 22cc 2598 2263 9dba 0f49 26a1 2c66     ...".%c"..I..&f,
4401bd30:	2a6d 2451 287d 2f30 2d7c 2396 ae4e 18ac     m*Q$}(0/|-.#N...
4401bd40:	24e9 2882 ad2f af76 205c 2ad8 a788 202a     .$.(/.v.\ .*..* 
4401bd50:	a4db 23b6 256b 2ba0 2abe 220d a52a 2dac     ...#k%.+.*."*..-
4401bd60:	226d 2339 af52 a966 aaa7 adc9 2c02 30bc     m"9#R.f......,.0
4401bd70:	b003 1ed0 2a54 307c 96ae 9db8 250d 28f9     ....T*|0.....%.(
4401bd80:	a546 ae0c 2084 a19a aa17 2d4d 307f 2a8e     F.... ....M-.0.*
4401bd90:	2c75 2692 2a77 3071 a94b 253a a593 2b91     u,.&w*q0K.:%...+
4401bda0:	924f a7bd 19b6 a845 28ff a804 ac51 20b4     O.....E..(..Q.. 
4401bdb0:	2962 284d acbf a979 a88e 2ad2 2951 14ae     b)M(..y....*Q)..
4401bdc0:	20fc 2a97 2d12 280d 2260 acc4 2580 1752     . .*.-.(`"...%R.
4401bdd0:	2521 a88b a6bb aa38 aca8 2c71 25b3 2bc3     !%....8...q,.%.+
4401bde0:	ae63 ac37 a8d7 a7a5 202c 28b2 2641 2697     c.7....., .(A&.&
4401bdf0:	a80b a085 1968 240f 2206 28b7 25b8 2811     ....h..$.".(.%.(
4401be00:	28da 2aff 1702 2379 a0d5 ad1c 26bf 1510     .(.*..y#.....&..
4401be10:	adc6 ad8a ac26 9505 9175 a18f 250c 2b0b     ....&...u....%.+
4401be20:	a17d 1f15 a13e 241a 2d0a 2e51 a586 211b     }...>..$.-Q....!
4401be30:	a839 2af4 26b9 a3e0 a37f add0 22c0 2541     9..*.&......."A%
4401be40:	2504 ac3a 201f 2549 ab8e abe0 2b34 1f61     .%:.. I%....4+a.
4401be50:	24fd 2793 24c0 1a53 2d8a 26df 28de 15d1     .$.'.$S..-.&.(..
4401be60:	26e7 abb2 2890 aa18 9f99 1e2d ab50 aa32     .&...(....-.P.2.
4401be70:	243f 2568 a3a4 a562 2a1d a930 a8a0 998b     ?$h%..b..*0.....
4401be80:	a72e aacd abbc 22c8 1fef 2729 a245 2872     ......."..)'E.r(
4401be90:	1a7f a48f 9f28 a661 a8fd 2596 24a8 a90a     ....(.a....%.$..
4401bea0:	a79c 2892 2470 2720 aa43 ab95 270b 27ad     ...(p$ 'C....'.'
4401beb0:	9670 aac6 a48c a738 abe1 a5d2 2467 ab99     p.....8.....g$..
4401bec0:	24c5 a4bc 28c6 a61e 25ad a223 a424 26aa     .$...(...%#.$..&
4401bed0:	285d 2217 1c1e 2805 2814 25ac 283b a0e9     ](."...(.(.%;(..
4401bee0:	a02d a615 22d4 a8f2 a1a0 822a 2247 a9c8     -...."....*.G"..
4401bef0:	a55f aaec 9ed7 a468 a597 2050 220d a8cd     _.....h...P ."..
4401bf00:	2700 ab7f a8d7 aa33 ab13 a80c a259 a859     .'....3.....Y.Y.
4401bf10:	aaa4 ab31 1d6b aa3e a441 a9a0 23d1 9e07     ..1.k.>.A....#..
4401bf20:	a8f8 206d a9cd 9c74 aa58 a998 2a35 a966     ..m ..t.X...5*f.
4401bf30:	a85c aa0c 26df 2504 a8b7 a947 a5e3 9e22     \....&.%..G...".
4401bf40:	2529 abc7 273c a700 a540 a95c 23a9 a392     )%..<'..@.\..#..
4401bf50:	207c 9c5f a9e1 263f a995 ab0d a9f2 1f0f     | _...?&........
4401bf60:	a9fa 25ba a900 2043 a7b6 a0fa a95e a0ed     ...%..C ....^...
4401bf70:	a33d a79a 2863 272c a31b 894d a88f a0db     =...c(,'..M.....
4401bf80:	a9d8 aa92 25be a3bf a80b 22f6 a36e 9540     .....%....."n.@.
4401bf90:	ab0c 9f47 2842 2850 a5cc a544 aa98 2291     ..G.B(P(..D...."
4401bfa0:	99d3 a934 9dce aa41 27ec a828 aab8 a886     ..4...A..'(.....
4401bfb0:	aaf8 2223 aa8c a59c a2c5 25a9 224b 24dc     ..#".......%K".$
4401bfc0:	292d 22ec 2507 2880 15ae a899 a8a9 2643     -).".%.(......C&
4401bfd0:	a5c1 218a a848 a00c 2aed a55c a8bc 283e     ...!H....*\...>(
4401bfe0:	26ed a212 a9bc 2432 220c 2694 28a8 a452     .&....2$.".&.(R.
4401bff0:	13c0 a20b a0ca 1c05 a7de a67c 261b a48f     ..........|..&..
4401c000:	2836 a5c5 9f38 a8ad a8e9 200a a41a 2204     6(..8...... ..."
4401c010:	a404 ab14 29a3 a68b 9ee4 aab9 25a9 a556     .....).......%V.
4401c020:	a8c3 a85e a6cf a91b ab62 2109 a892 9b21     ..^.....b..!..!.
4401c030:	2196 ab65 22c9 a5dd 25e7 a80a a5c1 1d01     .!e.."...%......
4401c040:	abab a285 a04b a8fb 9fb2 1e53 9efa a191     ....K.....S.....
4401c050:	a58c 22a5 2505 abed a8f1 a535 abe0 a48e     ...".%....5.....
4401c060:	24b4 a27e 9c9b aad0 aa04 1c53 24c9 a8f6     .$~.......S..$..
4401c070:	2787 289a aa90 280a 9aee a3f1 2689 a92a     .'.(...(.....&*.
4401c080:	2892 2120 a179 aa6a ab25 a4e2 a186 275c     .( !y.j.%.....\'
4401c090:	a175 a917 a806 a9fe 29de 2a20 1fb9 9fb8     u........) *....
4401c0a0:	27be 18e0 a2e5 8a5d a7de 20d8 a11b abe5     .'....].... ....
4401c0b0:	284c 96c3 1b6c 26d4 1777 a8c3 22e2 2634     L(..l..&w...."4&
4401c0c0:	1dc9 28dc 2601 21d2 a5bf aa8c a8b3 ab65     ...(.&.!......e.
4401c0d0:	a6db a245 2763 ab27 a555 26cc a722 a9f7     ..E.c''.U..&"...
4401c0e0:	244a a995 a87d 2073 a900 270a 287f a131     J$..}.s ...'.(1.
4401c0f0:	a845 9bc5 a7bb 2549 aa91 9681 a9e1 a4c5     E.....I%........
4401c100:	a4b7 2585 26b0 261b a8ed a6c7 aa88 98da     ...%.&.&........
4401c110:	a4ca aa89 1fda 289b ab6c 1e57 95dd 9c06     .......(l.W.....
4401c120:	ab1b 2b97 2555 248b 247f ab55 26b2 1e93     ...+U%.$.$U..&..
4401c130:	a90e aad5 23a9 a880 27c5 9fe6 1137 9e33     .....#...'..7.3.
4401c140:	a973 a36d 2998 a97a a942 a811 a866 1f0d     s.m..)z.B...f...
4401c150:	2835 a8d4 aba7 2625 2588 2215 231d 23ad     5(....%&.%.".#.#
4401c160:	2164 22e1 10a6 263f 0cb7 231b aaee a8ad     d!."..?&...#....
4401c170:	a8e5 9d12 abbe 21b0 aa99 aaf4 a483 a313     .......!........
4401c180:	2653 2cab 1ec0 2799 2a93 203a 2a02 a421     S&.,...'.*: .*!.
4401c190:	2b39 2091 26ce a7eb acbf ac2e 294e 9e51     9+. .&......N)Q.
4401c1a0:	28b6 a957 ac5f a0cf 20c1 2a4f 1f89 20f6     .(W._.... O*... 
4401c1b0:	9a9a 11ee a37b acfd aab1 28a9 27ae aa10     ....{......(.'..
4401c1c0:	9a4e 1f49 30b4 2a5d 273d 2b32 262c 2400     N.I..0]*='2+,&.$
4401c1d0:	261a 9cae add2 2c0f a773 25aa 2ccc a9ee     .&.....,s..%.,..
4401c1e0:	9f87 adcc 2e64 27fc 1f0f 9c07 af57 a1f8     ....d..'....W...
4401c1f0:	2ae4 9df4 8c49 aa18 25c2 a8b4 1689 9f56     .*..I....%....V.
4401c200:	a6cc ada5 1634 aacb 25b7 1d4b aaff 243e     ....4....%K...>$
4401c210:	24a8 2a24 251c a8c5 a433 a907 a8ce afd4     .$$*.%..3.......
4401c220:	2d8e 9eec 2426 a943 227a 242f 2b40 056a     .-..&$C.z"/$@+j.
4401c230:	23c8 2cb6 24d6 2634 a622 2dc1 2e40 2d06     .#.,.$4&"..-@..-
4401c240:	2dff a0d8 2d81 a679 980f a1d4 ae79 b07b     .-...-y.....y.{.
4401c250:	b1d6 2d45 2729 285f 996d 2ce1 2d5e 24b2     ..E-)'_(m..,^-.$
4401c260:	2a81 2734 329f 2c78 a83c 1003 2e40 30d2     .*4'.2x,<...@..0
4401c270:	8c5b 2e75 971b ab66 ab44 a0b3 a250 2c4c     [.u...f.D...P.L,
4401c280:	2e23 2ed3 a8e7 89b3 a053 2921 2d60 25af     #.......S.!)`-.%
4401c290:	a983 a4a0 1536 aa31 292b 2b78 a805 aee5     ....6.1.+)x+....
4401c2a0:	a6c0 aae3 a4f0 21a9 a0ac a53c 24ed aa5f     .......!..<..$_.
4401c2b0:	a94b 9d55 2d5a 1eb7 25a4 226c 29f1 a591     K.U.Z-...%l".)..
4401c2c0:	2c09 2ab1 28f6 269e 286f 295b a8f2 2608     .,.*.(.&o([)...&
4401c2d0:	9e8d aa59 28c9 24f4 286e a73b a99b b245     ..Y..(.$n(;...E.
4401c2e0:	adab b0a7 b165 af7d 2ed7 2c2b 2b6c 2cb2     ....e.}...+,l+.,
4401c2f0:	2ae9 2f80 246d 2c96 2f07 2d6b 2d57 2924     .*./m$.,./k-W-$)
4401c300:	24cc 2d79 2981 adde a961 2b17 22f0 a2d4     .$y-.)..a..+."..
4401c310:	a0a9 2cf0 2ee8 2c9d a820 ae4a 2b48 264a     ...,..., .J.H+J&
4401c320:	1481 1d15 a905 23c5 278a 2114 0e2b 91a4     .......#.'.!+...
4401c330:	a39f 1e9a acd7 24d8 a7c2 a8c2 2c40 28ff     .......$....@,.(
4401c340:	a684 2a18 297f 2c9f a32a acea 270b 2427     ...*.).,*....''$
4401c350:	2c32 260a 1705 2208 947f a9e6 a83f 2c58     2,.&..."....?.X,
4401c360:	261d a73e 2825 2b02 270d a940 2605 ab93     .&>.%(.+.'@..&..
4401c370:	ab31 a047 9ee8 acb3 a965 ad09 aa31 2684     1.G.....e...1..&
4401c380:	2952 2947 2dc7 2e80 28cf 2ae0 2b21 2ebc     R)G).-...(.*!+..
4401c390:	2db4 9f23 2c84 a971 2cd8 09db a768 9cb6     .-#..,q..,..h...
4401c3a0:	a9bf 19ff a575 2684 9d6e 3002 a746 ad19     ....u..&n..0F...
4401c3b0:	ab82 1cbc 281e 2a06 b32b ad9f aabc 205b     .....(.*+.....[ 
4401c3c0:	1f9d 2885 9e39 ad20 2360 2c1a 2eff a521     ...(9. .`#.,..!.
4401c3d0:	1672 a581 aaf4 2dff 2b0c 9971 2c94 2c56     r......-.+q..,V,
4401c3e0:	2421 a701 1503 255a 295b a09a 9b6f 269d     !$....Z%[)..o..&
4401c3f0:	a7c2 24d9 233c 2bfe 2b53 2037 ab69 a770     ...$<#.+S+7 i.p.
4401c400:	ac4e 98db 1d1b 2a0d a5f5 2c4d a145 1e5c     N......*..M,E.\.
4401c410:	2bdd 2914 246b a938 2603 a12b 2459 ad30     .+.)k$8..&+.Y$0.
4401c420:	14c9 acb2 a98d a9b3 a89d 209a 2085 ae1f     ........... . ..
4401c430:	adbd aa78 aade a925 28d8 aa29 2c08 2e2e     ..x...%..()..,..
4401c440:	229f 2e88 2feb ab07 abbc ae05 282c 25c7     .".../......,(.%
4401c450:	b0ca a908 ac03 ac36 ae35 a91a 9e0d 2b3f     ......6.5.....?+
4401c460:	acdb a97e 3000 1edd 29fb 9d07 a537 a7d1     ..~..0...)..7...
4401c470:	a7b3 9d24 2cf5 24fb 20d6 2b01 a123 9756     ..$..,.$. .+#.V.
4401c480:	19d6 2b7f aaa9 a87a 249c a9f9 2a6e a4c0     ...+..z..$..n*..
4401c490:	0aea 246a 2aa5 a7fe a1b4 a52b 1599 1c30     ..j$.*....+...0.
4401c4a0:	2b03 a7e8 a4da 2676 2176 2ca9 a47f a75b     .+....v&v!.,..[.
4401c4b0:	2bca 2b78 2b6b a484 272f a9fc 2872 85ad     .+x+k+../'..r(..
4401c4c0:	271b 26ba 2b5f 27b1 253f ad17 a675 20d9     .'.&_+.'?%..u.. 
4401c4d0:	1860 1f91 29d0 27de 2cbc 312a 2b0d 2403     `....).'.,*1.+.$
4401c4e0:	a4b4 2fae 2cb4 a164 a503 a612 2ee4 2408     .../.,d........$
4401c4f0:	2768 9cfb 2477 ab81 ad81 2876 2ac3 29f3     h'..w$....v(.*.)
4401c500:	29a5 2405 2af5 204f ae4b af19 a84d 2b78     .).$.*O K...M.x+
4401c510:	2518 20e2 ae98 294d 2356 2af8 a074 1b2d     .%. ..M)V#.*t.-.
4401c520:	20f0 1d6f 2590 a491 2338 2f9d 22a6 88bd     . o..%..8#./."..
4401c530:	a6ac 27d7 aa67 a9f7 24e3 21e8 2f7b 300f     ...'g....$.!{/.0
4401c540:	aafc 2a41 a967 2d82 3195 2d0b 2bb8 a340     ..A*g..-.1.-.+@.
4401c550:	2f31 3045 2ded 3037 2813 a86a a978 2ece     1/E0.-70.(j.x...
4401c560:	2c68 99a1 ab26 ae2b 94dd 2841 2557 2ace     h,..&.+...A(W%.*
4401c570:	3223 1efc 23e7 a7d8 3112 3253 26f7 2171     #2...#...1S2.&q!
4401c580:	2548 3185 3035 2dc6 269a 2567 a658 b28c     H%.150.-.&g%X...
4401c590:	2ff0 2c66 2ae1 a8b6 b1ea 2c20 21c3 2727     ./f,.*.... ,.!''
4401c5a0:	2495 a94b 298f 9f92 2c81 2c99 acc0 abf2     .$K..)...,.,....
4401c5b0:	18b1 a231 ac5e aba0 ae48 2284 a1ca 2bad     ..1.^...H.."...+
4401c5c0:	30b3 a7cf 2881 993e 29e8 2d2f a7a9 2898     .0...(>..)/-...(
4401c5d0:	2704 1e3e 24a8 9dc2 ab67 a033 271a 26dd     .'>..$..g.3..'.&
4401c5e0:	235d 25bd 281a 2b9e 14f1 2c94 2721 29cd     ]#.%.(.+...,!'.)
4401c5f0:	a6ec a944 2d0d 22c1 244b ac16 a8c9 2ef7     ..D..-."K$......
4401c600:	279d a761 2adc 2c3b 252a 2aea 28e9 292f     .'a..*;,*%.*.(/)
4401c610:	2811 2940 2d50 aac5 2851 a55e 32d9 2c1f     .(@)P-..Q(^..2.,
4401c620:	1ddf 21e1 ac86 3018 304e 28ea 1e5c 280d     ...!...0N0.(\..(
4401c630:	2f9b 2642 20a4 ae05 adf5 299a 281b a962     ./B&. .....).(b.
4401c640:	254b a921 2c9d 25c6 1b65 ad2a 21ea 9c55     K%!..,.%e.*..!U.
4401c650:	ad2d 2795 2718 2fb6 a977 aaa1 acb2 28e3     -..'.'./w......(
4401c660:	2363 a3b7 a4c4 ac1f a509 2994 2e40 a00e     c#.........)@...
4401c670:	a240 ac17 20a8 2df7 aaeb a88d 2d6f 2ffc     @.... .-....o-./
4401c680:	217c a8a3 288b 28fd 1c13 ac83 a7b0 16e0     |!...(.(........
4401c690:	9a9c a47b aa52 2aa2 2c89 2a4a 2a71 1f9a     ..{.R..*.,J*q*..
4401c6a0:	a3f1 a47b 2ddd 3019 1b88 9a0e a4f6 243d     ..{..-.0......=$
4401c6b0:	1dd0 2750 29a9 a100 ac44 b025 2ce5 2d17     ..P'.)..D.%..,.-
4401c6c0:	274f a1ec 9d55 1eb8 ae25 ab93 ae00 28b5     O'..U...%......(
4401c6d0:	28f5 abf9 2774 ace1 aa12 25ef 2cc2 a0a9     .(..t'.....%.,..
4401c6e0:	2854 3159 2d00 2947 a808 2e8e 3206 a06a     T(Y1.-G).....2j.
4401c6f0:	a681 a1a7 ab97 a991 2d8b a1e9 9f7f 9eef     .........-......
4401c700:	2857 2994 a82d a833 a9c0 2a54 a5a7 2211     W(.)-.3...T*..."
4401c710:	2600 164e 2cc9 2692 a808 2412 2272 24fc     .&N..,.&...$r".$
4401c720:	a427 288a 24ac 2af3 9128 2d10 2a44 a551     '..(.$.*(..-D*Q.
4401c730:	22fe a593 2824 26fc 2ab7 21de a884 2514     ."..$(.&.*.!...%
4401c740:	a4d7 2cf5 1f15 2b57 ab05 a652 a44a 9887     ...,..W+..R.J...
4401c750:	2b26 aed3 a97b 259b 2085 2e59 3052 2fe6     &+..{..%. Y.R0./
4401c760:	28d0 19d8 2a18 2f2e 243f 2717 2419 2565     .(...*./?$.'.$e%
4401c770:	acee add4 2c65 1e5a 2531 b0a4 a958 2711     ....e,Z.1%..X..'
4401c780:	a786 a30a b0d4 b103 9ec7 2c76 2956 2dc3     ..........v,V).-
4401c790:	2bad 21b7 281f a82a a825 27fa a73d a550     .+.!.(*.%..'=.P.
4401c7a0:	aa16 2802 a901 a7be a6ad 2dff 2558 a7b7     ...(.......-X%..
4401c7b0:	28db 289f 2ce3 ab62 254b 2187 a348 1f78     .(.(.,b.K%.!H.x.
4401c7c0:	2891 25ff 2a9b 22ba 2e37 244f a6ac a0db     .(.%.*."7.O$....
4401c7d0:	2b98 2bff 25fb 1673 99b0 a62a 2a9d 28ae     .+.+.%s...*..*.(
4401c7e0:	2a09 2616 287a 17f4 26d4 277e a242 9ff7     .*.&z(...&~'B...
4401c7f0:	a852 ae00 ada3 2b5c 2da4 30a8 9d1e a7a6     R.....\+.-.0....
4401c800:	2724 27b4 2e60 1835 aa39 a087 a1a2 a81e     $'.'`.5.9.......
4401c810:	aa11 21c6 aa87 a882 241c 2163 244e 29a0     ...!.....$c!N$.)
4401c820:	1cb7 aa6d 31a9 a967 ae3d b176 ae21 3049     ..m..1g.=.v.!.I0
4401c830:	22ce 9324 ab72 20db 2561 a4e9 aab4 250e     ."$.r.. a%.....%
4401c840:	2a88 2ace 2865 1f4c 2c37 2cd1 200e adc8     .*.*e(L.7,.,. ..
4401c850:	2525 2b5d a00d ac54 ae32 aaa7 2bd1 2182     %%]+..T.2....+.!
4401c860:	a41e a8f6 a1d8 22ac 3192 a5f1 a90e 99f7     .......".1......
4401c870:	2bcc a204 29c4 9542 a4c0 a887 ab66 217e     .+...)B.....f.~!
4401c880:	2862 a6b5 2cc1 ab1d a9c8 ab6a ad21 2913     b(...,....j.!..)
4401c890:	2e1c acd0 a8ab 26f1 2af4 345b a8a8 28dc     .......&.*[4...(
4401c8a0:	a5b4 2d50 1b56 1d9d 280d ac83 2947 a4f3     ..P-V....(..G)..
4401c8b0:	2af7 2222 a771 28dd ac74 a116 2d39 2fd6     .*""q..(t...9-./
4401c8c0:	2cb4 aa66 2c22 9da1 255f 2a38 a4f2 abec     .,f.",.._%8*....
4401c8d0:	acae 2c56 2895 29b0 0247 2938 2b54 2a53     ..V,.(.)G.8)T+S*
4401c8e0:	29aa a2c4 2737 a22b a764 a9a2 a8f6 adb8     .)..7'+.d.......
4401c8f0:	195b 2ca4 9b7f a64c a72e 2b08 2d93 a4ed     [..,..L....+.-..
4401c900:	abc7 ab25 29a8 2625 a52d 291a acca 260f     ..%..)%&-..)...&
4401c910:	a2bb a318 2a34 2466 2a9a a8bf 24f5 a607     ....4*f$.*...$..
4401c920:	a981 ae29 2b89 291f af18 9ecc a58c 2d75     ..)..+.)......u-
4401c930:	2c43 ac0b 2725 1a38 194d a751 24bd a925     C,..%'8.M.Q..$%.
4401c940:	22e4 a7df a9a1 a2eb a81a 214d 9d03 2376     ."........M!..v#
4401c950:	308a 30f7 2dcf abe7 adc5 2f57 2d62 2b4c     .0.0.-....W/b-L+
4401c960:	a10c acc5 2ca1 249a a2f8 a644 2b7d 2a5b     .....,.$..D.}+[*
4401c970:	a5c2 a904 a462 2944 aa23 a810 24a4 ac4a     ....b.D)#....$J.
4401c980:	2a4c 2d44 2a99 ac08 a08f 2609 2c24 163f     L*D-.*.....&$,?.
4401c990:	9c00 9c31 20fb a467 a0af ab77 226f 2cab     ..1.. g...w.o".,
4401c9a0:	9cf5 a83c ac36 a644 2bf7 2619 2007 a04a     ..<.6.D..+.&. J.
4401c9b0:	9ad7 27db adaf a247 a83d 2c65 30e7 a434     ...'..G.=.e,.04.
4401c9c0:	aa28 a56c 2c21 2e1a acb0 a268 203e 2bdc     (.l.!,....h.> .+
4401c9d0:	2b4d 22ce ab61 a89d a997 a84d a5c0 9ed8     M+."a.....M.....
4401c9e0:	27dd 2a20 2b3c 1c7e 254c a8ee adda ae48     .' *<+~.L%....H.
4401c9f0:	9fbf a44b 2f2b a23e ac84 245a 2c72 2d76     ..K.+/>...Z$r,v-
4401ca00:	20c5 2f48 a9eb 27b1 a89c a6c3 2a5d ad95     . H/...'....]*..
4401ca10:	aa20 aa8e 1cd2 a81f 2e03 1e32 2ba9 2585      .........2..+.%
4401ca20:	2a22 a6b5 9abe abb6 01f3 2ce9 1daf 2662     "*.........,..b&
4401ca30:	a677 a2de 2cb2 191e 289a a2ae a79c 2b22     w....,...(...."+
4401ca40:	26d0 a719 1d64 a618 2482 a41c 246d 2927     .&..d....$..m$')
4401ca50:	2323 9a96 28f7 28e4 2603 1fc8 a5f5 ae50     ##...(.(.&....P.
4401ca60:	201b 2a52 a9ad 2c93 9eee a9bd 28b9 25a7     . R*...,.....(.%
4401ca70:	29a7 a1b8 a923 a5a6 2435 2730 30c9 2d18     .)..#...5$0'.0.-
4401ca80:	a6fb 295c 98aa 2204 ad0e aea1 a643 a888     ..\)..."....C...
4401ca90:	a478 a89d 176e 1dab 2975 a4cb aaaa 2b38     x...n...u)....8+
4401caa0:	2429 994c a442 220d a7d9 28e4 2249 2c9e     )$L.B.."...(I".,
4401cab0:	a361 2563 2382 a40d a416 a73f 2c0d 2c70     a.c%.#....?..,p,
4401cac0:	29d5 1808 1c49 29e9 2a8f 1ee6 2325 a8f1     .)..I..).*..%#..
4401cad0:	21a4 a430 28e4 a9fd a091 2976 27ef 275b     .!0..(....v).'['
4401cae0:	2ae1 a56f a898 a013 a578 188c ac2b aaaf     .*o.....x...+...
4401caf0:	aa0d aa84 a92f ac7d ad13 ac0c a8fc 269d     ..../.}........&
4401cb00:	2935 a9d4 2498 1ed9 2569 2d00 229a 23c3     5)...$..i%.-.".#
4401cb10:	2b26 abff a472 2bc9 aa4d a320 a7ed a652     &+..r..+M. ...R.
4401cb20:	9540 21f9 a556 28f6 24bf acde 23cc 2c13     @..!V..(.$...#.,
4401cb30:	a9aa 2daf ab34 a80a 147e 2a95 2123 ab16     ...-4...~..*#!..
4401cb40:	a8f8 ab4d 1b47 287b 2f66 2869 9a5c 2a1c     ..M.G.{(f/i(\..*
4401cb50:	2fb7 2e2c 28ef a3bd 3025 2e37 2820 ad44     ./,..(..%07. (D.
4401cb60:	ac8c a458 ab70 a1d9 257a a71d a959 a864     ..X.p...z%..Y.d.
4401cb70:	aabe 1e5f 9edb 2606 2828 2e47 ad52 a5d3     .._....&((G.R...
4401cb80:	211e 2ad0 274d a798 b036 a5d3 271a 2d1e     .!.*M'..6....'.-
4401cb90:	2c3b add0 24af 2548 3083 280b 2aab a184     ;,...$H%.0.(.*..
4401cba0:	2a6d 1db9 a8f5 aa40 2d74 2be7 2c45 2936     m*....@.t-.+E,6)
4401cbb0:	af71 1cd7 2d1a 2ef9 2753 b237 260d 1d65     q....-..S'7..&e.
4401cbc0:	2e0d 2859 2bf7 28c7 2e2b 2c1b 25ea 2b19     ..Y(.+.(+..,.%.+
4401cbd0:	9e4b 2cfc ac30 b265 a8ed a8a5 ab2d a572     K..,0.e.....-.r.
4401cbe0:	1ea6 2550 9d19 a4c1 ac0c 9625 2ac7 23a7     ..P%......%..*.#
4401cbf0:	aea0 ad83 a3e9 a9d5 a586 aa67 ab63 a8bf     ..........g.c...
4401cc00:	a652 1e53 a498 2a2d 2879 2d85 a979 a44e     R.S...-*y(.-y.N.
4401cc10:	2076 9b28 208c 26c2 2699 1875 a93a abc3     v (.. .&.&u.:...
4401cc20:	a969 a8af aa88 a94d a9da 2a88 2815 2833     i.....M....*.(3(
4401cc30:	a205 249d 98e3 a730 9b5b 292f 2865 1f9a     ...$..0.[./)e(..
4401cc40:	2e30 2d10 2c3c a571 2f80 2937 2693 a8d6     0..-<,q../7).&..
4401cc50:	aaa9 2f0d 05dc 2bbe 1bf8 28ea 1eea abd8     .../...+...(....
4401cc60:	a72a 8ac6 26f8 aae8 a191 2b08 a729 23c6     *....&.....+)..#
4401cc70:	a840 a1ee 2ba7 2aa9 2e36 245d 1dc3 2963     @....+.*6.]$..c)
4401cc80:	3003 2805 2803 adca aa6d ac34 a9bd ac79     .0.(.(..m.4...y.
4401cc90:	af21 b0ad ac91 aa29 2585 2b80 15b5 2b73     !.....)..%.+..s+
4401cca0:	2a48 24bc 2649 2b07 2bb2 aeed 2bca a856     H*.$I&.+.+...+V.
4401ccb0:	2ac0 a6f2 acfb 265f 9965 2940 aa72 a820     .*...._&e.@)r. .
4401ccc0:	acbc 9de3 28dd 9311 a88c 1c04 2ab0 2e7b     .....(.......*{.
4401ccd0:	20ce 221a a159 2cb9 2c32 a591 ae75 1142     . ."Y..,2,..u.B.
4401cce0:	2c5a 2d60 299d a488 1dd8 2547 aad8 2ca8     Z,`-.)....G%...,
4401ccf0:	2a37 1f04 2007 2cad a938 26e9 24c2 2701     7*... .,8..&.$.'
4401cd00:	a526 ac79 acb3 a8dc 2a56 20aa 286b 1563     &.y.....V*. k(c.
4401cd10:	a922 2aeb 27f3 2d10 aa92 27d1 aca9 aa54     "..*.'.-...'..T.
4401cd20:	2716 acdc ac0a b012 9c6b 28a7 2b64 10fc     .'......k..(d+..
4401cd30:	26e5 2e20 2a70 2cb3 ac8f 24f7 a8f8 244d     .& .p*.,...$..M$
4401cd40:	2262 a8bc 203e 25cb 29fe ac0f a061 2729     b"..> .%.)..a.)'
4401cd50:	24fb ad8d acf0 ab9a 285e 25af 2868 20a7     .$......^(.%h(. 
4401cd60:	a76a 2840 2a0f 2aea 2aef 9e4a 2897 a137     j.@(.*.*.*J..(7.
4401cd70:	29e6 a6ad ac1a ae50 ae13 a8d5 24dc a7e6     .)....P......$..
4401cd80:	aeab aa7e aaf0 1967 ac84 1932 1e94 a783     ..~...g...2.....
4401cd90:	a1a9 14c9 2cd5 2c47 2f06 2cd6 9a4b 9c77     .....,G,./.,K.w.
4401cda0:	aa35 289c 2471 a794 abde b07a a8c1 2cfa     5..(q$....z....,
4401cdb0:	ab64 ae8e ac6d a96f a323 8a17 2731 27ac     d...m.o.#...1'.'
4401cdc0:	2979 a9b8 a34b 2e91 30df 2e4e 2d24 1964     y)..K....0N.$-d.
4401cdd0:	9012 a48a a524 ab15 abb3 aca8 a81a 1381     ....$...........
4401cde0:	26dc 1d00 a701 a0f3 a81e a765 a57f a5df     .&........e.....
4401cdf0:	ad8f 2209 a54d 2cbd 297b 2dc6 2887 276b     ..."M..,{).-.(k'
4401ce00:	24c1 9bad a917 a5e0 a8e1 a984 a61f ab89     .$..............
4401ce10:	2717 2570 a830 2539 9b56 9f64 24d9 ab15     .'p%0.9%V.d..$..
4401ce20:	a9d0 a5a8 a569 21d8 2149 a551 a354 24fd     ....i..!I!Q.T..$
4401ce30:	222a 2110 29eb a5d1 2291 2690 2324 267d     *".!.)...".&$#}&
4401ce40:	0420 a125 240b a70c 278d a8cf a055 aac6      .%..$...'..U...
4401ce50:	ab45 24a0 2ad0 a700 a321 1cbb 220c a1ab     E..$.*..!...."..
4401ce60:	215f 2626 ab7d a981 a762 a9a3 aa86 a9e8     _!&&}...b.......
4401ce70:	2881 281a a661 25b7 ab44 a9fd a2ee a949     .(.(a..%D.....I.
4401ce80:	aaf7 a148 2803 1c17 2201 a6ab a6a6 26ef     ..H..(...".....&
4401ce90:	1739 2874 249d 9289 a4ec a4a6 2366 a810     9.t(.$......f#..
4401cea0:	28b8 27d5 2218 a8c1 a927 285d 1d88 21ca     .(.'."..'.](...!
4401ceb0:	22ac a9bf a556 a729 a19b 2884 abcf 28a9     ."..V.)....(...(
4401cec0:	2b1d a08f 9a77 28b8 220c 25b7 a961 a7a2     .+..w..(.".%a...
4401ced0:	a6c8 1c25 a206 a887 213b a6a8 28da aa8f     ..%.....;!...(..
4401cee0:	9c97 97a3 aa61 281b a85e 9b5d a230 ab61     ....a..(^.].0.a.
4401cef0:	2b87 1cd1 1cd0 a8e6 9c38 a10a a9b6 1700     .+......8.......
4401cf00:	a8c5 a9ea 25bc a56c 2226 ab5a aaa8 a271     .....%l.&"Z...q.
4401cf10:	9a16 ab02 aa04 a859 2898 1c3f aa7f 1a23     ......Y..(?...#.
4401cf20:	22c2 a826 9d3b 24ea aab6 abed 2894 abe3     ."&.;..$.....(..
4401cf30:	a61c 2899 278b a99e 2829 285b 9f51 24ff     ...(.'..)([(Q..$
4401cf40:	a53a 295a abdf a89d 2857 1679 1f70 a03c     :.Z)....W(y.p.<.
4401cf50:	a8c7 a9e0 a651 a936 22f3 27c7 2792 a77a     ....Q.6..".'.'z.
4401cf60:	a614 ab66 26e2 9e76 0545 28ca 183d 2482     ..f..&v.E..(=..$
4401cf70:	2536 1776 a69e a8b4 a526 286b a49c a680     6%v.....&.k(....
4401cf80:	2509 2955 221c 25c0 9b17 a008 ab52 ab1c     .%U).".%....R...
4401cf90:	2866 aa71 a614 a49c 1eb1 19fc a9ef 2691     f(q............&
4401cfa0:	21ec a4d8 2069 298a a48a 2871 a8b0 ab43     .!..i .)..q(..C.
4401cfb0:	a9cc a888 980e a74e a3ce a5a6 a667 25e1     ......N.....g..%
4401cfc0:	1027 1ed2 244e a9a7 abe9 2230 a393 a41c     '...N$....0"....
4401cfd0:	a8ac 1c5c 9527 a7ce 10cc a679 20f7 a867     ..\.'.....y.. g.
4401cfe0:	27e0 283f 28ba a717 26ac aaaa a650 aa4a     .'?(.(...&..P.J.
4401cff0:	285c 8c64 a838 aa06 21ab 23e5 252c 282e     \(d.8....!.#,%.(
4401d000:	a2db 270a 11f9 28b7 ab71 a1ca 9e0b a9e2     ...'...(q.......
4401d010:	246d a22e a427 a887 aa1b 281e a1ef 1b72     m$..'......(..r.
4401d020:	1930 25c7 27c1 aaa6 a2f2 a4eb a6c6 ab38     0..%.'........8.
4401d030:	a97a 2298 aa2e 9ed5 2983 27e9 2609 23a1     z..".....).'.&.#
4401d040:	256c 26f3 aa40 2a05 29ca 2662 a88d 18ca     l%.&@..*.)b&....
4401d050:	aa11 a690 a89b a968 2898 9e0f ab95 a31e     ......h..(......
4401d060:	aa5a 27f0 2604 2ae3 a1e0 1721 9cb9 a4c6     Z..'.&.*..!.....
4401d070:	a849 a7ea 2361 282c a6b8 2046 1a71 28b2     I...a#,(..F q..(
4401d080:	2764 2413 a071 a606 ab1d 2751 a501 a69e     d'.$q.....Q'....
4401d090:	1d97 243d a90c 99f3 aac4 28c5 a9be 27c5     ..=$.......(...'
4401d0a0:	2616 9e39 2260 a923 aacf aa3f 2354 aba4     .&9.`"#...?.T#..
4401d0b0:	a894 9f48 2880 a57e aa08 9e43 a7e5 a8a7     ..H..(~...C.....
4401d0c0:	9268 27a8 2854 2458 aad7 a9bf a9df 9d8d     h..'T(X$........
4401d0d0:	265e a845 a5d0 1342 9aae 2639 2358 21b6     ^&E...B...9&X#.!
4401d0e0:	a58c 9603 2748 26fd 9fe0 a444 29cf 288f     ....H'.&..D..).(
4401d0f0:	963a 9e91 2856 a7e1 1b0f a859 a751 2397     :...V(....Y.Q..#
4401d100:	a952 270a a24f a886 aaf4 a955 2540 2845     R..'O.....U.@%E(
4401d110:	a8a9 a937 2970 134f 248d 1e03 290a aacb     ..7.p)O..$...)..
4401d120:	2d6d a10c 17be 27b0 2b85 2c3d 2d5d 2b69     m-.....'.+=,]-i+
4401d130:	2b86 289b ab12 2445 9941 a091 28ed a860     .+.(..E$A....(`.
4401d140:	a600 925e 29b9 aabb 2b1f a0f1 221b 26c6     ..^..)...+...".&
4401d150:	ac62 2af9 27c7 a2b2 275b 9e5d 9d84 a6ae     b..*.'..['].....
4401d160:	29c4 194c a4be ac16 2940 24e8 aa8f a8e8     .)L.....@).$....
4401d170:	aa7c a6aa 2c96 a619 2777 a95c a179 2a87     |....,..w'\.y..*
4401d180:	2bfd abeb 25c4 ad1b ab74 a8fb 2812 2c14     .+...%..t....(.,
4401d190:	2897 2157 23aa 2cc2 2c0b a7a1 1c53 2c1c     .(W!.#.,.,..S..,
4401d1a0:	2c0f 31d7 2e43 2a83 22e5 a870 2c94 aabc     .,.1C..*."p..,..
4401d1b0:	a942 2cb7 2645 a57e aad8 ad85 27ef 2f12     B..,E&~......'./
4401d1c0:	ae3a adce 26c1 2a5f 2c24 aebe ac82 23b4     :....&_*$,.....#
4401d1d0:	a649 af7c a818 26b3 a862 a073 ad12 241f     I.|....&b.s....$
4401d1e0:	99d8 2957 3013 92f8 a8cb afef ae72 2e58     ..W).0......r.X.
4401d1f0:	32dc adcc ac6a 2515 2b92 24c3 abc5 1794     .2..j..%.+.$....
4401d200:	2463 a7ac b3dc a401 22ba ab35 212f af9d     c$......."5./!..
4401d210:	a9fe 271d 2c5d 2f54 2d9c 2cde 2cad 2beb     ...'],T/.-.,.,.+
4401d220:	2e02 245d 2f96 26e2 2869 2cb8 2852 2b5a     ..]$./.&i(.,R(Z+
4401d230:	29f8 2c33 2d4c 2d1e a503 98b9 24e6 2964     .)3,L-.-.....$d)
4401d240:	2f12 9c8a acd3 ad7f aa0c 9c6d 2642 a920     ./........m.B& .
4401d250:	aa51 a716 a780 15ef a0e6 2c0c a7f6 248e     Q..........,...$
4401d260:	acaa a8b6 2d63 9a82 a831 1cf6 a26a 28e5     ....c-..1...j..(
4401d270:	227a aa02 2713 2294 2391 21f9 a95e 9caa     z"...'.".#.!^...
4401d280:	a744 a792 9cc5 2b27 afc1 2886 28ec 2544     D.....'+...(.(D%
4401d290:	2bc5 aed5 2d0d 2a79 281e 255e aeac 247b     .+...-y*.(^%..{$
4401d2a0:	2545 ad22 a481 2683 277d a0bc 2467 a4ca     E%"....&}'..g$..
4401d2b0:	2c5b 2f7c 2929 2a06 ae3f 2d1f 2d12 2629     [,|/)).*?..-.-)&
4401d2c0:	2d12 2b25 2c15 2a85 2bb1 1f1d 2888 2d49     .-%+.,.*.+...(I-
4401d2d0:	9d0f a47d 2185 a254 aabb 9d8a a777 a9cc     ..}..!T.....w...
4401d2e0:	9e8d 2e3d 1c24 aa2c 2960 2eb5 2777 2cb4     ..=.$.,.`)..w'.,
4401d2f0:	a691 9832 2da6 2713 9975 2776 a75d 2367     ..2..-.'u.v'].g#
4401d300:	21a6 297b 9f1e 2506 a026 278b a4b4 19be     .!{)...%&..'....
4401d310:	2019 2409 a9fc a82f 1ab0 29c4 2f0e a964     . .$../....)./d.
4401d320:	a3be 97cd a763 a54f abe1 a620 921d ab83     ....c.O... .....
4401d330:	acdd ac5b a969 a56a a5cb a462 a3cf 2796     ..[.i.j...b....'
4401d340:	2e4d 20b9 2821 2419 28f1 ac5b ad4a 2b49     M.. !(.$.([.J.I+
4401d350:	2195 22ab a633 23b3 31b8 28cf 2693 253e     .!."3..#.1.(.&>%
4401d360:	a1db 1e88 2c4f 3007 9daa a2bd ae92 a9ec     ....O,.0........
4401d370:	2875 285a 26e7 a77c 2e00 2e3c 288c a921     u(Z(.&|...<..(!.
4401d380:	200f a63b 2c43 2506 1b95 2a7f a7c8 a641     . ;.C,.%...*..A.
4401d390:	273b 295c 29dc a7d1 abe6 a37f 28e0 9d2b     ;'\).).......(+.
4401d3a0:	9d6c a5bb 27f7 a9a8 a853 2884 2ba0 29df     l....'..S..(.+.)
4401d3b0:	1f9b a0de 2229 1dad 2954 a887 247c ad02     ....)"..T)..|$..
4401d3c0:	a105 29c9 293d 2d06 a281 a573 20fe 287f     ...)=).-..s.. .(
4401d3d0:	20af 28da ab86 a636 abf3 ac25 2ebc 30f9     . .(..6...%....0
4401d3e0:	2d40 a36a ab81 2be9 a06b 29bc ad1a ad9c     @-j....+k..)....
4401d3f0:	2bff 9c61 2850 2945 2f73 31d0 a5a1 abfa     .+a.P(E)s/.1....
4401d400:	266f a964 2e79 a288 af82 a5f5 b07b 2d52     o&d.y.......{.R-
4401d410:	2ab9 2c50 2c42 28b3 28ff 286f 2a78 2aa9     .*P,B,.(.(o(x*.*
4401d420:	1ff3 2b89 2e44 a3ed 2464 2683 ab34 a6a8     ...+D...d$.&4...
4401d430:	a198 a9fa aa04 ab20 2896 1ec9 acff ac3c     ...... ..(....<.
4401d440:	25f3 ac7b abbe 1e33 a998 89d6 a687 a540     .%{...3.......@.
4401d450:	a855 a0c9 a9fb 1ef1 9f25 1591 a4ee 9dad     U.......%.......
4401d460:	ac7c 1be0 9e93 a98a 296f 1cd5 195c aa1b     |.......o)..\...
4401d470:	200e 267f a56c aa2a aba8 2884 ac19 aa3f     . .&l.*....(..?.
4401d480:	1ce8 ac42 ab2c a8a4 aa5c a507 a911 a87d     ..B.,...\.....}.
4401d490:	a269 ac10 ab56 ab22 a9c9 2248 ad40 ac89     i...V."...H"@...
4401d4a0:	ae00 aaf4 1e52 a84d a644 2bb4 ac8d a825     ....R.M.D..+..%.
4401d4b0:	2455 ab64 aa4a a8a5 2d7e 1c28 1d97 a01a     U$d.J...~-(.....
4401d4c0:	2532 a03e a558 a928 aa7b aa37 27f0 2c6c     2%>.X.(.{.7..'l,
4401d4d0:	a7f0 aab8 a163 2852 a249 a866 adbd 28f1     ....c.R(I.f....(
4401d4e0:	245d a05f acab ab8e a81f ad83 a884 a9fe     ]$_.............
4401d4f0:	a65e a73d ace4 a98a ab38 a7a3 a8a5 2682     ^.=.....8......&
4401d500:	a5bb 9274 25e2 a9c5 1ad7 ac16 a999 9782     ..t..%..........
4401d510:	a553 a630 9512 a9db 24a1 a074 adfb ab0d     S.0......$t.....
4401d520:	aaf2 ac81 a746 aad7 21ee a1a9 aa50 9e63     ....F....!..P.c.
4401d530:	ab25 a95a ab15 a99d a933 aeae adbd 22c4     %.Z.....3......"
4401d540:	95fc a22f 24c0 27d7 29df a7c1 ac8b a89a     ../..$.'.)......
4401d550:	1df6 1d2e 0888 238c a213 ac4c a8ab a7bf     .......#..L.....
4401d560:	a7c9 a851 ac76 a27c a9bb ac03 a5dc 1f3e     ..Q.v.|.......>.
4401d570:	aa51 265d ad17 ac86 0c2d ae72 26d3 a9ef     Q.]&....-.r..&..
4401d580:	a811 117c a82f a93f ab5b 26db acbb 1d9c     ..|./.?.[..&....
4401d590:	1a8d 2737 a7a0 a94e ac1d 99fa ae26 a51d     ..7'..N.....&...
4401d5a0:	2874 ac05 aca6 2500 aa7a a613 a29a af9f     t(.....%z.......
4401d5b0:	1b98 a580 1fb8 ac86 1d95 a9c0 a89d 9f2f     ............../.
4401d5c0:	a89c 29fb a119 a9da ac9d 22c9 23a3 a9da     ...).......".#..
4401d5d0:	a5d5 a6bc ad53 28c9 a7a4 a4c1 21e3 a968     ....S..(.....!h.
4401d5e0:	2557 a84c 175f 2752 2b08 2817 a096 a86e     W%L._.R'.+.(..n.
4401d5f0:	a272 a609 25b2 a94c 2a28 a1eb 257f a7ec     r....%L.(*...%..
4401d600:	153c a9ff a592 22b6 24f3 a8ad a801 29cc     <......".$.....)
4401d610:	a298 aa7e 9df8 a957 a23e a8e6 a919 ab46     ..~...W.>.....F.
4401d620:	ac6b 1dc3 a457 aaad a9b7 ab4a 2a1f 9f76     k...W.....J..*v.
4401d630:	abf3 216c ac53 2779 aa18 a9bc 2342 a544     ..l!S.y'....B#D.
4401d640:	acfa a7b4 a81f a5d7 a7d3 ae31 aa61 148e     ..........1.a...
4401d650:	ab17 ac97 8db1 abc5 1cdc 282e adf8 9d55     ...........(..U.
4401d660:	ae31 ae36 24f2 aac9 a840 a9f7 a83d aac9     1.6..$..@...=...
4401d670:	28f2 2af5 a298 1ecb a783 97e4 a57b 27a0     .(.*........{..'
4401d680:	251b ab90 1eff 294a a949 1521 a57d 1ade     .%....J)I.!.}...
4401d690:	2ad8 1e75 29d3 2410 aafd a754 adbc ab70     .*u..).$..T...p.
4401d6a0:	acdc ad24 ac2f a5d3 1d6c aba1 a9e1 a6d1     ..$./...l.......
4401d6b0:	a386 a4bb a856 a62c 1a60 a30e ac43 a4af     ....V.,.`...C...
4401d6c0:	ac40 24a9 2112 a5e4 a757 aacf 2405 a2ae     @..$.!..W....$..
4401d6d0:	a6c8 aa10 a385 2961 a928 25fe a78a a5d0     ......a)(..%....
4401d6e0:	ac40 ab50 a62c acc8 1fc2 a811 a6a1 ac75     @.P.,.........u.
4401d6f0:	a42c 26c2 9dba aade a9a7 ac83 9d11 20bc     ,..&........... 
4401d700:	a114 1696 1991 aaac ac1b abdc 2104 2765     .............!e'
4401d710:	202d 2146 a661 ac2d a5f0 936a 2853 a84c     - F!a.-...j.S(L.
4401d720:	a969 ac47 a567 aa8c 1c90 a871 ac82 a6ea     i.G.g.....q.....
4401d730:	2366 2592 a5a3 2325 a9bb ab87 20c3 ac61     f#.%..%#..... a.
4401d740:	1d99 2886 a209 243f 21d8 a468 ab8f adb5     ...(..?$.!h.....
4401d750:	a7df 1c2b 26c0 a9b4 a9f4 25a8 ac0e a1b3     ..+..&.....%....
4401d760:	a603 a13a 2dbc 2a1b aae3 24e0 a889 a827     ..:..-.*...$..'.
4401d770:	a3d4 a72c a984 a962 2710 24c7 28c6 a3df     ..,...b..'.$.(..
4401d780:	a786 280e 24f7 2816 2dc6 2865 275b 2bdd     ...(.$.(.-e(['.+
4401d790:	a3a9 ace3 a756 2a09 286d a7b9 aa23 a64e     ....V..*m(..#.N.
4401d7a0:	2bf1 2634 ad62 ad79 9d76 a748 acd3 acbe     .+4&b.y.v.H.....
4401d7b0:	abdf aa09 2859 a03c a5f7 29d1 a83e 2524     ....Y(<....)>.$%
4401d7c0:	200f 2ce5 3117 ac26 ab67 a788 a68c 2c12     . .,.1&.g......,
4401d7d0:	2436 a840 2a54 241c 2d22 a232 a56c 2dc6     6$@.T*.$"-2.l..-
4401d7e0:	27cf 2a20 2ca0 2c4a 28b8 1fc3 a9bb 2624     .' *.,J,.(....$&
4401d7f0:	252e 9f34 2524 b006 abeb 1af3 28d9 2b77     .%4.$%.......(w+
4401d800:	b186 acd8 2d30 30d0 2951 aa57 9eb0 23be     ....0-.0Q)W....#
4401d810:	a6bf 1d44 a90e 227c 2433 a516 aba3 2823     ..D...|"3$....#(
4401d820:	2da5 2a65 acb3 a418 b063 ada1 2d32 31b3     .-e*....c...2-.1
4401d830:	a4a0 ad13 a73e 2527 30f4 2a7c a97a a6dd     ....>.'%.0|*z...
4401d840:	aa7e aa86 aef6 aab2 2cfd 2243 afbf ae66     ~........,C"..f.
4401d850:	1f40 2c2d 90a4 aeca acf0 a743 2c4c 2d03     @.-,......C.L,.-
4401d860:	2e9f a65d 2b4e 2c4f 21ca a45e aa00 ad59     ..].N+O,.!^...Y.
4401d870:	28a0 a7fb a887 a1d6 a9c1 17fb 98ad 2a05     .(.............*
4401d880:	2699 2588 a88b 26a9 295e 2b47 abbc ad1c     .&.%...&^)G+....
4401d890:	a8ad 1d5a ac18 ad06 aaaa 2c13 2a2c ae5a     ..Z........,,*Z.
4401d8a0:	ab39 ac99 1941 2405 223e 9f48 2897 256a     9...A..$>"H..(j%
4401d8b0:	9c84 17cc 2c82 2d31 19fc 2943 873c 9c2d     .....,1-..C)<.-.
4401d8c0:	aeef 2d5b 306f 2e49 af20 ac2f a1b1 2f2f     ..[-o0I. ./...//
4401d8d0:	2506 b283 af13 a5e4 23e6 a986 abde 28dd     .%.......#.....(
4401d8e0:	2d75 aa33 ad2a 28ba 2cf7 2cc4 1c85 1fe2     u-3.*..(.,.,....
4401d8f0:	2fa2 2ae8 2b5f 2925 af3e 304a 2de1 a631     ./.*_+%)>.J0.-1.
4401d900:	1890 ab16 2d88 2196 acef 1e6d a348 aceb     .....-.!..m.H...
4401d910:	299e 2926 2c88 2d4c a8fb 24f5 2665 16ca     .)&).,L-...$e&..
4401d920:	263b 2aa3 2a3f a8d6 290f 25d1 2d33 8d66     ;&.*?*...).%3-f.
4401d930:	253b 2065 2999 295c a9e5 1b0f 2af5 245d     ;%e .)\).....*]$
4401d940:	27c4 a935 2d69 2761 1846 a590 2855 2d3c     .'5.i-a'F...U(<-
4401d950:	2b0e 1965 adbf 28bc 2c8a 2c5d 29ca affd     .+e....(.,],.)..
4401d960:	a585 28f1 2d44 2b7d b1ea a6c9 2dc0 8e2d     ...(D-}+.....--.
4401d970:	abba acf2 aaa7 2cee a7bc ae6d 2594 2c4a     .......,..m..%J,
4401d980:	2c21 a831 2530 a6c7 14ff aef2 ad93 b00e     !,1.0%..........
4401d990:	9b0c 26ed 2a44 1e36 2522 24b4 2fdd 2d3f     ...&D*6."%.$./?-
4401d9a0:	2de8 3025 1713 29d0 a995 aa29 3074 2b27     .-%0...)..).t0'+
4401d9b0:	2c60 2805 24f3 2983 a828 26ee 21a0 2d48     `,.(.$.)(..&.!H-
4401d9c0:	1b00 ad3b a618 a91d 2827 28bc adfc ad77     ..;.....'(.(..w.
4401d9d0:	2abf 262b a85f ae3c ab6f 2cd2 2df8 99ce     .*+&_.<.o..,.-..
4401d9e0:	2c71 2365 2c7b 2b05 a870 100e 2071 21a6     q,e#{,.+p...q .!
4401d9f0:	2c23 a5f7 26de 1ebb 9da8 aa7d 24ae aea4     #,...&....}..$..
4401da00:	abee a86c 1a95 2b59 ab06 a939 9d4b 2c79     ..l...Y+..9.K.y,
4401da10:	2c74 2f15 a6d7 2a06 286b a8f4 2ca5 9d41     t,./...*k(...,A.
4401da20:	a5d5 0de1 23c2 29c4 a942 a030 296a 21a3     .....#.)B.0.j).!
4401da30:	a84d ad2d a746 2b55 9c33 28a6 a917 a31e     M.-.F.U+3..(....
4401da40:	2c75 22fd 2b19 a20e 9e16 288d 2622 2cc5     u,.".+.....("&.,
4401da50:	2c9d 2df2 1900 1b97 2269 aa0d a944 adb1     .,.-....i"..D...
4401da60:	acbc 1bb1 a34c 2160 a1cc 981f a2fb 240e     ....L.`!.......$
4401da70:	2cf5 2523 2a42 a685 2b6b a4b7 ac5e 22f1     .,#%B*..k+..^.."
4401da80:	a17e 24ba 2413 2668 a3a8 a464 25a7 2b9e     ~..$.$h&..d..%.+
4401da90:	26c6 2cd6 a4b0 2d6e 2c6c 2b4c 2221 8b09     .&.,..n-l,L+!"..
4401daa0:	9c0a 2bdb 9e84 1f9b a0a3 2e34 98a5 a81e     ...+......4.....
4401dab0:	26fb 24d2 a1ad a97f 282f 2963 2cdd 297b     .&.$..../(c).,{)
4401dac0:	1772 a94a 2ab6 2e3c 9ac0 9cf7 2533 2519     r.J..*<.....3%.%
4401dad0:	2814 1cdc a9a5 29b6 297d 9cdb 2cbc ac2f     .(.....)})...,/.
4401dae0:	286e a084 2b7d 2d2c 303a 2708 a427 ae51     n(..}+,-:0.''.Q.
4401daf0:	2882 2b55 29bd a487 ad76 a471 a618 a584     .(U+.)..v.q.....
4401db00:	a0bb a932 22bb aa78 a817 1be2 2821 21ed     ..2.."x.....!(.!
4401db10:	242a a0b8 25a1 2bcc 2502 a77d 9d6a b024     *$...%.+.%}.j.$.
4401db20:	30ed 0c7f 2079 aaf4 aaa4 2879 2c54 a740     .0..y ....y(T,@.
4401db30:	a8e2 a7b4 a0dc a769 a9e0 2951 2aec a4e7     ......i...Q).*..
4401db40:	ab4a 2202 986e 2bab 2ae7 283c 2289 af90     J.."n..+.*<(."..
4401db50:	ade5 2a90 2b15 1c74 ab3a a967 2ccf 2891     ...*.+t.:.g..,.(
4401db60:	a8ec a47f 2829 a650 ac8b ae86 a220 2e25     ....)(P..... .%.
4401db70:	96b4 ad44 b003 25cf 3198 ab2f a931 a830     ..D....%.1/.1.0.
4401db80:	2cb4 2bff a64b a076 a915 281c 991c 2ca9     .,.+K.v....(...,
4401db90:	27ea 2467 279c a4e3 2d09 2c4c 2c7f a8f5     .'g$.'...-L,.,..
4401dba0:	aee1 a828 2ace 29c0 2151 ac64 2b01 2309     ..(..*.)Q!d..+.#
4401dbb0:	a55a ac81 2be8 29bf 203f 9ebb a975 2c65     Z....+.)? ..u.e,
4401dbc0:	2036 9c45 a94b aa2d 2c44 9e88 2056 a925     6 E.K.-.D,..V %.
4401dbd0:	256d 290c a85f a948 2d86 2bba 2723 ab79     m%.)_.H..-.+#'y.
4401dbe0:	2262 ae92 acc5 26ae 2a47 1849 28e5 acdf     b".....&G*I..(..
4401dbf0:	2a1b 2826 911d a5ad ab5d 9f56 a9ce ad62     .*&(....].V...b.
4401dc00:	a6ff 2b7d 2a3b a463 aace a9bd 2a75 9a24     ..}+;*c.....u*$.
4401dc10:	b231 a948 a51d 2951 30c9 ad78 ad06 acce     1.H...Q).0x.....
4401dc20:	acef 1536 20b8 1964 2634 24cb 28d3 2d7a     ..6.. d.4&.$.(z-
4401dc30:	26ba 29de 9af0 2575 28a3 2cf4 29db 287d     .&.)..u%.(.,.)}(
4401dc40:	a8ee a588 2e47 2b19 250a a8ab ac06 2c0b     ....G..+.%.....,
4401dc50:	a5a6 2a1b a8c2 2580 2925 22a0 a453 a80a     ...*...%%)."S...
4401dc60:	2676 2c64 a86d a627 1d85 225d 2cf9 23af     v&d,m.'...]".,.#
4401dc70:	2ba8 26d2 a4a1 a04f a258 acf0 ad84 2cde     .+.&..O.X......,
4401dc80:	29f2 2666 ac4e 22a6 2b83 9c70 22c1 a9b7     .)f&N..".+p.."..
4401dc90:	2c8b 28cd 1dbc 20ad a102 28ba ab3d 23a9     .,.(... ...(=..#
4401dca0:	ab15 a68f 2480 a2d2 2c3e 2d45 26b8 acbb     .....$..>,E-.&..
4401dcb0:	2c95 1dad 2957 2bce a978 294a ac95 a70a     .,..W).+x.J)....
4401dcc0:	ac34 ae4e 24eb ab50 2908 2362 ae56 16e5     4.N..$P..)b#V...
4401dcd0:	9f8d 25b0 2356 2d9d ac73 a870 2ae3 1956     ...%V#.-s.p..*V.
4401dce0:	1b15 a16a 2d2d 2267 a90f 2635 2c07 2abd     ..j.--g"..5&.,.*
4401dcf0:	26ae a0cc 28d1 2b35 2874 a1ee aa35 9cd7     .&...(5+t(..5...
4401dd00:	2b2e 2a69 2890 27d1 288c 29aa a458 a934     .+i*.(.'.(.)X.4.
4401dd10:	16fb 8fb2 a80f 287c 2636 2ce5 9fc2 2db3     ......|(6&.,...-
4401dd20:	29a3 2a1d 2735 a79d 2990 25d6 2bbf ad47     .).*5'...).%.+G.
4401dd30:	a856 2732 2e36 2c40 a2dc a74d a8a3 a62a     V.2'6.@,..M...*.
4401dd40:	acd0 9c85 29a4 ac0b 9d74 a8cf 222c 2ab6     .....)..t...,".*
4401dd50:	a3e6 2f09 2cd1 9bef ac45 1aae 283f 2cf5     .../.,..E...?(.,
4401dd60:	1865 1bbd 2e77 3050 2f3a a2cb 2a87 a6b6     e...w.P0:/...*..
4401dd70:	ad5d a1e5 29f5 2bbc 2839 a4b7 a961 223a     ]....).+9(..a.:"
4401dd80:	23f9 1b20 9d34 a988 22a8 a008 2c76 2b93     .# .4...."..v,.+
4401dd90:	2470 8c1d 22ef a445 27ed a1a6 1654 264a     p$..."E..'..T.J&
4401dda0:	26f2 a21a a0a2 a7a0 a712 9db5 2b33 2e52     .&..........3+R.
4401ddb0:	2d47 2934 9e79 2ef5 2c43 259d 8c01 27b7     G-4)y...C,.%...'
4401ddc0:	a493 2948 26cf a91f a8bd 2a07 2968 1f76     ..H).&.....*h)v.
4401ddd0:	2894 a4c6 2a7d aaab acd9 a65c 22ac 217f     .(..}*....\..".!
4401dde0:	2a69 a033 219e 28f8 2d3c 2acb 25ff ac77     i*3..!.(<-.*.%w.
4401ddf0:	aa08 2ac5 2850 2938 2a80 2b6f 17a9 9c6d     ...*P(8).*o+..m.
4401de00:	a6a5 2b7e 2b43 2e90 29ca 2a03 a7fb af54     ..~+C+...).*..T.
4401de10:	12ff 22f5 a91e 2a92 ac14 afff 1b6e 2baf     ..."...*....n..+
4401de20:	2aae acb4 24c2 2dd8 1883 9f41 a1dc 2a10     .*...$.-..A....*
4401de30:	9e94 a55e acee 2dd5 2c3a af04 ae7d afd1     ..^....-:,..}...
4401de40:	9244 a875 abb7 a4ad a453 9e62 29c6 2c66     D.u.....S.b..)f,
4401de50:	ad17 2363 2df8 2e85 a28f a6bd ae2c 2e86     ..c#.-......,...
4401de60:	29ca 275f a717 2d5b 2b86 153b b0d3 b107     .)_'..[-.+;.....
4401de70:	aba1 246d 18e9 ad20 aec7 2d6b a7c0 1c49     ..m$.. ...k-..I.
4401de80:	ad47 aafa b09d 2ca9 28bd a915 acb7 ae69     G......,.(....i.
4401de90:	2c50 0d4b aa7e 285a 300c 9c4a a12d 2586     P,K.~.Z(.0J.-..%
4401dea0:	26d0 2e5a 2c7f 2e7a 29dd a4e8 1b54 2ec1     .&Z..,z..)..T...
4401deb0:	29ef 277c a974 2a06 2b73 a929 29a2 29a0     .)|'t..*s+)..).)
4401dec0:	27c2 2b68 1abe 1a0e ace8 0f33 2cac 18cc     .'h+......3..,..
4401ded0:	281c ac31 19e3 22e7 a0a2 a813 2a34 22f3     .(1...."....4*."
4401dee0:	a982 a6be 2040 2d18 22f6 20ff 27b0 a3b4     ....@ .-.". .'..
4401def0:	2a12 aaf6 a223 2853 928c a600 2a71 ab22     .*..#.S(....q*".
4401df00:	a086 ac0f b063 a2ce 94fb a4bd ad17 ad85     ....c...........
4401df10:	1c64 af95 a761 220a 9d5c 21e8 adb0 216f     d...a.."\..!..o!
4401df20:	2b53 970f 9402 9610 9dda 2524 1e4f 288b     S+........$%O..(
4401df30:	a00d 2800 2c21 2bfe 2952 28b8 a9ac a704     ...(!,.+R).(....
4401df40:	ad05 a761 2982 a92a 2953 22a1 289c a900     ..a..)*.S).".(..
4401df50:	263c 255a 9685 a928 261d 2405 2739 a78f     <&Z%..(..&.$9'..
4401df60:	a952 2565 301d 274a ab55 a92b 1a64 a011     R.e%.0J'U.+.d...
4401df70:	2742 a4a9 2b69 155d 2388 2cb0 22c4 a9ea     B'..i+]..#.,."..
4401df80:	2d2f 2c7e a115 24c2 ac78 20fc a651 20c3     /-~,...$x.. Q.. 
4401df90:	2744 a455 a790 1975 afa8 b05a ae2c 9c0c     D'U...u...Z.,...
4401dfa0:	1b60 10b7 a7c7 22d7 a007 24b1 2879 1bbf     `......"...$y(..
4401dfb0:	9e57 2231 2cb7 1bf9 9af9 a34b 2ae1 28fa     W.1".,....K..*.(
4401dfc0:	2445 2ace 2e4c 2cb7 2e60 2d46 a915 af6e     E$.*L..,`.F-..n.
4401dfd0:	2d80 a61b ac84 ad66 214f 2a96 a84e 23ca     .-....f.O!.*N..#
4401dfe0:	a97c 2d1d 2d20 2c50 1c1c a859 b2d3 2a8c     |..- -P,..Y....*
4401dff0:	a5a3 a69e aab0 a444 27e8 29fb 2977 a439     ......D..'.)w)9.
4401e000:	a531 2927 2dd4 2a61 2886 276f 2184 27c0     1.').-a*.(o'.!.'
4401e010:	a017 2a87 2815 88fb a82d 2910 24f5 27fa     ...*.(..-..).$.'
4401e020:	a4e7 2804 2a93 20a1 26d6 2b80 2a19 29d1     ...(.*. .&.+.*.)
4401e030:	2cb7 264d a51b 2cd4 2f73 a864 25ce 2cd1     .,M&...,s/d..%.,
4401e040:	2dc2 22db a576 2a92 235f acec 9d66 a2f4     .-."v..*_#..f...
4401e050:	232c a869 28a4 2112 aa5d a0d6 a85e 126e     ,#i..(.!]...^.n.
4401e060:	a84a 2015 2ad3 2a19 2933 302b 2ad6 96dc     J.. .*.*3)+0.*..
4401e070:	319f 316a 2008 a0a4 a485 a648 acc4 addc     .1j1. ....H.....
4401e080:	a88d a16e b059 264d 1bff 26fd 2bd3 2cd8     ..n.Y.M&...&.+.,
4401e090:	2525 2af8 287f 28cd 2f30 2bfc a73b a675     %%.*.(.(0/.+;.u.
4401e0a0:	a4f2 2995 a1de ab56 28f8 239a 25a4 a626     ...)..V..(.#.%&.
4401e0b0:	a43b a773 1c88 2cc3 2dff 2699 a93e 29fb     ;.s....,.-.&>..)
4401e0c0:	9e01 a1c1 2938 2cd2 9edb a201 a88f 2beb     ....8).,.......+
4401e0d0:	2425 2264 a890 aa91 a93e 2bdb 1c2f 9dc5     %$d"....>..+/...
4401e0e0:	a6db a55f 2a6c a7d7 2c36 2ab7 2a0e 24eb     .._.l*..6,.*.*.$
4401e0f0:	2c06 aa1b a414 21fa 2d41 2164 9ce2 a7cd     .,.....!A-d!....
4401e100:	2bd8 29e8 a56c 1e00 2344 29b5 23e0 ac49     .+.)l...D#.).#I.
4401e110:	a861 aa0e 1d6d 2c23 2750 9dcb a41f 2583     a...m.#,P'.....%
4401e120:	2687 a023 2df8 a15a a5ed aec6 a9e0 2a4c     .&#..-Z.......L*
4401e130:	26a2 a904 1acc 24ce 2cae a0da 2a1e 29aa     .&.....$.,...*.)
4401e140:	2280 2d03 2630 2dec 242c 1427 270f 2601     .".-0&.-,$'..'.&
4401e150:	2b7c 287e 8ff4 a91b adb7 a972 a80d a336     |+~(......r...6.
4401e160:	a68d a85f 2ca1 2903 2a36 b011 a9d6 2a01     .._..,.)6*.....*
4401e170:	a95d aab7 ada4 aeb5 aa88 1a41 a492 264a     ].........A...J&
4401e180:	220d 2c6b 2ca0 a416 aab6 ac68 ac7a 23ea     ."k,.,....h.z..#
4401e190:	aa86 ae9d abc7 2d5d a8b5 a1b8 a948 a297     ......]-....H...
4401e1a0:	a88c a770 ae35 ab4e a4d5 a6e2 217a 28ee     ..p.5.N.....z!.(
4401e1b0:	abb2 98ce 2cf6 28ac 1d49 248b 26bd 2bb5     .....,.(I..$.&.+
4401e1c0:	2f7d 249e a6da 28aa 2987 2746 ab0b a2af     }/.$...(.)F'....
4401e1d0:	a243 222e 2c21 251e 29e1 a13c 2cca 2c1c     C.."!,.%.)<..,.,
4401e1e0:	a162 a466 aa5c 2445 080c a697 a56f ac41     b.f.\.E$....o.A.
4401e1f0:	a9ae 285b 148e ab8a a7eb 230a 2d1c 9e29     ..[(.......#.-).
4401e200:	ad5e ab07 2941 24cc 2492 2270 ac5f a93c     ^...A).$.$p"_.<.
4401e210:	a17f 928a 244b ab64 2648 2c84 29a7 ad36     ....K$d.H&.,.)6.
4401e220:	ae70 9778 2553 25c1 ac79 ae49 9bfc 2d5b     p.x.S%.%y.I...[-
4401e230:	294e ad27 abaa 23f1 2b89 2089 b12d aeb0     N)'....#.+. -...
4401e240:	1cda a9cb a414 ae21 ae2d a5da a0f3 2d8e     ......!.-......-
4401e250:	2997 2e97 2ffb 2b02 ae64 2c10 2add 2d7d     .).../.+d..,.*}-
4401e260:	26db 25f2 2934 2805 2e5d 2428 2913 2ab3     .&.%4).(].($.).*
4401e270:	2cd3 1f73 a85b a6ab 2474 a700 a19e a70f     .,s.[...t$......
4401e280:	a978 28d5 2c53 a5d0 a7f3 a892 2e33 a9cf     x..(S,......3...
4401e290:	9fba 264f 2c33 a8b5 99cd a395 2998 1fc6     ..O&3,.......)..
4401e2a0:	27e4 2044 9901 a302 27af 24d8 aa1b 2270     .'D .....'.$..p"
4401e2b0:	1876 27eb ac77 a437 1984 290c 2c49 a854     v..'w.7....)I,T.
4401e2c0:	a8b6 20c9 2c5a 2cd2 af00 a8e0 285a 9bd7     ... Z,.,....Z(..
4401e2d0:	2019 ac34 9b98 29c2 19f9 2d4e ac49 aa20     . 4....)..N-I. .
4401e2e0:	9eba 25d4 2562 244c 22e8 abf1 ad93 afb6     ...%b%L$."......
4401e2f0:	12e3 2ceb 2b24 a3de ab1a a5f9 2cf6 2e1e     ...,$+.......,..
4401e300:	2b08 aa8c a5b1 2cba 9175 a968 9e46 ad17     .+.....,u.h.F...
4401e310:	a523 2b20 2ca9 a329 2317 2264 28e4 2809     #. +.,)..#d".(.(
4401e320:	2a5e a222 2369 a98f 22c2 2a86 1d2d 98ed     ^*".i#...".*-...
4401e330:	a50c 2c68 2bf3 24c2 2714 2904 22b8 a91c     ..h,.+.$.'.)."..
4401e340:	2b66 2935 a463 2646 2366 2974 29ad 2718     f+5)c.F&f#t).).'
4401e350:	2850 2a4c 25bc 2906 23ef 2313 a95a aac5     P(L*.%.).#.#Z...
4401e360:	ab9b aa2b 2b64 99df 9f0d 265a 9d3a 2532     ..+.d+....Z&:.2%
4401e370:	a409 2cd9 a83c ac1c aba5 26f0 2a13 2427     ...,<......&.*'$
4401e380:	a803 2a60 a421 a982 af59 acec 967e 22aa     ..`*!...Y...~.."
4401e390:	2c05 a05b ac08 a097 95d5 3036 2e33 a4b8     .,[.......603...
4401e3a0:	2a2c 2082 3168 28d0 a453 a610 a01d 2b1a     ,*. h1.(S......+
4401e3b0:	279c 20aa 26cd 2863 27bd 265e 2bca 1e99     .'. .&c(.'^&.+..
4401e3c0:	a42c ab02 a2a1 26ca a2f8 2029 2931 a9ac     ,......&..) 1)..
4401e3d0:	29b9 a627 abd1 a2fa 9757 ab3c 2522 a85b     .)'.....W.<."%[.
4401e3e0:	2ac9 2c1a 2b2e 2486 2c7e 2592 2802 2443     .*.,.+.$~,.%.(C$
4401e3f0:	290c 1d31 a984 a97d a2ff 9f31 adf7 a60d     .)1...}...1.....
4401e400:	24ed a1b5 1cc0 acf0 25e2 2eda 2515 016c     .$.......%...%l.
4401e410:	294e 2c1f 2466 a38a a953 1389 9418 282a     N).,f$..S.....*(
4401e420:	a614 a520 2419 a879 25dd a57d a4b6 28af     .. ..$y..%}....(
4401e430:	a04b 28d8 a803 a1c4 a8a8 20d5 2e70 a400     K..(....... p...
4401e440:	a8be af0a aa44 915c 24a5 248c 9d51 294c     ....D.\..$.$Q.L)
4401e450:	a4ac a610 072f 2ab7 a8a5 a9ac 2678 a9f2     ..../..*....x&..
4401e460:	2a9a 2833 2c42 abee 9c92 290a 9f57 a9c5     .*3(B,.....)W...
4401e470:	adbd a6cd 28b7 2916 26e3 ac92 ae14 9d8d     .....(.).&......
4401e480:	a64d 2c3a a803 ab1a b11c 2154 2e64 2034     M.:,......T!d.4 
4401e490:	157a afcc 2c1f 2c92 284f 289b a4aa a46a     z....,.,O(.(..j.
4401e4a0:	ab44 24f5 2ac0 23bb a770 ab5a ade8 b088     D..$.*.#p.Z.....
4401e4b0:	a7c6 24a2 2939 a743 ad6c acba 2881 2a92     ...$9)C.l....(.*
4401e4c0:	ac9e 2881 2adc 2a04 24dc a108 2a46 14b4     ...(.*.*.$..F*..
4401e4d0:	2650 a85f a7d1 a688 2c86 2a60 288f 2c76     P&_......,`*.(v,
4401e4e0:	2c37 2bb2 2943 a20b a475 2b97 2cb0 a6cb     7,.+C)..u..+.,..
4401e4f0:	ac5e ada3 2483 a27e a300 aa47 a834 ab76     ^....$~...G.4.v.
4401e500:	ac6c 2ca7 2c1e aa14 ac17 a687 a457 a4d0     l..,.,......W...
4401e510:	28c2 9fbe 2419 a602 2008 2a9b 2afc 0ca7     .(...$... .*.*..
4401e520:	a43e 2ce6 a9db 1d0d 1eb0 962d a007 289c     >..,......-....(
4401e530:	1867 232f a9bd 9fd7 2a60 2c88 a808 ad03     g./#....`*.,....
4401e540:	aad0 adfb ab68 9f93 a9af 234b 279a a3b8     ....h.....K#.'..
4401e550:	2c80 22e4 2e5f 2e6c a4a2 2e91 2c33 22cb     .,."_.l.....3,."
4401e560:	ac0c 287b 28f0 9d7d ad0a ad7d 206c 160b     ..{(.(}...}.l ..
4401e570:	2933 2620 2941 2db0 2e0d 988c 279b 2c61     3) &A).-.....'a,
4401e580:	2f95 2e59 a5e6 a585 ad3d 0e7c 2a8c ab4b     ./Y.....=.|..*K.
4401e590:	ac8a b0b9 b0be ac39 1c44 24d6 a600 ab85     ......9.D..$....
4401e5a0:	a935 28cc 2a28 2204 2c68 9d3d 244f 2ba2     5..((*."h,=.O$.+
4401e5b0:	2a5f 2c68 a2fc a749 1d73 a801 9c90 9bb6     _*h,..I.s.......
4401e5c0:	2697 a2a3 aaa6 aa0a 2a36 a77e 2c05 a5b6     .&......6*~..,..
4401e5d0:	a513 2a02 a12d 281f aab1 a969 a3d9 2844     ...*-..(..i...D(
4401e5e0:	297e 26b1 24f7 a6fd 21f8 29e1 256f a852     ~).&.$...!.)o%R.
4401e5f0:	24f8 2073 2a73 a18b 2c29 1ff3 2c30 a8c0     .$s s*..),..0,..
4401e600:	a96e a43c a72b a88b 28e1 260c 2a5a 299a     n.<.+....(.&Z*.)
4401e610:	ad87 26f6 2d65 2d2b a476 2434 2949 2abd     ...&e-+-v.4$I).*
4401e620:	af72 a9e3 2876 2009 a77f 1f30 24cf 295c     r...v(. ..0..$\)
4401e630:	aa7c a478 94c4 3180 1adf 28d8 2942 2898     |.x....1...(B).(
4401e640:	2a54 29e4 2690 27b3 282b a2e8 aac0 2a3e     T*.).&.'+(....>*
4401e650:	0dc6 a25b 9878 20b6 a6e1 27b8 17c4 ac40     ..[.x.. ...'..@.
4401e660:	a0e3 2705 a7c5 a889 a79b a451 23da a22a     ...'......Q..#*.
4401e670:	2aad 210c 2bd5 279e a929 2db1 1c2a 2665     .*.!.+.')..-*.e&
4401e680:	ad83 a66f 9ffc 20d5 26f0 a786 28f4 ad69     ..o.... .&...(i.
4401e690:	ac9b 2b54 256d 2e19 2344 a9bb 2822 2d92     ..T+m%..D#.."(.-
4401e6a0:	2bfc 1c23 2915 239c 9be8 a4b1 a85f a5c0     .+#..).#...._...
4401e6b0:	a96e ab39 28f0 282a 28b7 2c5a 1f14 2c70     n.9..(*(.(Z,..p,
4401e6c0:	2b38 9841 21fd 302b 2de3 9d3f a99e 247e     8+A..!+0.-?...~$
4401e6d0:	24a4 2a61 2c67 2dc0 aa0b a2f2 2afc 2dcb     .$a*g,.-.....*.-
4401e6e0:	3060 a1d5 a22a a643 aca9 ac7c a789 2154     `0..*.C...|...T!
4401e6f0:	a95a a8fc ad25 2317 2e0e ab91 2821 90df     Z...%..#....!(..
4401e700:	253c a9b5 9dad 2550 2167 a8c1 a8ff 269d     <%....P%g!.....&
4401e710:	a7e5 a149 a6ec 275c a7c3 23aa 0968 a564     ..I...\'...#h.d.
4401e720:	aa4c 9a1b a8a0 1e0d 90e5 a15b a3cd a90c     L.........[.....
4401e730:	ab2e a88a a53f a333 2861 851f 28d0 275e     ....?.3.a(...(^'
4401e740:	a708 abad a6b7 a64b 216a a525 a7bf 245e     ......K.j!%...^$
4401e750:	1fce 2820 268e aa70 28ad a4af aa85 aa49     .. (.&p..(....I.
4401e760:	a84e a88b 26a1 203a 9fa3 abc7 a78f 2516     N....&: .......%
4401e770:	a891 a4bd a392 281b a492 abc5 a0cb 1e1f     .......(........
4401e780:	a113 a16d a44e 2619 abbf 9fb9 287b 25d4     ..m.N..&....{(.%
4401e790:	aa49 2316 a7bd 1f0a a05e 27cf 9592 163d     I..#....^..'..=.
4401e7a0:	2457 a481 a295 9be5 284d a9b3 280e 9fbc     W$......M(...(..
4401e7b0:	9b6f abcc 2852 2014 a721 a39e a900 a650     o...R(. !.....P.
4401e7c0:	aac6 a7a5 a220 aaaa 215b 281b 1ec6 a5ae     .... ...[!.(....
4401e7d0:	2831 9ee6 a545 aa6c aa8b a859 ab19 aa3d     1(..E.l...Y...=.
4401e7e0:	a069 2861 a7e9 a9f8 a77f a3d0 a212 2880     i.a(...........(
4401e7f0:	ab55 18e0 27bf abcc 27cc 21f9 a01d 23da     U....'...'.!...#
4401e800:	25d1 aaec 9eb6 1070 2556 a477 a929 ab9a     .%....p.V%w.)...
4401e810:	a8f8 1f1f aa02 9489 9a37 2368 a7a5 abcc     ........7.h#....
4401e820:	a6dd a9b3 abc3 145b 9c8f 26bd 2743 a327     ......[....&C''.
4401e830:	a8fd abb7 a812 a56a 2740 a879 2792 a2b2     ......j.@'y..'..
4401e840:	a92e 26a5 2253 1e78 a7c9 a8f7 a261 23eb     ...&S"x.....a..#
4401e850:	9f24 a09d aa80 ab81 a9df a616 a123 260a     $...........#..&
4401e860:	a7f8 98bb a23d a810 2837 a9d6 9cdd a572     ....=...7(....r.
4401e870:	a92d a6a4 2592 9f8f a32c 2856 ab34 277a     -....%..,.V(4.z'
4401e880:	204f 278a a84a a728 2785 ab26 abc4 aae3     O .'J.(..'&.....
4401e890:	2729 2870 2711 2652 ab60 a662 1c6a 248e     )'p(.'R&`.b.j..$
4401e8a0:	2485 2660 21b8 a4dd a419 250f 9af6 aa1d     .$`&.!.....%....
4401e8b0:	26e2 a2aa 9a82 9f47 a2f3 a419 1bfe a869     .&....G.......i.
4401e8c0:	2855 289b a587 a859 a675 0f50 a58b aa43     U(.(..Y.u.P...C.
4401e8d0:	a8eb ab3c a712 a885 ab40 a88f aa0b ab99     ..<.....@.......
4401e8e0:	a7a2 1b3b a823 2841 1291 a6aa 1703 1c6f     ..;.#.A(......o.
4401e8f0:	a8d1 28dd 9f4b a944 a6b1 215e ab75 271e     ...(K.D...^!u..'
4401e900:	21d9 a958 2878 a14c 9abe 1a80 a89c aa9f     .!X.x(L.........
4401e910:	2491 2459 2411 ab43 a8ca a44a 272f a8f0     .$Y$.$C...J./'..
4401e920:	280f a876 26cd 20b3 1d1e 289e a1aa a17d     .(v..&. ...(..}.
4401e930:	ab45 94a5 2846 a684 a8ad aa9b a8a4 a9e0     E...F(..........
4401e940:	1c3b a4d7 ab42 27f9 94ef a754 aad3 a864     ;...B..'..T...d.
4401e950:	228a ab2d 921a a45c a5a3 285d a624 a688     ."-...\...]($...
4401e960:	28cb a8e7 a9e8 a973 a87d a866 265a a0a4     .(....s.}.f.Z&..
4401e970:	9378 20bf a949 247b a230 28cd 18fe 967b     x.. I.{$0..(..{.
4401e980:	a718 a1a6 2595 a7cf a04f a84c a8eb 2889     .....%..O.L....(
4401e990:	28b8 2544 1ee0 ab7a 2244 2851 25de a416     .(D%..z.D"Q(.%..
4401e9a0:	1d7d ab67 a0e1 2190 ab7b 1deb 990a 1edd     }.g....!{.......
4401e9b0:	a512 aa8e a692 a7a3 9475 ab78 a943 aa03     ........u.x.C...
4401e9c0:	a8c5 a502 1e6b abd3 974f 254b 2177 9ea6     ....k...O.K%w!..
4401e9d0:	a529 2b9a a082 207b 258a a9e3 2889 ab13     )..+..{ .%...(..
4401e9e0:	a798 a73a a6d1 1e9c 9f42 a659 a708 a6c2     ..:.....B.Y.....
4401e9f0:	a931 25b9 a1c6 a83f a6be abeb 9ed8 2801     1..%..?........(
4401ea00:	a9a0 258e a9c4 aa05 28d9 28e8 ab83 256d     ...%.....(.(..m%
4401ea10:	a9b6 22d7 a5b4 2644 aa10 24bc 939f a798     ..."..D&...$....
4401ea20:	a956 27ff 29b9 275d 273e 2bba a21e ab92     V..'.)]'>'.+....
4401ea30:	25df 2c83 29af a409 aa19 a240 2114 a8f7     .%.,.)....@..!..
4401ea40:	1ffe 2a95 1ec8 25ac a5c9 2cc1 2bc5 2b8a     ...*...%...,.+.+
4401ea50:	2430 17f6 a320 2e0e 30f4 2f1f acc5 ab24     0$.. ....0./..$.
4401ea60:	abf6 2b6a 2ae3 ab48 9c5c aa4a ac56 2809     ..j+.*H.\.J.V..(
4401ea70:	26b3 2ab4 2dbd ac9d aa61 2daf 301d 2c17     .&.*.-..a..-.0.,
4401ea80:	a2eb aee9 2dcf a817 ad0d ae88 b061 2b91     .....-......a..+
4401ea90:	a93f aa4f a761 a91a 29a8 2c50 2422 a71e     ?.O.a....)P,"$..
4401eaa0:	2a3b 2c6b 28ef a731 9f34 2d14 a6c5 aca1     ;*k,.(1.4..-....
4401eab0:	aa9e 94f3 310e ad84 a119 2eaa 3038 3216     .....1......80.2
4401eac0:	a42f a7c8 2c50 30bf a05e 24df 2eaa 1be4     /...P,.0^..$....
4401ead0:	93ad 223e 2ccd 3053 92cf 1eea 2834 061a     ..>".,S0....4(..
4401eae0:	2771 acea 241d a82e ac04 a96d 2bdd 3280     q'...$....m..+.2
4401eaf0:	315c ac29 a2d5 3128 30c8 2eb3 2ae8 2cf7     \1)...(1.0...*.,
4401eb00:	a645 21d5 304d 2434 2e31 965e 2617 a599     E..!M04$1.^..&..
4401eb10:	2a59 18ec aefe adb4 ae53 a694 2cf9 2be9     Y*......S....,.+
4401eb20:	18a7 a5ef 258e abad aa65 aaa8 98ee a9d4     .....%..e.......
4401eb30:	ab1f a76e 1efa a7aa aa37 a990 a0af 2c91     ..n.....7......,
4401eb40:	2be0 9c8b 216f a224 2886 2db0 ac94 a8c6     .+..o!$..(.-....
4401eb50:	2923 2e02 a64e 24db 9220 2761 2bde a5e6     #)..N..$ .a'.+..
4401eb60:	25ef 2a61 240c 294b 1717 299c 084d 2855     .%a*.$K)...)M.U(
4401eb70:	a341 2cef 234b 236a a60e 2d3a 1947 2d6f     A..,K#j#..:-G.o-
4401eb80:	a7e9 2e37 2d35 2d51 ac06 a9e3 27be 2a83     ..7.5-Q-.....'.*
4401eb90:	24cf 2d37 252d 2a31 a540 a7d9 2fb5 2955     .$7--%1*@..../U)
4401eba0:	ac68 ac7d 9fab 2d78 ab52 a840 241c 2c71     h.}...x-R.@..$q,
4401ebb0:	2882 2ae3 a9e2 a883 ac34 2c7a ac36 1f40     .(.*....4.z,6.@.
4401ebc0:	24e9 ae2f a64b a8fc aaaf af8b aafb 1841     .$/.K.........A.
4401ebd0:	2224 1dc1 a4c3 2c0c 1bb2 2455 2269 2cd8     $".....,..U$i".,
4401ebe0:	2f7c 2874 ad0c 90b7 287f 2608 24ab a5da     |/t(.....(.&.$..
4401ebf0:	2462 9eab 2148 2b6e 15e2 2962 a89c 2869     b$..H!n+..b)..i(
4401ec00:	ae1b 2777 2093 a29f 1f7a 1dff 2983 2c8d     ..w'. ..z....).,
4401ec10:	2568 9adf a727 a349 2e57 319a 32c4 262b     h%..'.I.W..1.2+&
4401ec20:	a07e 2c36 2e56 2b3b a9b1 2c12 a4c5 288c     ~.6,V.;+...,...(
4401ec30:	2055 24c0 26d4 2aae a67f aa3c 2c47 29a4     U .$.&.*..<.G,.)
4401ec40:	242f a54e ad79 ab13 a878 a92c ac2a aadd     /$N.y...x.,.*...
4401ec50:	aa7e 2810 2f5a 326f aab8 27d5 2c42 2e33     ~..(Z/o2...'B,3.
4401ec60:	2acb 2daf a483 ad2f affe a649 2c5d 2815     .*.-../...I.],.(
4401ec70:	273f ac03 ac0d 24d4 a2f8 27e1 a0c6 246c     ?'.....$...'..l$
4401ec80:	1d54 2245 a5c5 a177 a044 9eff a77d 9e33     T.E"..w.D...}.3.
4401ec90:	29f4 9921 9161 2709 2c19 2ce3 2875 2349     .)!.a..'.,.,u(I#
4401eca0:	1bc1 28a3 2b3d 1bb0 a815 a707 a837 29a8     ...(=+......7..)
4401ecb0:	27c3 2afb 2c90 a6b8 ad8c 2153 2879 a92a     .'.*.,....S!y(*.
4401ecc0:	ae79 a4e5 2664 a132 a992 ac01 2466 2194     y...d&2.....f$.!
4401ecd0:	a7da 2bfe 19b9 2cce 2985 999b 2e2c 2e67     ...+...,.)..,.g.
4401ece0:	2a80 2653 2529 2a0a 27ac aa2f ac4d a3e7     .*S&)%.*.'/.M...
4401ecf0:	a71e b039 a65b a526 1829 9ff7 a672 2385     ..9.[.&.)...r..#
4401ed00:	3055 2682 1fbd 9c7a 2db2 264b a464 a258     U0.&..z..-K&d.X.
4401ed10:	297a 920c 268c a974 aad9 a755 1e9d 2b96     z)...&t...U....+
4401ed20:	2c19 a0e2 a881 a54e 23fc 2825 a683 2a0a     .,....N..#%(...*
4401ed30:	a985 20b7 2ac5 2578 2bd7 28d8 2a55 26d1     ... .*x%.+.(U*.&
4401ed40:	a943 2a20 a8dd aae4 2a0d ab21 a344 abf2     C. *.....*!.D...
4401ed50:	23ab 8f67 2c3c a34c a4ea 294d 2be7 2a4b     .#g.<,L...M).+K*
4401ed60:	9015 2cf0 2964 2333 2466 282f 2e92 a46a     ...,d)3#f$/(..j.
4401ed70:	2be0 9ee0 21b0 9062 8a3d a998 8e28 28a1     .+...!b.=...(..(
4401ed80:	203f a75e a662 24a8 2bec ab15 ac77 004d     ? ^.b..$.+..w.M.
4401ed90:	a974 2bac 9a6c a97f 2603 294f 2c86 ac2c     t..+l....&O).,,.
4401eda0:	944d 205b 30a9 3083 28ef 2d85 283b 9a69     M.[ .0.0.(.-;(i.
4401edb0:	2c2e 2c59 2b47 a186 a007 ac33 a5a2 184d     .,Y,G+....3...M.
4401edc0:	243d a933 2a83 2cea aae4 a3ba 158c a1a8     =$3..*.,........
4401edd0:	a8e6 9f21 28d1 2119 2166 264a a9ec af93     ..!..(.!f!J&....
4401ede0:	a281 1ed5 ab65 a8ac b008 293b a974 a51e     ....e.....;)t...
4401edf0:	a5eb a8ba 29c7 2f86 a903 acd4 a48a 9fb0     .....)./........
4401ee00:	a9e2 ab15 abe5 a4fe 2986 2a75 a973 b0a2     .........)u*s...
4401ee10:	aa16 a1f5 2590 1cf3 ac0c b011 a90b 2bcb     .....%.........+
4401ee20:	ad8f aa0b af29 98b9 a58a b011 a871 2292     ....).......q.."
4401ee30:	24b5 ad56 b272 aee3 2ecf 28e7 25df 2639     .$V.r......(.%9&
4401ee40:	2d77 a011 2454 9750 acc0 a21c 293a 25a3     w-..T$P.....:).%
4401ee50:	1e96 2193 2c76 2bfb 2468 20f4 960a 2890     ...!v,.+h$. ...(
4401ee60:	2a2f 2dd2 2d11 2d7a 2d10 280a 2920 2ab7     /*.-.-z-.-.( ).*
4401ee70:	270b 22c5 ad20 ab0b 288a a8b1 a797 1058     .'." ....(....X.
4401ee80:	1f22 a53b a885 2289 2a46 22a0 2aa9 a677     ".;...."F*.".*w.
4401ee90:	a33a 2e09 28d3 2ab2 2135 29ca 2d99 2e69     :....(.*5!.).-i.
4401eea0:	2eaf ac24 2148 a913 2bb4 a82d a3bc ad79     ..$.H!...+-...y.
4401eeb0:	ab0a ad72 a848 2585 ae00 ac68 1edd 24f6     ..r.H..%..h....$
4401eec0:	ab1e ab25 2b2e 287a aa96 9fcb 211e 2a61     ..%..+z(.....!a*
4401eed0:	245a 2c44 29c4 1d7c 3081 2029 2791 99ea     Z$D,.)|..0) .'..
4401eee0:	95b0 1a04 231f a633 ac66 a804 24b7 a990     .....#3.f....$..
4401eef0:	2c19 a2ae 26be 2453 2ead 265b 2b98 2d79     .,...&S$..[&.+y-
4401ef00:	28ab 20a5 2a1e 2771 25f9 25f1 a86a 217e     .(. .*q'.%.%j.~!
4401ef10:	1d48 a961 a5ad 256d 2754 2cf6 aa41 0049     H.a...m%T'.,A.I.
4401ef20:	1884 28c1 a47e aa3c 282b 2075 21a6 a73b     ...(~.<.+(u .!;.
4401ef30:	a542 2be4 2cbd 2bb4 a9a4 2135 a5be 28a5     B..+.,.+..5!...(
4401ef40:	2455 2731 adc5 196d acac 9151 1ef9 a841     U$1'..m...Q...A.
4401ef50:	a90e a030 9383 2894 9c0b 2ccc 2a74 28ba     ..0....(...,t*.(
4401ef60:	a9e1 972d 25c8 283c 2a75 29c1 a76e b052     ..-..%<(u*.)n.R.
4401ef70:	2736 a563 25ea 2817 2d11 2cf3 2b1d 2fa1     6'c..%.(.-.,.+./
4401ef80:	a725 9415 9eac 28bb a93d a829 ab7f 2b93     %......(=.)....+
4401ef90:	abfc 26c2 9b09 2b20 ac19 2254 19bd 298d     ...&.. +..T"...)
4401efa0:	211c 9682 a183 13e8 a114 a7af 26da 2bea     .!...........&.+
4401efb0:	2381 aa30 a5e5 2831 2c01 2e9d 2892 2c54     .#0...1(.,...(T,
4401efc0:	23a5 22a9 2a50 2665 249f a97a 29f7 2775     .#."P*e&.$z..)u'
4401efd0:	288f 2965 27a9 1ff6 2b2d 2199 2c95 2401     .(e).'..-+.!.,.$
4401efe0:	ac37 28bc 246a a4da a29b 255d 917f 1dd2     7..(j$....]%....
4401eff0:	2465 a01a 2936 2910 2332 9aa3 a6d4 a599     e$..6).)2#......
4401f000:	a689 ac7e 266f 2a6d 275c 2f39 2df4 2d0b     ..~.o&m*\'9/.-.-
4401f010:	2714 21e8 26fb 1f39 a45e a9f4 a4e2 aa4e     .'.!.&9.^.....N.
4401f020:	2fb4 2ca0 a791 2d72 2d29 2743 2ab5 9d08     ./.,..r-)-C'.*..
4401f030:	297f 2bd1 a07c 2386 2c05 2857 ab53 a7e5     .).+|..#.,W(S...
4401f040:	1fc4 16c5 a7ea ad57 a4db a4c2 2c53 26a2     ......W.....S,.&
4401f050:	2705 24cd 1a69 2e1f 2e8e 20f3 24ce 2b80     .'.$i...... .$.+
4401f060:	a6bd a93d 2869 a817 a042 a9cd 0d43 13cf     ..=.i(..B...C...
4401f070:	ac5c adfa a9c2 22a4 2325 2921 a55d 2888     \......"%#!)]..(
4401f080:	a2b7 a43b 2df0 a8d5 26d7 2400 1c5e 2c9d     ..;..-...&.$^..,
4401f090:	2ee3 9d4d 2f09 305f a6b9 a805 a5b4 2856     ..M../_0......V(
4401f0a0:	2085 aa83 b088 ab31 2999 28da af56 a832     . ....1..).(V.2.
4401f0b0:	a253 a765 2f34 9dd4 9e6c 290f abe1 27aa     S.e.4/..l..)...'
4401f0c0:	28b7 283d adbd 2442 2759 2e03 1f10 a4d3     .(=(..B$Y'......
4401f0d0:	a92b 204f 9c30 a915 2db6 a959 9f2a 2cd8     +.O 0....-Y.*..,
4401f0e0:	24b3 2c3f 2ea1 28d4 1498 a524 2b6c 27a4     .$?,...(..$.l+.'
4401f0f0:	2640 a56d 9e36 acc0 2b59 2efd 256d 18d1     @&m.6...Y+..m%..
4401f100:	afb3 af14 a31f 2c03 ac65 ab62 1493 2941     .......,e.b...A)
4401f110:	a72b a946 2aa1 28a4 300c ace6 a88a 1766     +.F..*.(.0....f.
4401f120:	2636 2009 af19 aca0 1ce9 2758 2d2a 3068     6&. ......X'*-h0
4401f130:	1a58 ac3d 20c8 2da0 18bd b243 af70 2841     X.=.. .-..C.p.A(
4401f140:	295c ac2a b05c a882 2739 2f35 abc0 b065     \)*.\...9'5/..e.
4401f150:	2812 aa1a a564 ad8d abec a6cc 268b 2991     .(..d........&.)
4401f160:	afba a70e a635 2a78 2c4a ac0a a9b4 2ac8     ....5.x*J,.....*
4401f170:	25d8 9c8b a8b6 2c20 a486 aae0 a97c 2592     .%.... ,....|..%
4401f180:	20cc 29e9 a47c 245f 2e4b 30b4 a80d 2566     . .)|._$K..0..f%
4401f190:	2a68 2c12 ac0a ae57 a01f 2b31 a4a2 a3fe     h*.,..W...1+....
4401f1a0:	ad23 1d74 2759 2c9d a7c4 2872 2e0d 249e     #.t.Y'.,..r(...$
4401f1b0:	225a 2800 26cc 2ac8 a5b5 2646 2e69 2918     Z".(.&.*..F&i..)
4401f1c0:	2aab 303f 2985 2aba b0ff ab0b 2baa 2bad     .*?0.).*.....+.+
4401f1d0:	a8e7 b286 a8ca 27d5 283f a654 9a05 2998     .......'?(T....)
4401f1e0:	986e ae2a ab25 30ce 2dae 23d2 20cc 2c1b     n.*.%..0.-.#. .,
4401f1f0:	9f95 a6f1 ac21 2885 28c4 2e4f 2ba8 aa7c     ....!..(.(O..+|.
4401f200:	2c0c ab90 2e89 a48f a663 a530 2253 a73f     .,......c.0.S"?.
4401f210:	2482 a63e 2a4e a7a2 1e1e 28ca a5b5 23ed     .$>.N*.....(...#
4401f220:	2d4d aafd 205d 1cfb 295c 29b3 25ba 06fd     M-..] ..\).).%..
4401f230:	27cb 2a10 a6b2 29d3 a846 2c26 974d ad02     .'.*...)F.&,M...
4401f240:	a5d0 aad1 22f0 2b2e a481 2ab1 a9f8 231f     .....".+...*...#
4401f250:	2e68 a0d2 2a14 26c4 2b7b 2d84 a8ea ad55     h....*.&{+.-..U.
4401f260:	1d15 2ae3 251b ac5c ad48 a834 204b 9df7     ...*.%\.H.4.K ..
4401f270:	aa29 aacc 2a17 2ca0 a9c7 a43b 259d a554     )....*.,..;..%T.
4401f280:	21c1 28f0 2acf ab3a 20b1 a9d4 2a82 2dae     .!.(.*:.. ...*.-
4401f290:	99ca 2b70 a5d4 271c 31e3 8d31 2de5 a20f     ..p+...'.11..-..
4401f2a0:	2d50 a8e2 23f7 2f0e 9e2e a5c9 28ff 1ffb     P-...#./.....(..
4401f2b0:	2933 294a 2c57 9607 ac94 a740 a662 2884     3)J)W,....@.b..(
4401f2c0:	ad48 9f83 1eb6 26a9 2c99 ad00 abcc ac5e     H......&.,....^.
4401f2d0:	2c22 2590 9ff8 a972 1506 a080 2c55 96ff     ",.%..r.....U,..
4401f2e0:	9c5d 2c4c 28a0 2af7 296c aca5 2308 2c73     ].L,.(.*l)...#s,
4401f2f0:	add5 ac8d abb9 2a04 a0ac 25f4 a4e9 2cb9     .......*...%...,
4401f300:	274b 281e 2794 2996 2adc ac99 125b 2d0d     K'.(.'.).*..[..-
4401f310:	2674 2cdb 1a78 2d5d 2e6a 284a afcd 9eb7     t&.,x.]-j.J(....
4401f320:	2a31 28cc af40 2b8f 2e0b 3019 2645 a973     1*.(@..+...0E&s.
4401f330:	30af 2ca1 a512 273f 2183 2dc6 28ee ae3b     .0.,..?'.!.-.(;.
4401f340:	2c12 2dce b067 a940 9cc4 2f42 2c35 29ea     .,.-g.@...B/5,.)
4401f350:	2ce8 29bf a927 2853 a89c 2921 1fb4 a8ee     .,.)'.S(..!)....
4401f360:	aade accf 0661 2d80 a2a8 a62b a9bd 217a     ....a..-..+...z!
4401f370:	264a 277f a9ed 275a 05c8 2dcc a897 2638     J&.'..Z'...-..8&
4401f380:	25e3 1d88 a39e a283 26bd 9e61 a608 a96e     .%.......&a...n.
4401f390:	a934 a846 aa40 2692 2879 a108 257b a461     4.F.@..&y(..{%a.
4401f3a0:	9d36 27d4 2434 ac3e a890 258b 2725 a18e     6..'4$>....%%'..
4401f3b0:	a7a5 258a ac04 2888 283e a6f2 2762 9a13     ...%...(>(..b'..
4401f3c0:	1dde 2876 a934 a7e6 2125 9ca4 00fa 1aee     ..v(4...%!......
4401f3d0:	ab00 268a 2456 2846 aaae a9e8 15c8 a9f3     ...&V$F(........
4401f3e0:	27a3 28a8 a7de 25cb 2037 20e7 aaf9 a5b5     .'.(...%7 . ....
4401f3f0:	1f40 a608 aa54 1347 a80f 951e a14e 2642     @...T.G.....N.B&
4401f400:	abc7 a4c7 a155 29e0 2a07 a87c aa3d 9c78     ....U..).*|.=.x.
4401f410:	a6ab a9ad 2233 9a59 274c a954 2434 26d0     ....3"Y.L'T.4$.&
4401f420:	23d1 289e 1f8a a96f 26a7 2878 246f 9de8     .#.(..o..&x(o$..
4401f430:	102e a43c abd7 a9d4 aa98 8177 99de 1c69     ..<.......w...i.
4401f440:	2982 237f a90d 2127 a192 aba3 2bb6 210b     .).#..'!.....+.!
4401f450:	8c00 280c ab6f 29c2 aac5 2486 a44d 20dc     ...(o..)...$M.. 
4401f460:	2a53 a45b a51f 190a 940d 28b4 aa6b aaf3     S*[........(k...
4401f470:	a8f6 a85c a814 25c1 a16e aad4 aac2 2b5e     ..\....%n.....^+
4401f480:	9c16 a5bf a893 a85d a759 a462 2638 24c6     ......].Y.b.8&.$
4401f490:	9f1b a684 2857 211a a714 26d9 9cde 21c5     ....W(.!...&...!
4401f4a0:	a6ae 1ba7 a9fd 9f08 a46d a37b 2755 a739     ........m.{.U'9.
4401f4b0:	aacd 2afe a927 ab22 a6dd a99e aa76 1ff8     ...*'.".....v...
4401f4c0:	a8b1 201a 891c a72e aaec a8b0 a67f a958     ... ..........X.
4401f4d0:	a84f a8ca aaab 289c 24d8 9847 a93c 1467     O......(.$G.<.g.
4401f4e0:	9ee4 2814 a090 2a48 29c8 25a2 a38a 260b     ...(..H*.).%...&
4401f4f0:	a771 267e a5a3 a3d0 24b7 206f a83e 9820     q.~&.....$o >. .
4401f500:	a84f a0da aa71 28ea ab10 274f 267d a521     O...q..(..O'}&!.
4401f510:	a960 2a04 a97f a8c7 20d8 22c0 a966 a962     `..*..... ."f.b.
4401f520:	201d a5db a859 a94c aa75 aa46 a99e aafd     . ..Y.L.u.F.....
4401f530:	9e6e 9f61 1d5e 28d0 a4a9 aa53 2441 a647     n.a.^..(..S.A$G.
4401f540:	a826 9e61 2372 25bc a060 a544 a372 aad6     &.a.r#.%`.D.r...
4401f550:	a2e0 2688 27a3 9ee7 260c 22ac 1bc4 a9bb     ...&.'...&."....
4401f560:	a9a1 9b4e 296c a6ae 2446 1b4f 1271 a11c     ..N.l)..F$O.q...
4401f570:	25b8 aa98 a935 aa62 a40a a840 a743 aad6     .%..5.b...@.C...
4401f580:	9f88 2081 a4ed a9b3 2868 a58d 1bff ab00     ... ....h(......
4401f590:	a2ef 2858 1dbc 2445 1dd9 2615 a5ac 9f8e     ..X(..E$...&....
4401f5a0:	a809 21d3 24a3 2891 a27a a459 a1b1 a787     ...!.$.(z.Y.....
4401f5b0:	a269 2776 aa17 2046 a1c8 a311 9ae6 2765     i.v'..F ......e'
4401f5c0:	25a0 a519 24b4 1c8a 9b8e ab6e a1bc a951     .%...$....n...Q.
4401f5d0:	208c a372 204e 2831 9fcc 22a8 a92b a98f     . r.N 1(..."+...
4401f5e0:	27c2 a621 a1fc a683 2764 aa34 2504 ab55     .'!.....d'4..%U.
4401f5f0:	ab9d a519 abc8 2779 9c51 91f0 a4c4 a056     ......y'Q.....V.
4401f600:	ab8a a12f a8d3 ac19 a98a a77f a9df abab     ../.............
4401f610:	1f35 9fd3 a8d1 a55d ac13 a9c3 2818 a2b3     5.....]......(..
4401f620:	a5d8 2501 aac5 ab71 a8c5 0a3d 1d5c a901     ...%..q...=.\...
4401f630:	a03d a9ee 96d3 a9df ab24 1b7a a79f a1da     =.......$.z.....
4401f640:	a8b5 9e99 a9d2 a189 28ff 9937 a9e6 9895     .........(7.....
4401f650:	abc3 a8e2 1c43 aa75 10e6 2968 22f2 a5c8     ....C.u...h)."..
4401f660:	25ea 26de a944 a96f a516 2009 a8b7 a8ab     .%.&D.o.... ....
4401f670:	a484 ab50 2048 2b1a 2406 284a 20fa a547     ..P.H .+.$J(. G.
4401f680:	aa6d 1c26 a348 2904 2012 a585 98b4 a95c     m.&.H..). ....\.
4401f690:	a8e2 19e6 a986 a46f a95d ab48 a5af aa21     ......o.].H...!.
4401f6a0:	ada3 a8eb ad15 aa1d a744 a842 a8a8 a81e     ........D.B.....
4401f6b0:	9ee5 a377 2229 acf7 a9f6 a74a ad0b a664     ..w.)"....J...d.
4401f6c0:	20b9 abf6 a9e9 aaf8 a7c5 a919 a6b2 9f91     . ..............
4401f6d0:	aaa5 9893 aa05 a86d a9a5 1e7f a6b0 a3ef     ......m.........
4401f6e0:	a0b3 1edd 201f 2764 229a aad1 a861 9e56     ..... d'."..a.V.
4401f6f0:	acbe 2b41 2097 203f 264d a876 a7c6 a6d7     ..A+. ? M&v.....
4401f700:	ab86 27ad 188b a945 a9a5 1d3c a4e0 a664     ...'..E...<...d.
4401f710:	a906 a2e1 adf0 8949 a9a2 26d3 8916 ac8e     ......I....&....
4401f720:	aae4 ab70 a978 a261 ac24 ae10 0d6e ad0e     ..p.x.a.$...n...
4401f730:	a85e abfd 2139 a8f2 ab47 a273 a61e ad43     ^...9!..G.s...C.
4401f740:	aa6d 9a93 a94b a8c3 a84c 2456 9a6d addc     m...K...L.V$m...
4401f750:	ab8c 1539 a55e aac7 aaf7 a572 aa1c a847     ..9.^.....r...G.
4401f760:	276f 28ad 2470 abbb a7ad 1e5c a725 a2a3     o'.(p$....\.%...
4401f770:	a6f6 acc9 a3d2 a48e 1f7b a7e2 a513 a862     ........{.....b.
4401f780:	2b04 a8ae adb1 a4dc aa6c a728 ad5e 221c     .+......l.(.^.."
4401f790:	ad69 23d7 ae1b a8ec 9f31 27e3 28c5 21a3     i..#....1..'.(.!
4401f7a0:	a7c6 ae3a ab38 a5ea aa7a a6aa aa4f aaa4     ..:.8...z...O...
4401f7b0:	a283 9b7d 1b6d a558 a9f0 ad30 a7fb abae     ..}.m.X...0.....
4401f7c0:	9fa1 ac0e aa1d a9f3 275e ac4c a049 a183     ........^'L.I...
4401f7d0:	9cc8 17ef a6cb 27e1 aaa6 ad83 a190 ac6d     .......'......m.
4401f7e0:	209f a4a5 acca acf0 2527 9f49 243a aad3     . ......'%I.:$..
4401f7f0:	25f8 27af ab0c a076 a697 a939 aaa2 a7a3     .%.'..v...9.....
4401f800:	a199 2932 aa4a ad79 28c1 1dc3 1825 a687     ..2)J.y..(..%...
4401f810:	a7a3 28c0 a9ec a636 aab9 aba6 2685 9d41     ...(..6......&A.
4401f820:	a389 a782 2732 a577 25cb ab63 a90a 224c     ....2'w..%c...L"
4401f830:	ac52 ab9a a3e7 218d a830 a4ca aad8 a6ec     R......!0.......
4401f840:	a114 ab1a a82a 1d42 a439 a60a ab6c 2889     ....*.B.9...l..(
4401f850:	acd5 ae46 abf3 a17b ae01 aad8 290f a9cd     ..F...{......)..
4401f860:	ac7d a9db 24cc a7c7 9b08 a0d4 2824 ac5f     }....$......$(_.
4401f870:	a91a a512 ad55 abbd a983 a730 28db 2b20     ....U.....0..( +
4401f880:	a926 ac15 a81a a8ed a1a7 aad9 9e32 a6bc     &...........2...
4401f890:	a9e5 a8dc ab98 2826 a531 aa30 a04a 212c     ......&(1.0.J.,!
4401f8a0:	2005 a38f ac38 ac78 ab98 a389 9d05 ac38     . ..8.x.......8.
4401f8b0:	1e71 a9bc a40b ab4e 9234 aa50 ac11 a59b     q.....N.4.P.....
4401f8c0:	a470 9b1f 9c83 18d0 19bb ac73 a408 9c8e     p.........s.....
4401f8d0:	a85f a57a 2278 2018 a8a0 96cb a188 ab47     _.z.x". ......G.
4401f8e0:	a19a a05c aa3f a0b4 ae51 25e5 ab05 ae1e     ..\.?...Q..%....
4401f8f0:	aded a8d5 9a74 acd5 245e a79f aac4 aa5e     ....t...^$....^.
4401f900:	ab83 a7c4 a8b9 a9f4 a7ad ad23 1667 9f32     ..........#.g.2.
4401f910:	a992 a762 aba1 a60e ae1a aca7 a44a abf0     ..b.........J...
4401f920:	a53f 9cb6 a88b 24e7 a130 2576 ac13 adef     ?......$0.v%....
4401f930:	adb7 ab4a a93d 16d8 a9c0 19f9 169f accb     ..J.=...........
4401f940:	acfa acd6 9fe9 a6b0 adc8 22bc aa44 a987     ..........."D...
4401f950:	a764 aaca a9e8 a924 a6fb 20f8 a009 abdf     d.....$.... ....
4401f960:	97f2 acdb ae09 a4ac a980 213a 2259 a722     ..........:!Y"".
4401f970:	a23d 8ed3 2493 2ab0 2387 a820 13ae a98c     =....$.*.# .....
4401f980:	a278 a874 abb6 a928 ac52 a9ec a50c ace6     x.t...(.R.......
4401f990:	1563 aab4 a6db ae08 a875 a372 2335 ac63     c.......u.r.5#c.
4401f9a0:	aa0c adc3 ac62 a899 aca3 aab7 25e9 abfa     ....b........%..
4401f9b0:	a0ee acd8 a550 1d82 ad3e 2329 a04e a186     ....P...>.)#N...
4401f9c0:	a64a aa2d a170 2a4f ac65 a79b 9eac a1e1     J.-.p.O*e.......
4401f9d0:	2ab7 29fb ad38 2be4 2ae2 2b9a 005b 2010     .*.)8..+.*.+[.. 
4401f9e0:	1e8b 2655 2cbb a292 2af1 1ef7 0ea9 2cfc     ..U&.,...*.....,
4401f9f0:	a2ee acf7 9dba 294b 2d41 2ea6 ac4f ab20     ......K)A-..O. .
4401fa00:	29eb 26e3 a9b3 a6e1 ab13 a401 a95f ad30     .).&........_.0.
4401fa10:	a868 2aee 2c1e 2c27 2503 aa0b a332 2132     h..*.,',.%..2.2!
4401fa20:	280f 2ac5 2f6c a64a ad42 a6b2 abb9 2c71     .(.*l/J.B.....q,
4401fa30:	a25b a09e 20d1 ac1b a17d a70e 22ca 2f6a     [.... ..}...."j/
4401fa40:	a08d aa9f 2796 2d18 199d 9f32 ab10 a438     .....'.-..2...8.
4401fa50:	a765 23ba 266a afc9 aea8 2580 2c77 28e4     e..#j&.....%w,.(
4401fa60:	abc9 a1a2 22b1 2f63 314d ac08 244b 288e     ....."c/M1..K$.(
4401fa70:	aa23 2ad5 2119 2462 9da9 9e23 2c6e 290f     #..*.!b$..#.n,.)
4401fa80:	a8ff ae47 ad3f ab89 ad82 20ce 2e76 3370     ..G.?...... v.p3
4401fa90:	2cdb a701 99fd 2e13 3375 2fd9 a67c 2b4a     .,......u3./|.J+
4401faa0:	ad87 ac02 1f1c 2065 3039 ac05 a83a 9755     ......e 90..:.U.
4401fab0:	264d 2aab ac40 ac29 afa4 aabe 9ebe 2daa     M&.*@.)........-
4401fac0:	21db ac03 a755 a47e 2413 ae54 af79 9d74     .!..U.~..$T.y.t.
4401fad0:	a8a1 a21f 262a 2712 aca3 a73a 2e34 2392     ....*&.'..:.4..#
4401fae0:	a5c0 a9e7 aa4a 28c3 2e42 2af4 a964 197e     ....J..(B..*d.~.
4401faf0:	a4e6 2e71 20cd ad8a a1df 24cc 2ab4 a904     ..q.. .....$.*..
4401fb00:	aa5a 2145 2400 2cac 27df a5b4 a048 2af7     Z.E!.$.,.'..H..*
4401fb10:	25e1 2cae 2986 262b 2602 2af3 2cb7 2eed     .%.,.)+&.&.*.,..
4401fb20:	aa37 3032 307c 2d05 1e0c b1af 9f35 2c05     7.20|0.-....5..,
4401fb30:	2bbb 217b aa6f a4aa 2a40 1e40 a9df 2438     .+{!o...@*@...8$
4401fb40:	2041 980a a422 af1d a237 1df8 2b09 2784     A .."...7....+.'
4401fb50:	2ea5 2751 a76c a98c af9d 26f2 a8e2 ac99     ..Q'l......&....
4401fb60:	ac5c b24c a83f 274b 273c 0d6e a1d8 acd4     \.L.?.K'<'n.....
4401fb70:	28de 2e12 290b 2940 222f 1a4e 1c08 1e68     .(...)@)/"N...h.
4401fb80:	231a 2c94 264d aa8a 2c39 a6bb 2d94 2424     .#.,M&..9,...-$$
4401fb90:	24d5 2936 2a33 233b 24cf 2b13 2e29 1532     .$6)3*;#.$.+).2.
4401fba0:	2056 a8ae 2c71 19cc 2c11 a8f6 1b20 2bd8     V ..q,...,.. ..+
4401fbb0:	1f73 23ed 20d1 abc5 309a 326d 3194 b030     s..#. ...0m2.10.
4401fbc0:	a501 2dc4 30a0 2c6e adba aae8 2b17 a32d     ...-.0n,.....+-.
4401fbd0:	ac9d ac71 2967 26a5 a7f3 9a7f 29ab 2144     ..q.g).&.....)D!
4401fbe0:	2ca6 2567 958c 2c5b 2d63 a3d8 af7b b215     .,g%..[,c-..{...
4401fbf0:	988e 2e90 2b63 28fc ac8f 941f 2b91 2ae0     ....c+.(.....+.*
4401fc00:	2f1a 2ad8 a9f8 271f a577 ac4b 28bf 2904     ./.*...'w.K..(.)
4401fc10:	2895 2dcc 2af8 ae16 a8da 26c6 9819 29b0     .(.-.*.....&...)
4401fc20:	28b3 a2b7 aaa4 2494 2c4f 2995 af9e a549     .(.....$O,.)..I.
4401fc30:	2c1c 2d5d 20d9 23dc a954 2bda 2e4d a63a     .,]-. .#T..+M.:.
4401fc40:	a5e4 a80b 240a a90e 29e6 a9ad 232d 25f3     .....$...)..-#.%
4401fc50:	1ecc 28c2 ab04 a233 9f42 0f2a ab06 aa0d     ...(..3.B.*.....
4401fc60:	abf6 91b6 a5ac 2891 aa3b 28c4 9cc8 2d68     .......(;..(..h-
4401fc70:	1f99 2c0a a543 2980 2985 2283 28ee a925     ...,C..).).".(%.
4401fc80:	ad38 2b96 a374 ad5e a805 a8dd 2406 2cc9     8..+t.^......$.,
4401fc90:	a709 aedd acf8 9060 2a5a 2524 a3c8 28f2     ......`.Z*$%...(
4401fca0:	285c 2bc6 2be9 24fd a01e 1728 2588 9f16     \(.+.+.$..(..%..
4401fcb0:	a77d 23f1 a0b2 aef9 13de abe7 9465 ac7b     }..#........e.{.
4401fcc0:	b13b abb6 28b4 24cb 26b1 28c9 9cfb a4bc     ;....(.$.&.(....
4401fcd0:	2b2d 2b8a 1c15 a556 a9ca 20b0 27e5 2cec     -+.+..V.... .'.,
4401fce0:	2d3c 2c4a 287b 2d04 2d97 243b 2d5c 2c2a     <-J,{(.-.-;$\-*,
4401fcf0:	2721 2b29 a728 a029 288e 2cda ad05 a4c8     !')+(.)..(.,....
4401fd00:	267a a4ae 2764 9ebd 2cca 2827 28ad 1197     z&..d'...,'(.(..
4401fd10:	8d94 2070 abd2 a8f7 ac1c a62e 2c19 2ccb     ..p .........,.,
4401fd20:	2e39 ad1e abe6 22ff 2c89 26c6 aa54 acba     9......".,.&T...
4401fd30:	a595 268b 2c35 296c 218d 21d0 a6c9 28fa     ...&5,l).!.!...(
4401fd40:	a399 1da9 b009 a7e7 a60c 981d 1ecf a0dd     ................
4401fd50:	293b 242e 2c9a 2550 a117 ad92 2730 2d3c     ;).$.,P%....0'<-
4401fd60:	2928 263d 2b81 2d7e a0bd ae58 a0e3 a4c2     ()=&.+~-..X.....
4401fd70:	a719 a137 a0e9 2360 a9d4 ae90 aee6 aec1     ..7...`#........
4401fd80:	2bbc a78f a6f6 b037 b048 ad4a 92c6 2596     .+....7.H.J....%
4401fd90:	ae66 aef7 acf0 a9e8 ad2b a22a a922 2819     f.......+.*."..(
4401fda0:	249a 28ef 2fda 3207 287f a8dd ae0a b105     .$.(./.2.(......
4401fdb0:	b0df 2c00 a963 ac9b b1ef af79 9f68 2445     ...,c.....y.h.E$
4401fdc0:	ae2a b162 b1a7 a88b 1edd 1f06 2bef 2627     *.b..........+'&
4401fdd0:	242e aa8c 2929 2dd1 31c6 1fc2 251a 2c58     .$..)).-.1...%X,
4401fde0:	2c24 2f41 21e9 2b36 2c64 2c8a 299a 9cfb     $,A/.!6+d,.,.)..
4401fdf0:	2f7c 270a 271c 27ea 2bb9 2a81 2700 1dd3     |/.'.'.'.+.*.'..
4401fe00:	af9c 1d4c 9cc9 a6ba a8fe ae8d 2aec a2fd     ..L..........*..
4401fe10:	255c aab3 2234 298a a671 a74e 2c2f 9d49     \%..4".)q.N./,I.
4401fe20:	a7c9 24af 291d 2c03 280c ae65 9b72 9101     ...$.).,.(e.r...
4401fe30:	1d4d a782 ac02 a5dc 28bd 2801 9cdb b1fe     M........(.(....
4401fe40:	ae86 ae48 ad8b ab3d 247f 234c 216b 2c10     ..H...=..$L#k!.,
4401fe50:	2988 b0d0 1da2 28e6 24b7 9771 b25c adb8     .).....(.$q.\...
4401fe60:	a43e 2945 1950 ad45 adec a583 165a a6ca     >.E)P.E.....Z...
4401fe70:	acac 2a1f 2ac1 2c4a 2504 2404 2617 2dba     ...*.*J,.%.$.&.-
4401fe80:	2b54 2ec1 2c42 28a7 2d75 29e6 26fe 2b0c     T+..B,.(u-.).&.+
4401fe90:	a5c2 a637 ac27 b0f8 24fd a841 aaf3 a6b9     ..7.'....$A.....
4401fea0:	ad9d 2047 2cc8 290b a66f 292a a92b a813     ..G .,.)o.*)+...
4401feb0:	299b 2e2f 265b ab07 2656 2d4a 99eb ae0d     .)/.[&..V&J-....
4401fec0:	a3d6 a83c 266e 2295 1fea a46a aa5f 2743     ..<.n&."..j._.C'
4401fed0:	2bd1 2cad a6d9 ab33 ad8e afd6 af2b 28e0     .+.,..3.....+..(
4401fee0:	ac50 2797 a1ac 9429 a11c 2655 2bc1 a5a9     P..'..)...U&.+..
4401fef0:	95b4 ab9c ab10 29b4 21d5 2e1f aee8 959f     .......).!......
4401ff00:	9a1f 2744 2fac 2f06 2e3c 2bea 2767 a09f     ..D'././<..+g'..
4401ff10:	aa03 9c09 2271 acc3 2230 aad0 23c9 a576     ....q"..0"...#v.
4401ff20:	ac2e a878 1ef1 2d82 2da2 ab0a b133 a622     ..x....-.-..3.".
4401ff30:	a647 2c49 2c3c a4af a51a 2c75 2c9e 29c2     G.I,<,....u,.,.)
4401ff40:	286e 294b 2e15 252d 289e a576 2713 2a4f     n(K)..-%.(v..'O*
4401ff50:	9a76 a0e8 2841 14d3 a655 a8bc 9a16 9d5a     v...A(..U.....Z.
4401ff60:	289a a3d5 a1ec 285e 1a1c 2d50 291c 2d1d     .(....^(..P-.).-
4401ff70:	a237 25d5 a626 2a0c 2e1c 283d a75b a813     7..%&..*..=([...
4401ff80:	2d78 27fc 987b aa22 285b a9a8 2aa1 ac99     x-.'{.".[(...*..
4401ff90:	a6dd 2cc6 2e83 9c37 ac3c ab2f ac43 a906     ...,..7.<./.C...
4401ffa0:	a7de 24c2 2580 ac18 273e 2a8a 98e5 a810     ...$.%..>'.*....
4401ffb0:	2cc4 3004 acdb 9ff3 a5e2 30e2 2b21 9ded     .,.0.......0!+..
4401ffc0:	284d 2973 307c 2bcf ac69 a5dc 2659 1d20     M(s)|0.+i...Y& .
4401ffd0:	246a 2c2f 2675 2fbf 2f2e 2978 2d83 a2fa     j$/,u&././x).-..
4401ffe0:	2388 1a31 1de6 2977 2d1c a994 aaf3 a3ad     .#1...w).-......
4401fff0:	a56a a85c ab80 ab57 a2af 23a1 1a16 9e0a     j.\...W....#....
44020000:	a8ad af45 98f5 ac44 ae0b a287 a01a a68b     ..E...D.........
44020010:	aba1 2441 2643 2d39 1b85 a8ab 2118 2e35     ..A$C&9-.....!5.
44020020:	2a75 2927 2906 2877 ad74 aea7 b024 a1f9     u*').)w(t...$...
44020030:	2140 aa3d 25a3 2049 a586 a741 a22b a3ee     @!=..%I ..A.+...
44020040:	1f84 2d4f a825 aa60 a2a6 a99a 2cba a63e     ..O-%.`......,>.
44020050:	2755 aa9e a85e a78d 284d a9e6 9a90 247f     U'..^...M(.....$
44020060:	2d5e 3025 2ae2 ae31 ab42 2561 2c8a aef4     ^-%0.*1.B.a%.,..
44020070:	a3a9 a9ee 9b6d 27ed b068 a924 aebe a700     ....m..'h.$.....
44020080:	a8aa 9d6c 27c7 a5d4 2c60 216e 2b58 2d04     ..l..'..`,n!X+.-
44020090:	2dd7 a802 b047 ac5b 2195 3104 2ec6 21c8     .-..G.[..!.1...!
440200a0:	242d 27d1 a422 2ec1 2ee8 2334 270c a4f2     -$.'".....4#.'..
440200b0:	27ca 2eef 29c2 ac46 a6b2 a54c 2337 a489     .'...)F...L.7#..
440200c0:	aa66 2008 a3fc 23ea ace4 2bb3 2ed9 2f8a     f.. ...#...+.../
440200d0:	2d3d a5ec 2a6a 2497 2b9f a4e2 2c6d 2123     =-..j*.$.+..m,#!
440200e0:	a4ab 2acc 2bff 2811 1cfa ab12 a73d 9c15     ...*.+.(....=...
440200f0:	2989 a1bd 27df 31d1 25fd ac84 ad5e ae38     .)...'.1.%..^.8.
44020100:	abec ac31 ad13 b005 ad0f a83f b0af 9ec3     ..1.......?.....
44020110:	2b49 a955 9c6c adea 27bd 27ab 2dc4 2d1c     I+U.l....'.'.-.-
44020120:	2c64 89f5 a4cd a737 a015 2102 a8aa ac59     d,....7....!..Y.
44020130:	a832 20a8 9c64 a621 2784 265b 2296 21bb     2.. d.!..'[&.".!
44020140:	2e75 2812 26b3 2c07 93b4 2ba1 abc4 28bc     u..(.&.,...+...(
44020150:	22cc acf5 aade a682 9935 ad63 2491 29f9     ."......5.c..$.)
44020160:	27ce 2c06 28c4 29ce a1fd a75c a664 26d9     .'.,.(.)..\.d..&
44020170:	270b 254b a82b a77b 9fb8 20ab 2ea0 2ca3     .'K%+.{.... ...,
44020180:	a55e 2ebc a93a 2f0a 2c30 2e1c a49a ad91     ^...:../0,......
44020190:	a606 af42 aec7 aea8 a369 b26c ae1e aad3     ..B.....i.l.....
440201a0:	aa1d aba2 ad46 2240 ab1a a3d2 a9cd 28b2     ....F.@".......(
440201b0:	300b 2dac 2e10 2c75 27b3 13cb 2905 a7cb     .0.-..u,.'...)..
440201c0:	292c b139 a9e7 2521 a4a3 9d06 abf3 1c71     ,)9...!%......q.
440201d0:	27fa 2224 29e7 2c1f 2729 a19e 2b74 27c0     .'$".).,)'..t+.'
440201e0:	2443 a098 10dd 29e0 a8e9 a8dc a64f a373     C$.....)....O.s.
440201f0:	24bf ab92 ae11 a0dc 2c88 2441 2c6e ab88     .$.......,A$n,..
44020200:	a7d5 2041 2ad2 1462 2bb5 28c0 ae7e 2c64     ..A .*b..+.(~.d,
44020210:	2839 2a33 1f25 a352 268b ad84 270c a78e     9(3*%.R..&...'..
44020220:	23b0 a6ee 23ec afee ac1f 2377 2e29 300a     .#...#....w#)..0
44020230:	a557 29ae 2d34 ac4c 21a5 2a81 2a32 a3bd     W..)4-L..!.*2*..
44020240:	28e3 2a10 25d4 a6b5 ac84 ac7e ac1a 29b4     .(.*.%....~....)
44020250:	a855 109e a93e ad8c a8e7 a822 aaa2 a568     U...>....."...h.
44020260:	2463 21db ac5b a1eb 1346 20fe 2aa8 260b     c$.![...F.. .*.&
44020270:	26f3 2987 2201 28a9 2a00 aa4b a6be 27f6     .&.).".(.*K....'
44020280:	1c2e acf5 ae70 1510 9c20 ace1 a95d ae2e     ....p... ...]...
44020290:	a706 a4b0 990c a31b ac6f 24f2 a6ac 1f84     ........o..$....
440202a0:	1a26 273c aa45 27b8 2844 2cd3 28b3 a3f8     &.<'E..'D(.,.(..
440202b0:	2d3c aaa9 a945 b057 27b5 2a11 add9 aa26     <-..E.W..'.*..&.
440202c0:	9e17 2a0c a826 2c4e 2859 9eb5 aa8a 1d20     ...*&.N,Y(.... .
440202d0:	2902 28d1 2e29 a0c9 0448 adcc a46d af10     .).()...H...m...
440202e0:	ad96 288d af85 b0a9 ad9a a7ac 2a05 ae13     ...(.........*..
440202f0:	adae 20ca ad59 adec a7ea a7ac a787 a8a8     ... Y...........
44020300:	ac1f 2c63 a510 9e56 a96e 186c 228c 275a     ..c,..V.n.l.."Z'
44020310:	2a4f 303b 2827 2413 ae1e 241b 1cfb a925     O*;0'(.$...$..%.
44020320:	9cf1 26ff a948 a8e8 9d53 24bd 2378 a9df     ...&H...S..$x#..
44020330:	2698 aa89 a6b2 9c8f 2600 26f6 9e18 28f0     .&.......&.&...(
44020340:	2085 a8f9 2856 a6c1 a4bd a883 26ee 2834     . ..V(.......&4(
44020350:	a967 2b60 9b8a 9c74 24bd 2b05 2550 18f0     g.`+..t..$.+P%..
44020360:	236c aa6c a60b a4a3 abb3 aa82 a626 29e0     l#l.........&..)
44020370:	a74f aa0a a842 22df 277f 273e ab99 296a     O...B..".'>'..j)
44020380:	a823 a421 2320 a3f3 2100 aa2f a862 a1dd     #.!. #...!/.b...
44020390:	9e0a a6fd abc4 1cef 23b0 a61d a7e9 a2a5     .........#......
440203a0:	a867 2671 a9e6 a0dd 26f3 2889 a8bb aa37     g.q&.....&.(..7.
440203b0:	2662 226b a7c5 2687 a8df 9745 a9b6 a1e0     b&k"...&..E.....
440203c0:	9f36 a7c5 a943 a1ef a8da a82b 9fd2 18a5     6...C.....+.....
440203d0:	206b 211f a6b5 1d36 2195 21b6 9005 a9ca     k .!..6..!.!....
440203e0:	a8de a465 149e a5b7 9a2f 9ddd a73b a9bb     ..e...../...;...
440203f0:	a6b7 a7b2 ab26 1cb6 ab34 9f83 a895 2006     ....&...4...... 
44020400:	a5d8 a772 287b 27b9 a891 a724 9828 a9ee     ..r.{(.'..$.(...
44020410:	a652 a903 ab22 a5cb 28c5 2057 24c6 a679     R..."....(W .$y.
44020420:	a9cf a2ad 9f0d 2576 1c7c 28b3 a5c0 2015     ......v%|..(... 
44020430:	a4df aa4b a8ed 2881 1360 a504 a2fd 1e6f     ..K....(`.....o.
44020440:	a2df a506 1f5e a397 2351 28a7 2ae6 a4e7     ....^...Q#.(.*..
44020450:	28c0 2574 9bcb 22a1 92dc a066 a11f 23ae     .(t%..."..f....#
44020460:	a658 2471 ab91 222b a921 123c 2b1f a429     X.q$..+"!.<..+).
44020470:	2772 a075 28b9 9d54 a969 a997 2b19 a4a9     r'u..(T.i....+..
44020480:	a663 a44b a007 28c9 a8a8 a61a aa39 1e01     c.K....(....9...
44020490:	249b 28a5 a873 a9c5 a18c ac06 2bbb 25a4     .$.(s........+.%
440204a0:	a77e aadc aa90 2631 a880 2989 28cb 28b0     ~.....1&...).(.(
440204b0:	2224 26b5 2a6a 94ff a937 a8ef 281d 9323     $".&j*..7....(#.
440204c0:	2417 9f12 ab5e abea 206f 26a2 ab39 a905     .$..^...o .&9...
440204d0:	2896 a7a5 25b4 aa03 2207 aa4c a904 abd6     .(...%..."L.....
440204e0:	ab82 a5d8 2597 2189 13e6 24fc a9b6 2b33     .....%.!...$..3+
440204f0:	aa2b a9a3 28c4 231b a64d a445 25d4 9e49     +....(.#M.E..%I.
44020500:	a6a9 2834 ab48 9e48 ab5f ab43 aa69 28fe     ..4(H.H._.C.i..(
44020510:	a582 2492 28cc a975 2323 a60f ab93 1a39     ...$.(u.##....9.
44020520:	a8ed a90b a8eb 286f 17e8 a7f0 a5a8 247b     ......o(......{$
44020530:	a4dd a804 1f2c aa68 264c a9f9 286c a76d     ....,.h.L&..l(m.
44020540:	97fe 2703 2583 26de 95af 1fcc 9e4d a830     ...'.%.&....M.0.
44020550:	a9e6 aa71 a5a3 a80c abad a9c9 a8cf 27bd     ..q............'
44020560:	a654 a141 a8eb aabd 247a 11f4 ab57 a68f     T.A.....z$..W...
44020570:	a1f0 240d ab44 a4e8 aa1b a450 a874 19c5     ...$D.....P.t...
44020580:	aae8 aab0 aa41 a463 a831 26b4 a287 9a22     ....A.c.1..&..".
44020590:	23f8 1aa7 2870 a6b4 9e56 aacb 22d4 aa45     .#..p(..V...."E.
440205a0:	a177 a148 2595 a868 2338 a909 a863 1cd4     w.H..%h.8#..c...
440205b0:	a22e a855 a055 9e83 a971 a784 a6de 299a     ..U.U...q......)
440205c0:	a5a3 256f 084a a824 2435 25b9 a99a 21d7     ..o%J.$.5$.%...!
440205d0:	1aca a8b3 a670 aafa 22f2 28b6 abec a6d6     ....p....".(....
440205e0:	a1e4 8e60 a49d ab8b a849 9ca9 22f5 2487     ..`.....I....".$
440205f0:	237b 247a 2351 298c 282e ab63 28c7 1d28     {#z$Q#.).(c..((.
44020600:	a31f 2500 2794 a92b a987 a521 2a51 a54e     ...%.'+...!.Q*N.
44020610:	a6e5 a743 a15e a88d 22cb a8bf 234e abb9     ..C.^...."..N#..
44020620:	a0d7 2bb7 23f7 a716 aac2 28ec a86c aa37     ...+.#.....(l.7.
44020630:	276a 280a 1f8d a694 2620 ab91 a83d 9f83     j'.(.... &..=...
44020640:	a44c a4fa 9ff7 a9eb 1cd3 2858 ab6f 21fe     L.........X(o..!
44020650:	abed 236c 9774 a979 9d4e a445 9eba ab48     ..l#t.y.N.E...H.
44020660:	1d61 a746 ab1f aa85 1d44 246e 2432 9995     a.F.....D.n$2$..
44020670:	a914 242b a83f 9b9c a78a aa77 a8e8 2812     ..+$?.....w....(
44020680:	26f5 24dd 9a36 aa16 a283 a1f8 9a87 1f3c     .&.$6.........<.
44020690:	ac1a a972 a210 1bb2 a7d5 a4f8 a833 ab57     ..r.........3.W.
440206a0:	282d a9be aba9 a9bd a942 a64d a8fe 2873     -(......B.M...s(
440206b0:	ab98 9ecd a979 21e6 2679 2781 aa49 2852     ....y..!y&.'I.R(
440206c0:	2582 a9e8 24c8 ab98 2843 287f a8be aa81     .%...$..C(.(....
440206d0:	9fb6 27a0 aa0f 2864 a4e9 9776 9e22 a98b     ...'..d(..v."...
440206e0:	a108 1f2c a270 28b1 aa42 20a0 a71f 25a3     ..,.p..(B.. ...%
440206f0:	a056 216f 9501 9dc9 26b4 a946 a861 2870     V.o!.....&F.a.p(
44020700:	2835 27b4 a86f 204f aaba a7dc 1e52 a96b     5(.'o.O ....R.k.
44020710:	2106 ab26 a812 2a8f 24f9 27ec a652 260f     .!&....*.$.'R..&
44020720:	2488 27ba a875 2aef 23e3 2848 26dd 283d     .$.'u..*.#H(.&=(
44020730:	2889 ab2e a270 ab34 a45a 9165 24d4 a5c4     .(..p.4.Z.e..$..
44020740:	abba a90b a075 286b a8a0 1fee a712 ac08     ....u.k(........
44020750:	9df2 a3bc aa8c a083 9d17 2872 a923 20d1     ..........r(#.. 
44020760:	aa60 aac1 a916 22c1 a83d a0c9 a716 a1b6     `......"=.......
44020770:	263d a5a7 ab98 a86f aba6 a32b a6c5 a917     =&....o...+.....
44020780:	a8f6 08db 270e aa71 aa0a 25fa a9be 284f     .....'q....%..O(
44020790:	1b6f 2816 a500 2887 25e6 a8f7 26c6 9cb8     o..(...(.%...&..
440207a0:	1e4b 242b 1ed1 27a0 a843 a9e5 a799 ab48     K.+$...'C.....H.
440207b0:	a999 0d7e a67c 29fa 9839 a7be a0b8 24d2     ..~.|..)9......$
440207c0:	a869 a24d 2455 2907 a938 a0da 25c6 a6b2     i.M.U$.)8....%..
440207d0:	abc2 a928 a86d 26d7 a530 ab80 2824 aa35     ..(.m..&0...$(5.
440207e0:	28e2 a844 aaa0 9bfb a804 970f a075 a680     .(D.........u...
440207f0:	2875 aaa4 a4ff 27e6 a69e a86a 2438 a7e0     u(.....'..j.8$..
44020800:	2361 a628 a893 a5c2 2087 2767 1ec7 a950     a#(...... g'..P.
44020810:	ab60 2810 a887 a983 aabc 20aa ab83 1f4e     `..(....... ..N.
44020820:	a13e aa8c ab3f 13ee ab39 a34d aa3b abc4     >...?...9.M.;...
44020830:	242c 2839 a8af a8ae a8d3 9f6f 2589 2652     ,$9(......o..%R&
44020840:	a709 ab27 285d 9c99 aa4c 2599 ab5e 20bf     ..'.](..L..%^.. 
44020850:	ab4a a9be 2838 abf1 abd5 a2b0 a95d a68a     J...8(......]...
44020860:	a4dc ab0d 2637 26f4 25b3 a663 27a7 ab99     ....7&.&.%c..'..
44020870:	25a2 a25b 208f 261f 285a 26f4 1b5e 25e0     .%[.. .&Z(.&^..%
44020880:	2538 a6fc ac07 aae0 aa30 a0d6 24ce 1a39     8%......0....$9.
44020890:	2838 1a4d a307 09ec 2841 9c26 225b a1b1     8(M.....A(&.["..
440208a0:	a0d7 aa72 26ad 90d5 a8b8 15f3 a3ce 1d30     ..r..&........0.
440208b0:	9d85 2470 1935 a6db a9dd 2707 a9c1 27b7     ..p$5......'...'
440208c0:	aa4b a424 a5b5 ab07 a12e 26ce a540 a5e0     K.$........&@...
440208d0:	04ff a92d a4ff 2365 a007 2289 ab0b 2570     ..-...e#..."..p%
440208e0:	1b27 1cda 1b0c 2468 9fb1 9b20 23e0 a40c     '.....h$.. ..#..
440208f0:	9c58 a741 a75f a278 1eb2 aa31 283d a511     X.A._.x...1.=(..
44020900:	a9c8 a264 14d2 a9ec a9c2 11f1 27c0 a934     ..d..........'4.
44020910:	ab74 ab6c 2323 22e2 a8df a13b 20d2 248d     t.l.##."..;.. .$
44020920:	a4c9 aa73 276f aaf1 2767 8db5 271d aa9f     ..s.o'..g'...'..
44020930:	2782 0c15 ab99 a7ce 228e 20d2 a209 97cb     .'.......". ....
44020940:	25c6 abdc 1a57 24dd aa1c a5af a823 aaf6     .%..W..$....#...
44020950:	2377 a8e0 ab98 a2ab a8cd 2804 283e aae8     w#.........(>(..
44020960:	27b6 20d8 abac ad3f a5f8 a9e8 2d14 a46d     .'. ..?......-m.
44020970:	2563 a4d0 2cb1 2b2c 2aee 2723 1c6d a0a0     c%...,,+.*#'m...
44020980:	26ee 2c25 297d a07d 9f6e 2add 2a8e 1e26     .&%,})}.n..*.*&.
44020990:	2ad0 1a73 2b6d 2cb6 286d a919 277d 2e22     .*s.m+.,m(..}'".
440209a0:	a448 a8af adf4 2c01 2976 247a a81c add6     H......,v)z$....
440209b0:	1e8e 256d 2bc9 247f 9db4 2d15 2a61 1424     ..m%.+.$...-a*$.
440209c0:	a367 23bd ae45 29a8 2c11 2f3b 28fc af33     g..#E..).,;/.(3.
440209d0:	ab3d 28c4 2c7b 27d1 2046 aa93 a88a 244e     =..({,.'F ....N$
440209e0:	24a1 2758 2b1e 2a41 a63e add3 a6ff ac05     .$X'.+A*>.......
440209f0:	a70b acee 2927 2e1c 2f69 2ade 2092 9a09     ....')..i/.*. ..
44020a00:	a572 222c ac2b 1baa ad47 a53e a98c a485     r.,"+...G.>.....
44020a10:	a962 ad7e 1f9c 2d0b 27e6 9fad 9e54 2b45     b.~....-.'..T.E+
44020a20:	a325 aacf aa39 2da5 29d4 2d1e 0e87 21da     %...9..-.).-...!
44020a30:	2447 2a1a 29e3 a8c3 25db ab08 aa06 a49d     G$.*.)...%......
44020a40:	268d a9c6 b201 2587 2b08 a774 a936 ac0c     .&.....%.+t.6...
44020a50:	a6ca acfe aaaa 2a3e 28ab 2966 aba2 ac2d     ......>*.(f)..-.
44020a60:	ac85 2120 9fda a23f 24e5 aa0e ab19 2b75     .. !..?..$....u+
44020a70:	2c90 215f 28a4 a61f 2644 aa40 2a3f 28b9     .,_!.(..D&@.?*.(
44020a80:	1bd2 28e1 9986 2c06 2809 a073 2648 2791     ...(...,.(s.H&.'
44020a90:	28a5 a8b8 1e34 a6ee 9e52 2b04 29ac ab8c     .(..4...R..+.)..
44020aa0:	a80f 2a17 2835 a1d1 2ac0 2c43 2b65 2573     ...*5(...*C,e+s%
44020ab0:	a860 2b21 a2d7 284b 27d2 28ba 2e85 2de0     `.!+..K(.'.(...-
44020ac0:	2d59 2939 24fe 2d5d 2867 2509 23b1 a40d     Y-9).$]-g(.%.#..
44020ad0:	2391 aa3c 245b 27d7 ad42 abc3 a09e a25d     .#<.[$.'B.....].
44020ae0:	2ac8 ac37 2b8a 2ee5 27d9 a942 a4c1 2d1f     .*7..+...'B....-
44020af0:	ad8b ae08 9ed1 20ad 304d a31c 990d abb3     ....... M0......
44020b00:	ac50 2a71 28f3 a7a9 2a00 24e9 1fd7 9dc3     P.q*.(...*.$....
44020b10:	a8df 2b2c 291d a66a 2d27 a40c 2a40 a238     ..,+.)j.'-..@*8.
44020b20:	a4cc ac97 2483 168c 2a25 2c65 acc1 205f     .....$..%*e,.._ 
44020b30:	a86f a2b7 2a1f ab25 2605 2cd9 23a2 a92b     o....*%..&.,.#+.
44020b40:	a790 2cdb 2b25 a848 9a3a a13a 243f 2a76     ...,%+H.:.:.?$v*
44020b50:	281d 2b83 9890 2d8f 2294 29da 25db a502     .(.+...-.".).%..
44020b60:	a29b a976 a9ef ac5b 982a a903 259a ad56     ..v...[.*....%V.
44020b70:	a9fc a950 1db6 27ac ab29 a6cb 1f84 a0a8     ..P....').......
44020b80:	2830 2682 2e38 0e72 2c1b 2d82 2b64 9ee8     0(.&8.r..,.-d+..
44020b90:	2d50 2a2d a0b1 a5ba 2fb0 2620 aa43 a255     P--*...../ &C.U.
44020ba0:	2839 9249 2cee 223a a841 a686 b125 2d4a     9(I..,:"A...%.J-
44020bb0:	2b76 21b9 220f 2327 ac64 28c1 a15d 1cf8     v+.!."'#d..(]...
44020bc0:	24c3 2a4f 2bdd 2b3c a85c abcb 2817 a19a     .$O*.+<+\....(..
44020bd0:	a323 9655 a9ce 2935 a649 a0e3 a57b a590     #.U...5)I...{...
44020be0:	2997 246d 2ae1 8dff 240c 9103 a9bd 25bc     .)m$.*...$.....%
44020bf0:	ad7f 29fd 9c0c 2d1f 2c05 a52c 2920 2fdb     ...)...-.,,. )./
44020c00:	2ced 297b 284c 277f 211b a983 a19f 98f1     .,{)L(.'.!......
44020c10:	a58c a54f 2dd8 2db1 2c5d 29bd aa05 1f03     ..O..-.-],.)....
44020c20:	a3ae ac38 ac0a 260d 2fea 2fcb 99be a9ea     ..8....&././....
44020c30:	3065 2eec 2ebf 2a8c a1cd a52d a870 a4d0     e0.....*..-.p...
44020c40:	2d4c 2e51 b011 29b3 2b8e 2a67 2dc8 2a59     L-Q....).+g*.-Y*
44020c50:	2504 ab7d 2b04 28f9 27b0 258e a8a5 a94b     .%}..+.(.'.%..K.
44020c60:	aa9b 9875 2c5e a86b a59f a8fa 94e3 259f     ..u.^,k........%
44020c70:	2c9a 2a8c aa91 28fc 2cf2 a41f 9614 2dcc     .,.*...(.,.....-
44020c80:	8262 279c a894 1a0c 2aa6 aa39 2a55 2578     b..'.....*9.U*x%
44020c90:	24a4 aac6 92a8 2d23 2b82 a15a a822 a6a1     .$....#-.+Z."...
44020ca0:	22a1 2a10 a2ac 24af a50f a3c3 23a6 26df     .".*...$.....#.&
44020cb0:	a3b2 a4d2 a768 a4c7 ac20 aaba 27d7 2c55     ....h... ....'U,
44020cc0:	2a2c ae32 ac7c 295f 2c98 2c0a aa0d a86f     ,*2.|._).,.,..o.
44020cd0:	2509 2325 2c89 2d57 a98f 2820 a5a1 aa9d     .%%#.,W-.. (....
44020ce0:	a26f a6e5 ac63 2f2d 3053 3174 2ed8 ae47     o...c.-/S0t1..G.
44020cf0:	a889 a885 2a7d a6c3 acfa a525 a6d9 25a5     ....}*....%....%
44020d00:	2af7 a6de 2245 1518 a0ff 2649 a871 ab9c     .*..E"....I&q...
44020d10:	9641 26e1 255c 2c7d 2439 2461 abe4 b136     A..&\%},9$a$..6.
44020d20:	2f5f 2953 9ecb ad10 b06d 1ddb 2894 a105     _/S)....m....(..
44020d30:	ad51 1d13 a910 a438 a9c6 ac53 9eee 2010     Q.....8...S.... 
44020d40:	24ec 2b9e 273a 2b08 2f56 2755 2325 b03e     .$.+:'.+V/U'%#>.
44020d50:	b0ee 2f7f 285b a9fd aff7 b00e 1b45 1c0e     .../[(......E...
44020d60:	ac03 b0d3 a63a 2983 2694 25f6 a3ae 2846     ....:..).&.%..F(
44020d70:	9d80 291d 2682 ae85 22e5 ad99 a7ae ad7f     ...).&..."......
44020d80:	2595 2ee0 ab64 1f81 abec a7a7 2ab4 2b38     .%..d........*8+
44020d90:	2c1b 2b2c 232b 1cdb a64e 2aa2 a5d2 a674     .,,++#..N..*..t.
44020da0:	add0 aafb 26c2 1a2b 1c1c ad3c 27a8 2b2a     .....&+...<..'*+
44020db0:	28ab a7cd 9c62 a44b 2c94 a5f0 a293 1f20     .(..b.K..,.... .
44020dc0:	2831 249f 2af5 2c15 a396 ab10 1f54 a815     1(.$.*.,....T...
44020dd0:	a393 a4ec 249a 25b4 27f2 2a92 a457 a455     .....$.%.'.*W.U.
44020de0:	2d73 28cf ab5d ac25 2e8d 2c8e 9623 acd1     s-.(].%....,#...
44020df0:	aab6 9d0f 2484 a999 9f35 a9d1 addb 2899     .....$..5......(
44020e00:	2408 2089 a765 a1c8 aa74 a8fc 23a1 ae89     .$. e...t....#..
44020e10:	b0dd ae55 a843 2586 3124 ad73 b015 acc6     ..U.C..%$1s.....
44020e20:	a37f 2d17 a6d1 2975 2be8 26e4 a415 a4d3     ...-..u).+.&....
44020e30:	a464 2a37 a9ce ac7c abf9 9f2c a585 ab17     d.7*..|...,.....
44020e40:	ac6d ad5b 2d9d 2c97 03c6 a31a af51 ac44     m.[..-.,....Q.D.
44020e50:	a406 8b16 234f a8a2 278c 1d3e aa9b a847     ....O#...'>...G.
44020e60:	25ea a5b6 27aa aa9b a4ab 2221 a5c4 a0fa     .%...'....!"....
44020e70:	2328 22ec 2850 aa76 accb ad10 b12e 28ea     (#."P(v........(
44020e80:	95df a8d5 a7d5 a873 2e2b 2111 a255 ab71     ......s.+..!U.q.
44020e90:	2127 a8ba 21d6 2b7d 2a9f 280e a5c8 2849     '!...!}+.*.(..I(
44020ea0:	242a 26e9 a39f aafc 2735 318b 2db4 29a7     *$.&....5'.1.-.)
44020eb0:	2309 ace3 a81c 281d 25c3 a056 ad01 ab11     .#.....(.%V.....
44020ec0:	a618 af2a 2559 2609 a1b2 abf8 b10c a4de     ..*.Y%.&........
44020ed0:	22dc 29c3 a40f ae19 a518 a472 a9fd 2557     .".)......r...W%
44020ee0:	2a91 2893 264a 29e7 2903 a146 2b03 a403     .*.(J&.).)F..+..
44020ef0:	27ac a2ae a92f a301 27ad 2999 23b5 abdf     .'../....'.).#..
44020f00:	a518 a905 0f03 a21c 2666 a93c aa40 a30a     ........f&<.@...
44020f10:	a68e 2c34 a926 2c2f 25e6 a049 978e 2544     ..4,&./,.%I...D%
44020f20:	2c76 a256 2a6b ad29 0d58 27ec 2abb 28ea     v,V.k*).X..'.*.(
44020f30:	aa72 a8cf a588 a8ce 26d7 9f07 b07c ae9c     r........&..|...
44020f40:	a647 95ed 298f af7b 2c7e 2f66 272c 1c5e     G....){.~,f/,'^.
44020f50:	9a5a 2cfa 267c 1439 a7dd 233e a9c0 a96a     Z..,|&9...>#..j.
44020f60:	a586 a3db a596 2b66 291f 1b9a 24ea acd6     ......f+.)...$..
44020f70:	a783 a11d 2955 2b6c 2d36 2c87 a500 a780     ....U)l+6-.,....
44020f80:	2d79 a4fc 2c33 29b6 a0d8 2725 a23b 9e8f     y-..3,.)..%';...
44020f90:	25c0 28e2 ad1d 2483 264a 217b ab97 a797     .%.(...$J&{!....
44020fa0:	1910 a7fb 2d31 257a 2c3e a5ce 1cb1 a5a1     ....1-z%>,......
44020fb0:	2b7e 2d0e 1a16 a80e a55e 2436 ab49 9e0e     ~+.-....^.6$I...
44020fc0:	a517 21b8 aa74 a45a 299b 2e60 2d22 29fe     ...!t.Z..)`."-.)
44020fd0:	1ca6 a8ef adfa a860 97aa 1bb6 10ba 1fcd     ......`.........
44020fe0:	2d80 ad95 2806 275c 2460 27fb ac3c a01b     .-...(\'`$.'<...
44020ff0:	2097 26c8 2c3c 1e94 2688 a39f 2cae a918     . .&<,...&...,..
44021000:	ad9f ae33 adf4 ad7e 9773 2c05 2422 ad6d     ..3...~.s..,"$m.
44021010:	ad8a ad01 2854 ad86 af7f ab00 26bc 2d0e     ....T(.......&.-
44021020:	a727 a2fc 25b0 2749 9fd0 2415 a5b6 ad91     '....%I'...$....
44021030:	a21b 27f4 2ccd acaf a6a5 2894 228f 9249     ...'.,.....(."I.
44021040:	2909 a491 2c6e abdc aa4a 2d93 2181 2d82     .)..n,..J..-.!.-
44021050:	acb1 a944 2a1b 2c71 2971 14bf 2de3 8ee0     ..D..*q,q)...-..
44021060:	21ba 288a 2d72 2f8e 1c58 9088 2c57 2ce4     .!.(r-./X...W,.,
44021070:	adec 2597 298a 2eb9 abff 9b17 2d01 2b86     ...%.).......-.+
44021080:	276c a9a3 2ea6 2022 2e84 2be3 240e 2f43     l'...." ...+.$C/
44021090:	a988 221d 21bb ae66 2fba ace7 a9c1 9ea7     ...".!f../......
440210a0:	2669 92a8 aa1f ac14 9e5c ac84 2b94 26df     i&......\....+.&
440210b0:	2122 a5e5 2cf3 a8f6 2a8f a423 ad96 ae46     "!...,...*#...F.
440210c0:	b067 2a56 2b71 288e ac46 aea7 9f95 a016     g.V*q+.(F.......
440210d0:	290c 229b 2750 a45c 2c3e 2157 278f 25aa     .)."P'\.>,W!.'.%
440210e0:	a055 2aa6 a938 1d1d 227e 9eab 2228 270b     U..*8...~"..(".'
440210f0:	9d1f 2825 a6dc 293b 1877 2990 a888 ae89     ..%(..;)w..)....
44021100:	b227 229b 208d a888 250e a9fe 2829 2f6d     '..". ...%..)(m/
44021110:	1f65 2c4a 1673 a53a 2cac 2bb3 2600 251f     e.J,s.:..,.+.&.%
44021120:	ab16 a4c2 2c34 a126 a756 224b 25a4 a1b5     ....4,&.V.K".%..
44021130:	ae29 acc5 ac1e 2210 a8d1 ad3b acaa 9463     )......"..;...c.
44021140:	24c7 ad5c ad85 ac72 a4cd 29f7 2200 a9c6     .$\...r....)."..
44021150:	a845 acf5 ad8e b0bb a691 2c1c 2a70 2b78     E..........,p*x+
44021160:	a9da ad54 a8c5 287b 2db2 2433 af59 2525     ..T...{(.-3$Y.%%
44021170:	2a29 2a98 28a0 ae22 2966 2e0e 2838 18c2     )*.*.(".f)..8(..
44021180:	aae6 a112 24c3 a2cb 9fbf a982 2c20 2893     .....$...... ,.(
44021190:	2c9c 26a6 a4e0 aeb1 211b 2bdc 2a09 adf5     .,.&.....!.+.*..
440211a0:	ad9a 2a2c 94fb 27d1 a981 2b55 2d58 28dd     ..,*...'..U+X-.(
440211b0:	2da5 a4a0 2981 28b5 29f4 2fc4 a719 a96b     .-...).(.)./..k.
440211c0:	a9fa 9f9c a4d6 af13 2bfb 29da 2eb4 9b92     .........+.)....
440211d0:	ae25 2d02 a3b3 2bda af42 adf7 1832 2235     %..-...+B...2.5"
440211e0:	296c 9fba 1c36 26dd 22da 22d4 1cdf a3b2     l)..6..&."."....
440211f0:	2db8 20f0 2c21 ad7d a856 ae10 1c96 2dc9     .-. !,}.V......-
44021200:	1fb8 a968 a18f 2d09 2d97 267c a04e 2009     ..h....-.-|&N.. 
44021210:	2aa7 2c82 9a08 2bf0 a6a7 2bec a86a a97c     .*.,...+...+j.|.
44021220:	89bf 2c41 9955 a6cf a499 1e76 a856 2b4e     ..A,U.....v.V.N+
44021230:	2757 2d1c 2581 a380 ab1c 244e 2b86 a5a6     W'.-.%....N$.+..
44021240:	1c96 ae50 a611 a626 26fe 2757 27a9 a83d     ..P...&..&W'.'=.
44021250:	ac6c 2af2 2cdf 25bc 22b7 a82e 21f6 a808     l..*.,.%."...!..
44021260:	a5f3 a751 2be1 a64b ac2f ac66 2812 2393     ..Q..+K./.f..(.#
44021270:	ace3 2729 a85f a5c2 ab39 2ff2 289c aa81     ..)'_...9../.(..
44021280:	1d64 24aa 305c 2f86 2b35 a97d af79 addd     d..$\0./5+}.y...
44021290:	2145 1cc1 2368 a092 a9ba 1924 2afc 2b23     E!..h#....$..*#+
440212a0:	1543 a9cf 27a9 1e9a 9521 a534 251a a938     C....'..!.4..%8.
440212b0:	205b aef8 af49 a46d 2aeb a22c 2601 2500     [ ..I.m..*,..&.%
440212c0:	1fda 24f4 2972 ab27 a5e9 2900 aa40 a955     ...$r)'....)@.U.
440212d0:	2a9b 2032 a894 aca7 a7f2 a2bb 9c9a abc6     .*2 ............
440212e0:	a990 2048 217f 294d 2a2a 20d5 a65c 2ae7     ..H .!M)**. \..*
440212f0:	2653 a794 1d8b 1ea9 2882 2a02 a994 a92c     S&.......(.*..,.
44021300:	aa0b 2b04 ac7c accf 2053 a08e 272d 9608     ...+|...S ..-'..
44021310:	aca1 abec a354 a50d aaa8 a881 a484 263d     ....T.........=&
44021320:	2606 1ec9 3019 9d21 1eea 2b7d a8d4 3034     .&...0!...}+..40
44021330:	2ec7 257d 296e 18d6 3040 2e82 2824 2551     ..}%n)..@0..$(Q%
44021340:	ac13 2e97 2a57 aa03 2623 29a1 2d51 2ada     ....W*..#&.)Q-.*
44021350:	2c99 9ab5 29d2 acb6 ac16 237d 1ba0 2ddd     .,...)....}#...-
44021360:	b04a 22fb 22e2 2d2f a98b ab16 ac4b 254c     J.."."/-....K.L%
44021370:	2769 a1f5 aec1 ae49 9ef3 2c2b a653 ab42     i'....I...+,S.B.
44021380:	ad08 2be5 a44e ac48 ad79 a4a1 9e54 3093     ...+N.H.y...T..0
44021390:	31cb abba 243e 28e1 2e66 b112 a9bd 1dbf     .1..>$.(f.......
440213a0:	a95d 21ec ac13 abaa 9272 2d4d 9877 af36     ]..!....r.M-w.6.
440213b0:	a959 ad2f 2de1 267b ad7f 2da7 2f90 2834     Y./..-{&...-./4(
440213c0:	a23c ac37 2ab4 2bd7 253f a21d a95a a838     <.7..*.+?%..Z.8.
440213d0:	13e2 2b3c 2c5f 2618 ab9d 282b 2c2c 2b44     ..<+_,.&..+(,,D+
440213e0:	2d47 a783 a2f0 a6ca 2c3e 2a2a aae2 9e1d     G-......>,**....
440213f0:	a96c a566 9dd0 ae9b 1a8c a522 2734 a998     l.f.......".4'..
44021400:	a6c4 acc6 a75f a92f 9b7e aaf8 a802 23b3     ...._./.~......#
44021410:	2cb5 29b2 28ca a3a7 aa76 2887 2a66 a264     .,.).(..v..(f*d.
44021420:	2882 2eac 24ef a076 ac85 9f2a 2ccd aa33     .(...$v...*..,3.
44021430:	ab2d aed6 2b43 a047 2403 9d9e ad46 a561     -...C+G..$..F.a.
44021440:	aac9 a793 aa8b ad23 24d8 9b39 280b 2cf8     ......#..$9..(.,
44021450:	2e72 279f 2ae4 275a adca 2ea7 26a7 2e21     r..'.*Z'.....&!.
44021460:	2e8d 260b 2db7 2862 a248 2a52 2a3e 2a96     ...&.-b(H.R*>*.*
44021470:	26c6 0cc7 207e 2d26 1ccb 25ca a639 20dd     .&..~ &-...%9.. 
44021480:	2aab 258e a68a abcf 9cc8 9ffe 2ac0 a93c     .*.%.........*<.
44021490:	28dc 20a6 9ea5 27dc a6dc 28b6 2996 25f7     .(. ...'...(.).%
440214a0:	a9a2 a430 2adf 2029 2cbe 27ef a606 a6a3     ..0..*) .,.'....
440214b0:	a7cd a687 2455 26f7 2d73 22b2 2c7c ad05     ....U$.&s-."|,..
440214c0:	a40c 25e4 aa64 9d30 adfc 292c 24d0 a946     ...%d.0...,).$F.
440214d0:	ac31 accd a10d a8d3 2b3c 23aa ac47 a86f     1.......<+.#G.o.
440214e0:	2670 a650 a4e3 24d3 ab78 afab a1da 9568     p&P....$x.....h.
440214f0:	a970 2261 2d7b 28f7 3137 2c72 2937 23a7     p.a"{-.(71r,7).#
44021500:	24e7 a116 2a3c a540 2511 12a8 2e9d 2820     .$..<*@..%.... (
44021510:	2ac9 2753 28ac 2667 2d7a 2d08 27f5 237f     .*S'.(g&z-.-.'.#
44021520:	a835 ac1e ab8c 28e8 29a2 1dce afa2 ac64     5......(.)....d.
44021530:	25f5 2b32 a75e a151 2224 28c6 a13d 2ab7     .%2+^.Q.$".(=..*
44021540:	9b71 2310 a83d a5cf 2754 a415 296b 2760     q..#=...T'..k)`'
44021550:	95cc adc0 8d38 a7a7 acd0 a284 280b ae46     ....8........(F.
44021560:	ad0d 2b4f a03f 2b8f 17bf 2246 21a5 2c18     ..O+?..+..F".!.,
44021570:	2b93 2b1a a659 ad0f 2c0b a67f 23e7 2eb5     .+.+Y....,...#..
44021580:	2cad 2a29 ad80 28c7 ad41 29bb 2cbe 29a2     .,)*...(A..).,.)
44021590:	2722 a8c3 a07a 2a2f 2997 2dc4 25db a568     "'..z./*.).-.%h.
440215a0:	1eb4 258b 30c3 254a acd5 2c78 a1c3 2b63     ...%.0J%..x,..c+
440215b0:	2326 287f ab10 a73a 2904 a976 a3fa a1f2     &#.(..:..)v.....
440215c0:	abd2 aac7 2a5a 2820 1764 2581 a015 9c27     ....Z* (d..%..'.
440215d0:	2aaf a07c 21c4 a179 ac73 28c4 a8a5 286f     .*|..!y.s..(..o(
440215e0:	251f 242b a2b2 2a87 2b05 2835 9b8e 27e0     .%+$...*.+5(...'
440215f0:	a703 27e9 24ae 2de0 2da2 2b39 2706 2587     ...'.$.-.-9+.'.%
44021600:	2aa7 2c24 22f1 2aa3 aa1e acd1 a20b aa24     .*$,.".*......$.
44021610:	2615 2534 a8a1 aaab 2d72 2f89 2973 2d72     .&4%....r-./s)r-
44021620:	a515 2f86 2e12 293d 29b4 a32c 2e85 2202     .../..=).),...."
44021630:	246d 938b aade 2893 23d7 26fb a337 203c     m$.....(.#.&7.< 
44021640:	26a1 3026 2bf0 2421 2aff ac06 9204 af4a     .&&0.+!$.*....J.
44021650:	a98c a4b9 a93c 1a14 ae66 a1a5 ac57 a547     ....<...f...W.G.
44021660:	26ba abb2 a915 abda a691 a55d 2e48 2c3d     .&........].H.=,
44021670:	a585 a5b7 b0a0 2820 2fe8 a695 1cda a9f9     ...... (./......
44021680:	2f67 2a23 aa6f 2cf8 320b 24cc 2978 a764     g/#*o..,.2.$x)d.
44021690:	2578 30b0 2b44 ab41 a66b 9e0c 2825 25a6     x%.0D+A.k...%(.%
440216a0:	a6bc a8dc 2a71 2d25 22ee 3067 a006 aa2f     ....q*%-."g0../.
440216b0:	2d7c 2640 a2b1 ae3c 2b7f 33f9 25fc ad6d     |-@&..<..+.3.%m.
440216c0:	a8bf 2ff7 2d2b 970e a92f 2547 269e a6c9     .../+-../.G%.&..
440216d0:	123f 2c70 1814 309d 2aa7 acfb a98b a4cf     ?.p,...0.*......
440216e0:	2bbc 2420 2753 9e90 2340 2726 affd 2a35     .+ $S'..@#&'..5*
440216f0:	292f 2ba0 acd0 a2ad 2c71 2ebc 28ab 2124     /).+....q,...($!
44021700:	a197 a64f 2636 2431 2a6d 24b4 2d0a a4e8     ..O.6&1$m*.$.-..
44021710:	26ae a96c 2bfe 267f 2cda 252f a067 2d07     .&l..+.&.,/%g..-
44021720:	2e5c 9c8a 921a 2948 2220 2890 a9c2 2b19     \.....H) ".(...+
44021730:	280d 1cab a843 a9c6 298c a7e3 2074 2be1     .(..C....)..t .+
44021740:	2bc3 adc1 a774 2a83 2b33 21dc a6de 2712     .+..t..*3+.!...'
44021750:	a322 2d6b a4fd abb9 2520 2765 24d7 a884     ".k-.... %e'.$..
44021760:	a82d 2283 225e 2a85 2062 a67d 255c a8f9     -.."^".*b }.\%..
44021770:	b1ff ae2a 219d acf7 a17c b00a b007 aafc     ..*..!..|.......
44021780:	ad0a ad0c aa55 2d80 a77d 1f56 a019 2c2f     ....U..-}.V.../,
44021790:	248d 2de5 2ce4 a017 2ba6 1b21 2ab7 28bb     .$.-.,...+!..*.(
440217a0:	ab57 acc6 2dca 1c97 ac14 a058 a58a 1f8c     W....-....X.....
440217b0:	2627 23c5 2caa 24ce 2551 ac5f a871 2d8b     '&.#.,.$Q%_.q..-
440217c0:	2d35 2d3d aad6 2590 a3aa 14bc a83c aad8     5-=-...%....<...
440217d0:	2825 2694 259f a962 a9c6 2517 a684 2a53     %(.&.%b....%..S*
440217e0:	2a10 a6dc 2cd3 2fe1 2b71 27f2 a456 257e     .*...,./q+.'V.~%
440217f0:	2a37 2a62 20e9 286f 2aff 1f01 a08e 25dc     7*b*. o(.*.....%
44021800:	2116 2a1d 2ec1 ac17 a7d1 3113 a830 205c     .!.*.......10.\ 
44021810:	2c77 204c 9d3a ad44 a993 2c1b ad4e b057     w,L :.D....,N.W.
44021820:	a516 23f0 2cb8 ae70 ac6e aa02 a3f0 a2fb     ...#.,p.n.......
44021830:	ab60 a93c ac00 add0 1b43 aaac a463 a78f     `.<.....C...c...
44021840:	2dca 2af5 295b a3c3 279e 2c85 295e 2c25     .-.*[)...'.,^)%,
44021850:	984e a9bc 2c46 2e91 223a 25e9 249a 2ba7     N...F,..:".%.$.+
44021860:	ac03 9888 225d 258e 2c0f 24e0 ac67 ae22     ....]".%.,.$g.".
44021870:	2d3c 27a0 154d 28a6 9e1c 203e a629 2e57     <-.'M..(..> ).W.
44021880:	2768 2443 abb5 a558 2a01 2a8c 283a 218f     h'C$..X..*.*:(.!
44021890:	2c17 a676 2364 acd1 a48f 2f77 9cbb a0c2     .,v.d#....w/....
440218a0:	a789 1d88 2c21 1b14 1c4e 24bb 275d 2bfe     ....!,..N..$]'.+
440218b0:	9824 3067 29ed a801 9e18 abde 147a 2cd8     $.g0.)......z..,
440218c0:	ad7d ac10 a6a5 ac05 ad94 ac1f 2d1b acd0     }............-..
440218d0:	af1d aa9e 1f61 2957 a2e6 a890 24b6 2585     ....a.W).....$.%
440218e0:	aaf5 2ab1 9a74 9e6c 2bdb a5fd 2a4e 2700     ...*t.l..+..N*.'
440218f0:	a521 280c 27d8 a314 23fb a9c1 2a6d 248a     !..(.'...#..m*.$
44021900:	2817 a8e1 a9b4 a038 a4ae 2992 a694 24ec     .(....8....)...$
44021910:	256c aa30 a47d 253c a52b 2484 2765 25cc     l%0.}.<%+..$e'.%
44021920:	257c aa40 107f a570 a676 a4ef a078 a299     |%@...p.v...x...
44021930:	a66f 2741 a6f2 1d36 27a4 a752 a610 0d0f     o.A'..6..'R.....
44021940:	ab2f 1df3 aa69 20ee a8ed a4ed a5ad a32c     /...i.. ......,.
44021950:	26bb a0b7 ab85 ab4e 9fbe aab7 256b 285e     .&....N.....k%^(
44021960:	1ecd 8e88 98c0 ab84 1442 a916 9a9c a3cc     ........B.......
44021970:	243d 1e1f a19e 9c08 2085 a964 a475 ab22     =$....... d.u.".
44021980:	a002 aa2d a7b8 a88f a4ca aa71 a6de a9a5     ..-.......q.....
44021990:	a713 a561 a934 aab9 275e 9ed5 a91c 19b5     ..a.4...^'......
440219a0:	a343 aa22 a37e ab4f 1a34 a9d4 1570 ab93     C.".~.O.4...p...
440219b0:	a8db abbb 25d6 2384 a80d a8b0 a74a 1380     .....%.#....J...
440219c0:	1cc8 275f 288b a606 25ea aaae 2064 a9a5     .._'.(...%..d ..
440219d0:	28b3 a529 2312 2123 27b4 2114 26cc a4e4     .()..##!.'.!.&..
440219e0:	a86d a6c2 aa18 9e48 246f 2a98 28c8 29e4     m.....H.o$.*.(.)
440219f0:	276d 299a 28b1 2795 a95d a3e2 2324 a922     m'.).(.']...$#".
44021a00:	aa1c 22ba a9fe a525 9cc1 24f2 a933 20b4     ..."..%....$3.. 
44021a10:	28a0 a026 9f46 aa36 9f00 9d3f aab7 219f     .(&.F.6...?....!
44021a20:	a96e a920 2610 27fa a9ca 2885 29fd ab36     n. ..&.'...(.)6.
44021a30:	a0fc 268f a904 2a3c a970 a94e aabf 1348     ...&..<*p.N...H.
44021a40:	a181 a409 a99c a7a1 aa26 aa7d 9e67 a18a     ........&.}.g...
44021a50:	a916 a80d 2432 24e6 aaba 2770 a314 2815     ....2$.$..p'...(
44021a60:	a339 a0b0 204a 25e1 9a0c 28a5 1deb abbf     9...J .%...(....
44021a70:	272c aa57 a64b 25d5 28ca a38c a473 2934     ,'W.K..%.(..s.4)
44021a80:	a5d6 a415 a123 25c4 23d9 2810 a3b3 9c9d     ....#..%.#.(....
44021a90:	a0d9 2882 a8b2 a192 2550 a85f a6ac 1e20     ...(....P%_... .
44021aa0:	2ac0 26c2 2812 a806 2621 29ed 1c37 2a64     .*.&.(..!&.)7.d*
44021ab0:	a809 a48f 1d70 2698 a81b a605 a7db 189d     ....p..&........
44021ac0:	9fb3 2594 a509 2305 a855 a724 9dfc aad3     ...%...#U.$.....
44021ad0:	aae1 aa29 a990 276d 9a29 2456 ab71 ab61     ..)...m').V$q.a.
44021ae0:	a246 2838 a3a3 a979 9ff4 1142 9d30 aab4     F.8(..y...B.0...
44021af0:	a377 9f66 9ec8 2497 a99c aa40 27e4 a854     w.f....$..@..'T.
44021b00:	2229 a869 9dfd a2ac 289d a4b6 2484 1830     )"i......(...$0.
44021b10:	aa21 a9bd 9cd6 abb9 2445 aa20 a713 1d81     !.......E$ .....
44021b20:	2121 aa92 9c97 a57d 28a3 2816 a947 23cd     !!....}..(.(G..#
44021b30:	aaa0 2473 1c98 2ade a2a3 a8ac 2923 ab5e     ..s$...*....#)^.
44021b40:	2963 a1e9 a633 a819 a460 2052 29dd 1d89     c)..3...`.R .)..
44021b50:	2169 a5d6 2942 2b69 ab0c 259a a9de a9a0     i!..B)i+...%....
44021b60:	2856 2a8d a736 23bf 1ec4 25b9 250b a966     V(.*6..#...%.%f.
44021b70:	a3d2 26ca a5e5 abea a6af 2403 24cc a86c     ...&.......$.$l.
44021b80:	ab4c a49e abef ab31 258b 9126 a0e1 a9be     L.....1..%&.....
44021b90:	249e ab41 a6eb 256f 2630 a23b a496 a9fa     .$A...o%0&;.....
44021ba0:	a855 268f 2848 a1ed ab47 aaf6 28b8 25bc     U..&H(..G....(.%
44021bb0:	ab26 9c09 a9e7 9cc2 ab15 aa72 283f a438     &.........r.?(8.
44021bc0:	1dcb 24bc 1af4 a1fa a100 a8b2 a8ec 1d95     ...$............
44021bd0:	188c 1bdd a9f2 a81e a0ae a161 1977 a83f     ..........a.w.?.
44021be0:	a7d7 ab64 206c a5f6 27da a828 aaff 1b72     ..d.l ...'(...r.
44021bf0:	1917 a9fd 2694 a842 aafe a62c 29e0 a58b     .....&B...,..)..
44021c00:	a76d a859 2352 285b 1cf9 2193 a6b0 2818     m.Y.R#[(...!...(
44021c10:	9bf4 a70b a7bb 9b4a a685 ab7d 9fe8 a536     ......J...}...6.

44021c20 <conv2_weights>:
44021c20:	2ca0 9ff5 ab90 1a57 ab04 2f17 3026 276b     .,....W..../&0k'
44021c30:	9d29 2ccb 2039 30c7 2975 3047 a30d 2a36     )..,9 .0u)G0..6*
44021c40:	2ac2 a502 199a 291a 9dfb ae07 28bb a9c8     .*.....).....(..
44021c50:	ab04 a961 1fca 3032 2a51 2d5a b010 a690     ..a...20Q*Z-....
44021c60:	2d4b ab85 abdd a80f ab5d af0e aa64 2ecd     K-......]...d...
44021c70:	2ea0 2c08 a6ef 2c12 3127 1c37 29f4 a4fb     ...,...,'17..)..
44021c80:	2f4e a0ce aa85 aa72 a897 ac85 abb4 ae90     N/....r.........
44021c90:	2bc9 2daa adf0 299d 2c7f a632 2a65 2e15     .+.-...).,2.e*..
44021ca0:	2a25 aa95 a912 2f54 2f7a a89f 2c04 2cdc     %*....T/z/...,.,
44021cb0:	2da2 a808 2433 ade0 2bba ac8f ab52 b0b1     .-..3$...+..R...
44021cc0:	2db9 25a1 ad11 9b1f add0 2f11 a964 ab8f     .-.%......./d...
44021cd0:	aad7 a014 a480 a69a a94f 1a8e 9e9e 2451     ........O.....Q$
44021ce0:	2069 28bb 2d75 286d 2b85 2ede aa38 2d45     i .(u-m(.+..8.E-
44021cf0:	1c74 a621 2adf 28b3 26ec a95d 21ce 2cb1     t.!..*.(.&]..!.,
44021d00:	2a26 2746 2de9 283e ac75 29d6 2e13 2d71     &*F'.->(u..)..q-
44021d10:	af66 acbb a15c 2cfd 2ed1 21ef a84e 2774     f...\..,...!N.t'
44021d20:	2c67 2c44 addb a70e a812 a9b9 aa74 a7cf     g,D,........t...
44021d30:	a828 a446 2b16 2dde 1da2 2f73 2c3c 2e24     (.F..+.-..s/<,$.
44021d40:	2af5 277c 284a 2d36 2e89 25c4 a808 303e     .*|'J(6-...%..>0
44021d50:	3043 2b20 2831 a453 afac 2fbd 2e48 acd5     C0 +1(S..../H...
44021d60:	ac4b b0bb 30f9 2b65 2acc 21f4 b3ba 2580     K....0e+.*.!...%
44021d70:	31d1 3047 2f67 acfa 2886 2bf6 2d07 a73e     .1G0g/...(.+.->.
44021d80:	b1c3 b051 aa75 9d7a 24f8 b007 b31d a743     ..Q.u.z..$....C.
44021d90:	ac3e af6c b28d b36b b3a6 acad aeb5 ac04     >.l...k.........
44021da0:	ac94 aa6f acb6 aece 2a5c a91e 27ca a0c7     ..o.....\*...'..
44021db0:	2da4 a777 9d4c 3017 2d18 2a5e a8fe a78a     .-w.L..0.-^*....
44021dc0:	3086 2c30 2781 b093 adcd 2fbc a9f4 a48a     .00,.'...../....
44021dd0:	af25 a662 9329 2d73 ac7e ae1d ac7d 2413     %.b.).s-~...}..$
44021de0:	a426 2be6 2d94 264c a9ab a4fe 1c52 2f83     &..+.-L&....R../
44021df0:	318a 2e14 b0a8 a72b 2b37 30c3 a8e3 b13e     .1....+.7+.0..>.
44021e00:	b14f a853 2839 a69a 868f aea4 ad14 2a82     O.S.9(.........*
44021e10:	a330 ac2a 2c7b 2d87 317c 2e6a 27bd ab84     0.*.{,.-|1j..'..
44021e20:	b005 2ea9 2ff3 2ca8 a3d7 b19d 2f43 2e16     ...../.,....C/..
44021e30:	249d a36f aa19 a8cc 2b89 2d3f 243d ac52     .$o......+?-=$R.
44021e40:	9b3f a578 2cfb a2da 9e58 3015 2a4a af0d     ?.x..,..X..0J*..
44021e50:	aa92 a501 2e45 283d b071 9e0c a48f aec4     ....E.=(q.......
44021e60:	2afb aafe b009 af91 b0c0 2f61 2d6b ae8d     .*........a/k-..
44021e70:	b0ad b0f4 ab48 a662 16ed 2e3f 2970 2d70     ....H.b...?.p)p-
44021e80:	2eed af49 20b6 a88f ae7e ad55 aace ada0     ..I.. ..~.U.....
44021e90:	b0ce b01a b1f0 2223 afec b0bd af89 2895     ......#".......(
44021ea0:	2c84 246f 258f 2efb 31f9 b29b b433 ae09     .,o$.%...1..3...
44021eb0:	2f67 24b6 a8cf 31a5 30c0 2e86 2eda 3251     g/.$...1.0....Q2
44021ec0:	303d 2f20 2908 a770 3078 294b 2f48 a754     =0 /.)p.x0K)H/T.
44021ed0:	aea2 ad51 2685 ae4f af06 2875 ade0 146c     ..Q..&O...u(..l.
44021ee0:	2794 1c0d 30c7 ab55 2c20 3062 2d4d 2b2d     .'...0U. ,b0M--+
44021ef0:	2f1f 2d6d a4ce 2c87 af48 2d3e 2445 a8df     ./m-...,H.>-E$..
44021f00:	b253 acd1 aca8 ae4a a92f b095 a5e4 2f1a     S.....J./....../
44021f10:	2b0a 23c1 2bd5 2e02 30e8 2ff5 310a 3159     .+.#.+...0./.1Y1
44021f20:	a5de 906b a6ff 2429 ae8c afcb 2c34 a0a4     ..k...)$....4,..
44021f30:	aedd b1a5 b1a8 ae60 b0ce b175 a412 2a9c     ......`...u....*
44021f40:	b0ad 23c8 2e6e 3015 289b 2902 30df 2f77     ...#n..0.(.).0w/
44021f50:	28f3 a80f 2dc1 2c19 a812 b104 b03a 1f78     .(...-.,....:.x.
44021f60:	2904 b152 b274 a2be 2bcb aa38 a979 a916     .)R.t....+8.y...
44021f70:	271a a19b afdc 2ab1 a4ea 22ef a42e 2d58     .'.....*..."..X-
44021f80:	2f45 9ac7 2f5d 2c6a 2c0a a882 22eb ac22     E/..]/j,.,..."".
44021f90:	ac74 2d60 253e b1aa b0d4 ab8f 9d2e b26b     t.`->%........k.
44021fa0:	b17b a6a1 2d30 a17b adb9 2fdd 2dcc 2dec     {...0-{..../.-.-
44021fb0:	b194 23c4 2549 a503 abff aed9 adbe 2c3a     ...#I%........:,
44021fc0:	a454 2ae2 b01b ac14 2b11 2d4b ad4f aa83     T..*.....+K-O...
44021fd0:	2292 2558 a8d3 a0be 276c b463 b2f9 ac49     ."X%....l'c...I.
44021fe0:	2c68 a5b8 b4ee b4a8 27a7 302e b551 b48f     h,.......'.0Q...
44021ff0:	b0fd 2d8f aaa8 b39e b1df b38c 25b6 9c41     ...-.........%A.
44022000:	b1b5 b348 ad5b 2288 2da4 ac56 ad37 ac80     ..H.[..".-V.7...
44022010:	9838 2d24 a78f a4ad 2c96 2a97 2c42 aba5     8.$-.....,.*B,..
44022020:	ab89 3118 2e79 a3d9 ac71 1f18 31aa 298c     ...1y...q....1.)
44022030:	1c22 a6f1 8aff 2caf a0b3 2a2b 98b8 29d5     "......,..+*...)
44022040:	2c2a 2de5 a979 ae61 2c6c 2d4c a90a b00c     *,.-y.a.l,L-....
44022050:	ab80 2abc 2dea b04e b146 2786 327c 2ea6     ...*.-N.F..'|2..
44022060:	b23c ada8 296c 3066 ad4e b17a a5fe ad4b     <...l)f0N.z...K.
44022070:	9a0e 2c43 2d34 2aff ad5f abc5 2902 326b     ..C,4-.*_....)k2
44022080:	2d27 b1ed 2d17 3325 2ced a792 22c4 3206     '-...-%3.,...".2
44022090:	31db 292e 2d8c 9e85 2fdf 2d0a 1a59 2cbf     .1.).-.../.-Y..,
440220a0:	2077 1f76 2752 ae84 30b2 2856 abc9 9c12     w v.R'...0V(....
440220b0:	a901 2cd7 b22f 221e afdd 2895 9613 ac9a     ...,/.."...(....
440220c0:	adfb aba4 29e6 a6e7 b09b afdc 2e82 27ab     .....).........'
440220d0:	2d98 2abd ae28 20b2 255f 3140 ac23 afa6     .-.*(.. _%@1#...
440220e0:	a80a 2bcd 2056 b12a b41b 2b16 25d6 281b     ...+V *....+.%.(
440220f0:	ae55 b2bd a54d 3167 23c1 ab5c a787 2e24     U...M.g1.#\...$.
44022100:	2fa1 9eaa a7ef ac1f b4b6 b51b 2d99 28fc     ./...........-.(
44022110:	aef9 b4cb ace4 32a2 2d43 b5b6 b596 b0b1     .......2C-......
44022120:	33ed b1db b4ed b44d ac7c a506 b400 b1ad     .3....M.|.......
44022130:	b2da 290b 1825 ac19 261f a89c 285d 2b5a     ...)%....&..](Z+
44022140:	1ca7 ae49 246e 2e33 29f5 a467 ad0a 25f4     ..I.n$3..)g....%
44022150:	2c96 3080 b017 ae84 2987 2f89 28fa a05e     .,.0.....)./.(^.
44022160:	a86d 250a 2dda 2a59 a220 29c6 2c43 30c9     m..%.-Y* ..)C,.0
44022170:	22d2 a4a8 2ca2 3072 329e 2c3b b27f a37b     ."...,r0.2;,..{.
44022180:	3178 2e1f b034 b2ec 289c 306f 2eac ae27     x1..4....(o0..'.
44022190:	ae62 2ddc 29d2 af4b 3030 acbe aa17 aa7e     b..-.)K.00....~.
440221a0:	2ed5 247e 2c83 b171 22cd 3131 2bd7 af98     ..~$.,q.."11.+..
440221b0:	af79 2dbb 32f6 a6e4 af76 adac 30f2 3063     y..-.2..v....0c0
440221c0:	a469 240b 2b50 2af5 984f a97d a405 2b2f     i..$P+.*O.}.../+
440221d0:	aa8b 2b4c 28a3 216e ac1b accd 22d8 3118     ..L+.(n!.....".1
440221e0:	2516 adf1 a8ac 2c99 3023 a867 afd3 b2f5     .%.....,#0g.....
440221f0:	25af 25bb b15f b03c b174 306f 2fa5 24ba     .%.%_.<.t.o0./.$
44022200:	acb8 ac5c af98 2eab 304a 31dc 301f 2dd9     ..\.....J0.1.0.-
44022210:	2875 25ea 3363 2ed4 2e6d a9be ac8f aa7c     u(.%c3..m.....|.
44022220:	2c3b 2f40 adfe 9541 ace3 ac45 b00f af0e     ;,@/..A...E.....
44022230:	b08d a7e5 2942 2e41 abfc b2d1 b4da b37d     ....B)A.......}.
44022240:	a9b8 31b9 2ef5 2924 1cf7 a433 2b33 30c7     ...1..$)..3.3+.0
44022250:	32d0 32f1 2eeb a8a9 aa6b 1e56 238f 27b1     .2.2....k.V..#.'
44022260:	2c82 2d47 26cd 2ba0 b00e 21ab 2c5e acf5     .,G-.&.+...!^,..
44022270:	abfd 9c33 2b8f 2d58 2d0e 9fd1 287d aa91     ..3..+X-.-..}(..
44022280:	2a2f 2ec3 2b24 2573 b0ae b00a b003 aca2     /*..$+s%........
44022290:	adcd a990 b028 b12d b14a a955 2952 2c25     ....(.-.J.U.R)%,
440222a0:	293c ac3b ae87 3032 2ed8 2bec 2cf3 a00b     <);...20...+.,..
440222b0:	271e 2a3d 21e1 2d3c 9db8 b1c9 b1c7 ae2f     .'=*.!<-....../.
440222c0:	a81c 27f2 a074 286f 2ce0 1c1b ab35 2d7e     ...'t.o(.,..5.~-
440222d0:	2c41 2dba 3075 a5a5 a9ff 22e1 25b8 2da6     A,.-u0.....".%.-
440222e0:	2ea5 b20d b199 a464 21a0 2d7a af43 ae04     ......d..!z-C...
440222f0:	aa84 af4d 2489 a86f b1d3 b31d afe1 a92c     ..M..$o.......,.
44022300:	a0db 2c58 ae09 2605 aa5c 2975 311f 3321     ..X,...&\.u).1!3
44022310:	3198 2d59 aff2 28c9 31a5 31b5 3055 b124     .1Y-...(.1.1U0$.
44022320:	b30d b1eb b0a1 2698 a8db adaa 20d6 9f07     .......&..... ..
44022330:	2db2 307d 258a a33f ab4f 2c98 30ce a389     .-}0.%?.O..,.0..
44022340:	add4 ae39 a8df 2c42 2fe2 a645 ad72 a878     ..9...B,./E.r.x.
44022350:	ad1b 2cc7 2a4e 24c6 a3a6 2689 9877 b043     ...,N*.$...&w.C.
44022360:	b073 9b79 aa50 b020 b04b 25c8 ab70 acc9     s.y.P. .K..%p...
44022370:	b009 266e 1232 a8de a97f 9a7e a773 1c99     ..n&2.....~.s...
44022380:	2f22 2d10 aa34 aae1 2c8f 2e1e 291c 2cfe     "/.-4....,...).,
44022390:	a5fe a1a9 2dc7 99e0 acfc acd3 2ce8 2379     .....-.......,y#
440223a0:	2396 21f8 267d a865 2df2 abae a846 aa23     .#.!}&e..-..F.#.
440223b0:	a944 a616 29ff aa72 2992 ad57 aee5 ab10     D....)r..)W.....
440223c0:	2922 a90c 9b07 a187 a45d ae02 146b 2e0d     ")......]...k...
440223d0:	2ba2 2d06 2dba 9ba9 a160 aa1d a51c 2ecc     .+.-.-..`.......
440223e0:	aaa5 2953 8da1 992b a547 2a85 2202 ac06     ..S)..+.G..*."..
440223f0:	2a2f 1df2 a907 acaf 2fa7 a153 2710 1db3     /*......./S..'..
44022400:	2dbb 27c7 2dff 2f09 3039 282d a829 a5bc     .-.'.-./90-()...
44022410:	2f88 2f3e a823 ae88 a0e7 2bc7 a42f 2709     ./>/#......+/..'
44022420:	ab6a a9a5 2b08 9be3 aed8 2359 a408 a480     j....+....Y#....
44022430:	a524 ac98 a696 2ead 2c7a ae50 afbe 2cf6     $.......z,P....,
44022440:	286e 2e55 2825 afe7 ae43 29df a26b 2c1b     n(U.%(..C..)k..,
44022450:	2445 a998 14cb 2e1e 29fd 2679 ab6e a4f8     E$.......)y&n...
44022460:	a0c6 2dd9 ad3b b239 b282 2f2d 29a9 2861     ...-;.9...-/.)a(
44022470:	b168 b154 2e38 3066 ad08 a0bf ae52 21bd     h.T.8.f0....R..!
44022480:	a1a2 a816 ac6e b1da b147 aa22 2e0d 2da7     ....n...G."....-
44022490:	b337 b4dd 28fe 2dfd 2a5c b51d ac31 ac48     7....(.-\*..1.H.
440224a0:	28c8 2133 af97 2888 a86e 2e61 2a46 223a     .(3!...(n.a.F*:"
440224b0:	a9db 2af4 29f0 2dfc 9627 a942 2ff1 2d21     ...*.).-'.B../!-
440224c0:	2faa ab0c 2d7f 30c8 2c98 25ef 2661 2371     ./...-.0.,.%a&q#
440224d0:	28a6 9a3e b149 ac4b 2c4b 28d6 9e5f b13f     .(>.I.K.K,.(_.?.
440224e0:	ac29 2e89 213d b068 ae82 2769 2d25 a048     )...=!h...i'%-H.
440224f0:	1da8 2c69 22db 31ad a513 afa7 b0a6 2cb5     ..i,.".1.......,
44022500:	2ff7 2f5d b15a b05d 30b2 30e8 a437 b411     ./]/Z.]..0.07...
44022510:	af73 2c84 28dc a8f3 afa7 a4b4 a15a a47b     s..,.(......Z.{.
44022520:	3086 2ce7 2adc acd2 30d9 2fa4 2f5c aa7f     .0.,.*...0./\/..
44022530:	afbb 2cff 323b a46e b33a a7da 2919 30e2     ...,;2n.:....).0
44022540:	b09d acf7 24c9 2fd7 ad11 b07b acd9 2918     .....$./..{....)
44022550:	2747 2c64 a000 30ec a8f1 2d1f adba ac3a     G'd,...0...-..:.
44022560:	aae2 afbe abf9 aaa4 a492 b039 aedc a803     ..........9.....
44022570:	2f28 08bf abd5 abaa 2417 2ddd 2adb a803     (/.......$.-.*..
44022580:	30f4 2f87 2050 2cac 2f5e 3022 2c2b 3086     .0./P .,^/"0+,.0
44022590:	2e5a 2cc6 b031 aee4 b146 a359 ac2f af55     Z..,1...F.Y./.U.
440225a0:	ac2a af20 af84 b16a a869 2a1e 2505 af60     *. ...j.i..*.%`.
440225b0:	a867 aeac b234 b318 b318 b360 145d 300d     g...4.....`.]..0
440225c0:	30c8 3005 9e3a 31e5 3454 30fc 32c8 3357     .0.0:..1T4.0.2W3
440225d0:	2fd9 3113 2d7d 2f20 311a a9a2 b09d ac5d     ./.1}- /.1....].
440225e0:	a42d aff8 2ce7 aa92 a85a 23dd ab05 2bca     -....,..Z..#...+
440225f0:	2f71 2e38 1d18 3010 304e 2ca5 2436 2a03     q/8....0N0.,6$.*
44022600:	2725 a6b9 b06d 24fc 2482 2bc4 adea a8e9     %'..m..$.$.+....
44022610:	b1cd abe7 aaf5 1b67 ae4e ae15 a056 2347     ......g.N...V.G#
44022620:	2295 2d79 2931 3018 2e30 a97d 2d31 2ecc     ."y-1).00.}.1-..
44022630:	2530 2fa5 a646 affc afe0 2a81 2c3e ad18     0%./F......*>,..
44022640:	ac17 a862 b07f ad90 29f2 2d26 2975 2587     ..b......)&-u).%
44022650:	2518 984f 2e31 2f83 2ccc 306a ac9c 9dad     .%O.1../.,j0....
44022660:	ade0 2b2c a597 b240 b1d4 b10f b02e abf6     ..,+..@.........
44022670:	af95 b020 ae0c adb1 ac71 ad6d b1ae b036     .. .....q.m...6.
44022680:	b253 b221 30f6 2c75 2876 2f0d 303d 2f3b     S.!..0u,v(./=0;/
44022690:	3241 3291 3325 2ed0 b0b9 b05b b076 ae05     A2.2%3....[.v...
440226a0:	a416 ac1a b070 b093 b24d af04 a829 ae11     ....p...M...)...
440226b0:	a191 299d 2e15 b244 a35f 219c 24f7 2e0d     ...)..D._..!.$..
440226c0:	ac13 aa51 a996 a96b 27e7 ac75 a9b5 2180     ..Q...k..'u....!
440226d0:	1098 ac5f ad68 ab91 2200 2baf a6a2 25e5     .._.h....".+...%
440226e0:	24be 23fc 3040 aa6c ad0a b086 ace3 aec4     .$.#@0l.........
440226f0:	afab b2cc b400 af9d 2e3a 2f3e a48c acc4     ........:.>/....
44022700:	2a3d 326e 345d 9e6c 2bf4 2bda 2f96 a463     =*n2]4l..+.+./c.
44022710:	2c9b a822 aa44 aae6 ac0d a1c9 2985 2632     .,".D........)2&
44022720:	add8 2c00 acdd 2387 2b59 293e 30fd ac4b     ...,...#Y+>).0K.
44022730:	a359 a4a6 2eb9 2ff9 2844 2dc4 2879 2803     Y....../D(.-y(.(
44022740:	a5e0 2dd7 1d33 29e6 b0d0 af5b a86b 2b77     ...-3..)..[.k.w+
44022750:	8c7c a76e ab64 2574 a7e8 2ba7 a69e 28ad     |.n.d.t%...+...(
44022760:	3032 9dcb 2f3b 2dbe 297d 2da6 229f a9bc     20..;/.-}).-."..
44022770:	2161 25dc 2944 2861 1d2f 2b1d aef7 a5da     a!.%D)a(/..+....
44022780:	2c12 1c64 acb8 2e2e afb6 2e44 2b81 2943     .,d.......D..+C)
44022790:	a850 2d60 25e0 2d1d 2374 a552 2dfe 290a     P.`-.%.-t#R..-.)
440227a0:	ae4c ade7 ae58 a130 2c25 266e acc9 ac77     L...X.0.%,n&..w.
440227b0:	acec aefc ae2f ada4 a911 b1ea b217 af8b     ..../...........
440227c0:	2b2c 2aac 21ee 2279 a658 a479 2e26 a7f5     ,+.*.!y"X.y.&...
440227d0:	2e75 295d 1fe1 a221 29aa 2a5e 2eef 2b7b     u.])..!..)^*..{+
440227e0:	2943 acfb a63b 2c9c 2e1e af41 a722 ad76     C)..;..,..A.".v.
440227f0:	235b 30fe 2b25 ae5a aae8 a2e9 3063 ac6c     [#.0%+Z.....c0l.
44022800:	accb b0dd a9fa ac18 1c0c 261e acaf b355     ...........&..U.
44022810:	b093 2a35 ac12 b3c2 b52e b151 b009 b2eb     ..5*......Q.....
44022820:	b577 b4a1 b3bc af28 aef8 afd5 b058 94de     w.....(.....X...
44022830:	28f1 9a7a 2afa acf3 2b01 a9df 2e02 2c68     .(z..*...+....h,
44022840:	3041 3084 28f3 265c 2a6b 2f9a 29e2 9916     A0.0.(\&k*./.)..
44022850:	248f 1e09 279b 2d6c 29fb a9be add2 1c9e     .$...'l-.)......
44022860:	a20b ad09 aba2 2db3 2d56 1e5a aef9 a988     .......-V-Z.....
44022870:	2c93 306d 2939 a810 a716 28a1 3180 2c30     .,m09).....(.10,
44022880:	ac8d a8a0 30f2 3041 2a23 b303 af45 2e9f     .....0A0#*..E...
44022890:	2c13 acb7 b009 2d9d 29b3 256f 1482 acbf     .,.....-.)o%....
440228a0:	2d05 2d64 308a 2f9f 2fe7 aaaa a915 3237     .-d-.0././....72
440228b0:	31ef 2be5 ab44 aefb 2b7c 301d adbc aca4     .1.+D...|+.0....
440228c0:	16be 30f0 2cb3 1672 2787 2ec2 21d2 2719     ...0.,r..'...!.'
440228d0:	b14f a66e 2ac1 24c7 2b4f adc8 a867 2df9     O.n..*.$O+..g..-
440228e0:	2938 1d86 ab04 2665 a939 ad2b 29fa 243d     8)....e&9.+..)=$
440228f0:	2a2f a6d6 28c0 2cc9 1901 2bc2 ab7f ac1f     /*...(.,...+....
44022900:	29a4 280c b137 afdb b0b1 ae26 26f3 ae5b     .).(7.....&..&[.
44022910:	a765 a86e a8e6 2db4 ae68 a667 2c7e 2cc2     e.n....-h.g.~,.,
44022920:	a4e1 a0ef 2692 2d44 ac8e a537 a770 2b5d     .....&D-..7.p.]+
44022930:	2e6e 99ad af91 2e31 2c12 155e 22c2 2610     n.....1..,^..".&
44022940:	b079 b117 ab61 9edd 2f20 b2a8 25da 2fd5     y...a... /...%./
44022950:	2c8f 2761 2db8 3181 322f 2ee1 2a4b 2da5     .,a'.-.1/2..K*.-
44022960:	2a54 2faf 2853 286e af82 a821 ac15 a884     T*./S(n(..!.....
44022970:	a906 b015 af2d 2557 ab3f a8a5 b163 290c     ....-.W%?...c..)
44022980:	2daf 283c 9f43 ac41 288c 314f 28c0 2082     .-<(C.A..(O1.(. 
44022990:	2869 2c3e 2ca5 adc4 ae75 acca ab98 2a2d     i(>,.,..u.....-*
440229a0:	2d1d a83e b1fb ae43 a133 2d42 2ead aec9     .->...C.3.B-....
440229b0:	a722 2892 2654 2eb9 2e97 3113 3098 2d5d     "..(T&.....1.0]-
440229c0:	2e12 3193 9cd6 2957 af0d a530 b04f b1ea     ...1..W)..0.O...
440229d0:	ac65 acda 2b1b b1a3 afb7 1bcb 25c9 a461     e....+.......%a.
440229e0:	b05c 24a9 2f02 2980 2ed5 a50d 2b3d 2c72     \..$./.)....=+r,
440229f0:	ac53 afb3 2fc0 30ea ab96 b02b b05c b110     S..../.0..+.\...
44022a00:	b014 afee aa0d 25d1 b07a b443 b113 b093     .......%z.C.....
44022a10:	1fbe ae37 253b 2661 2f49 2244 b026 a7e9     ..7.;%a&I/D"&...
44022a20:	30bf 3121 2da7 aba8 284c 2aad 2813 a94a     .0!1.-..L(.*.(J.
44022a30:	2519 2759 2920 2b4e 2776 2dca a841 2503     .%Y' )N+v'.-A..%
44022a40:	2cef ac1d a4cb 2c24 2513 304b 2eb4 a9d4     .,....$,.%K0....
44022a50:	224d 25b8 2cf7 3084 b01a 2c79 28ca 26b3     M".%.,.0..y,.(.&
44022a60:	2e63 b05b ac0d 2a44 2576 2d0e aab3 b057     c.[...D*v%.-..W.
44022a70:	268b 26e2 2c8a a9d0 aa61 9c3c ae3b 2919     .&.&.,..a.<.;..)
44022a80:	aca9 13f9 2512 9cdf 9ee1 2159 aac4 2aa1     .....%....Y!...*
44022a90:	2694 30a5 ade4 26cc aa63 2ca2 2ca9 a614     .&.0...&c..,.,..
44022aa0:	2b08 28e4 2a7b a961 2cd8 2c0d a44f 1d8a     .+.({*a..,.,O...
44022ab0:	acb7 a574 aa4f 2086 28a8 ab45 2a49 24a9     ..t.O.. .(E.I*.$
44022ac0:	2ad6 2919 2851 a17a 24b6 1d62 adbb 28ba     .*.)Q(z..$b....(
44022ad0:	2aae 28cc 8965 ae46 a849 29f1 2be5 a99c     .*.(e.F.I..).+..
44022ae0:	9f3c ae53 ab91 ad30 29e9 aa7d aeec aea2     <.S...0..)}.....
44022af0:	2257 a07d 2d82 2cea 1c90 2f72 272e 276a     W"}..-.,..r/.'j'
44022b00:	258b 2d68 2e5c 2825 26ad a2ee 2dc8 29b5     .%h-\.%(.&...-.)
44022b10:	9447 2da7 accc a8cb 2a80 a859 aa12 2d53     G..-.....*Y...S-
44022b20:	aef3 a2fb 2b79 ac13 1f8d a772 a050 aca6     ....y+....r.P...
44022b30:	2c50 2a2a a611 ad44 23cb 2cad 2984 292f     P,**..D..#.,.)/)
44022b40:	ac8e aaeb ac1e 2490 ad08 ad6f 2d4f a734     .......$..o.O-4.
44022b50:	2dd6 b0dd a9da 299e a480 1d32 acec 283d     .-.....)..2...=(
44022b60:	2644 aeee 20a9 24a6 2cf2 aca3 292e 2c81     D&... .$.,...).,
44022b70:	2e11 3249 335d 2f43 aa34 a873 2d89 3276     ..I2]3C/4.s..-v2
44022b80:	2986 236f aabe b0b7 2ada 2d9a acd3 b04c     .)o#.....*.-..L.
44022b90:	a01b 2d5b 2d09 2ef6 b0d3 af2f aa92 288b     ..[-.-..../....(
44022ba0:	2d2c ae1b b11e b1d5 af26 aec1 3242 2ea8     ,-......&...B2..
44022bb0:	2ff6 3151 3022 319a 2deb 31ba 322b 295d     ./Q1"0.1.-.1+2])
44022bc0:	9eb7 2d71 9aae 290f ae68 adb7 a76a 2a99     ..q-...)h...j..*
44022bd0:	280d b031 ad72 8614 2885 a55f a872 194a     .(1.r....(_.r.J.
44022be0:	227b a9fc 9d97 2d35 ae4b 25f2 2e58 28d7     {"....5-K..%X..(
44022bf0:	0a0a a88b 271b a880 2b79 aa22 2a32 a2d7     .....'..y+".2*..
44022c00:	af0d b058 a3d8 0086 299c ab02 a9e7 a823     ..X......)....#.
44022c10:	97dd 2ef8 a528 885c 18ab afc8 2d02 2aad     ....(.\......-.*
44022c20:	2e60 a4b3 2dac 2506 ac47 26dd a3b6 22c0     `....-.%G..&..."
44022c30:	943a 292b ae07 af8b 214f 2e44 2ba2 ab47     :.+)....O!D..+G.
44022c40:	9463 9b65 af63 a5f1 2cb4 2e72 b235 b150     c.e.c....,r.5.P.
44022c50:	ae0d 29ed 2cfa b246 af15 ac41 241d 2da7     ...).,F...A..$.-
44022c60:	b2e0 ab25 ac8f a9d7 b029 a1e1 2d30 2c57     ..%.....)...0-W,
44022c70:	abd9 ad1f ab52 2d68 329e 30e0 2791 a8e1     ....R.h-.2.0.'..
44022c80:	ad0b 31b3 2b44 a46c ad2e aef9 a904 134e     ...1D+l.......N.
44022c90:	a954 288d af6f b169 b284 ad60 2f0c 3272     T..(o.i...`../r2
44022ca0:	aa5a a82f ae37 2a44 330b 33b7 3181 29a4     Z./.7.D*.3.3.1.)
44022cb0:	2e96 3052 3370 318a 2f5f ad53 a5e2 23ce     ..R0p3.1_/S....#
44022cc0:	2890 267f aa91 25f7 2b9f 338e 3255 b164     .(.&...%.+.3U2d.
44022cd0:	b45f b174 9972 29aa 9864 b32e b34a b1f5     _.t.r..)d...J...
44022ce0:	b1e5 ac70 2b40 2e89 2514 a8a8 2b1a 27ce     ..p.@+...%...+.'
44022cf0:	af4e a723 acf9 2b68 2232 a5ee a859 a9cc     N.#...h+2"..Y...
44022d00:	2021 ace1 aebb a9da ab34 8282 aa44 2ac2     ! ......4...D..*
44022d10:	20bf aa1f 2c07 1e47 2c19 2eb1 2fa4 ae32     . ...,G..,.../2.
44022d20:	a1f1 abab 2ee7 2d14 28a9 ab7b afbb 1f1d     .......-.({.....
44022d30:	2f07 2554 a151 b120 b104 25ba 2f99 2b93     ./T%Q. ....%./.+
44022d40:	b078 b045 aa1b 27a0 2a71 2e11 3019 2a49     x.E....'q*...0I*
44022d50:	2a9f a855 b02d ae64 2617 3127 a174 ae3d     .*U.-.d..&'1t.=.
44022d60:	b10e ac1e 310d 2dc6 aac3 aab2 afda aca3     .....1.-........
44022d70:	2dd1 30b4 a554 2c15 a204 2a3c 312c 2b73     .-.0T..,..<*,1s+
44022d80:	3000 b2fd b0d3 99da 2e5b 2d8f ac1f ac7d     .0......[..-..}.
44022d90:	ae9c 2c3d 300b 2866 a808 b35e b342 b020     ..=,.0f(..^.B. .
44022da0:	1c5f 3137 2a9c b0c9 b383 a2b2 31e2 324b     _.71.*.......1K2
44022db0:	2f51 285f a990 ad1d 21d3 2b26 22f6 2ffc     Q/_(.....!&+."./
44022dc0:	25c0 1bbe 2ef6 2e17 ab1f 29ac 2a6a 2ef2     .%.........)j*..
44022dd0:	2b66 ad0e af0c ace0 268d 301c a73b a676     f+.......&.0;.v.
44022de0:	b2b7 b001 28b4 a68a ac43 1fa3 ac58 18d9     .....(..C...X...
44022df0:	2e48 af2b aed0 adfb a4a7 2fcc ac77 b03e     H.+......../w.>.
44022e00:	216d a174 2f61 2ead 317d 286c 29ce aa30     m!t.a/..}1l(.)0.
44022e10:	2e91 3033 2e96 3180 ac2c ac26 a801 2e68     ..30...1,.&...h.
44022e20:	25ce 2603 29e3 1f1e a66e 2ec1 a708 2cd5     .%.&.)..n......,
44022e30:	a5eb 2aeb 2bf6 a75a 2002 a7d6 ad27 ab29     ...*.+Z.. ..'.).
44022e40:	24fc af4d b067 a503 277f b079 262d 2c23     .$M.g....'y.-&#,
44022e50:	2f32 ad43 a808 2705 a982 2bbf 23f4 2d58     2/C....'...+.#X-
44022e60:	2849 2eb2 a6e4 ab3d 2a26 2c82 1f79 2c99     I(....=.&*.,y..,
44022e70:	3044 af28 b105 1c50 27de 3030 2292 a573     D0(...P..'00."s.
44022e80:	a9e2 2b29 2c6a 2dfe 2c5b a44c 2c97 a857     ..)+j,.-[,L..,W.
44022e90:	2e44 a358 2183 a6c7 2f36 a9fa b145 ad64     D.X..!..6/..E.d.
44022ea0:	1a27 9ad4 a710 b008 b2c8 b2ee aec2 2131     '.............1!
44022eb0:	206e a9b7 ad41 2ebc 2aa3 aa3f 9dc7 2128     n ..A....*?...(!
44022ec0:	2abb 2d3a 2c25 2070 ac6a 1ad5 2fec 302b     .*:-%,p j..../+0
44022ed0:	2daf 28b4 2f0b afd9 b2ac b2c7 2207 2e4e     .-.(./......."N.

44022ee0 <ln2LO>:
44022ee0:	3c76 3579 39ef 3dea 3c76 3579 39ef bdea     v<y5.9.=v<y5.9..

44022ef0 <ln2HI>:
44022ef0:	0000 fee0 2e42 3fe6 0000 fee0 2e42 bfe6     ....B..?....B...

44022f00 <halF>:
44022f00:	0000 0000 0000 3fe0 0000 0000 0000 bfe0     .......?........
44022f10:	ec0a fffd eb10 fffd eae6 fffd ebda fffd     ................
44022f20:	eae6 fffd eb1a fffd eae6 fffd ebda fffd     ................
44022f30:	eb10 fffd eb10 fffd eb1a fffd ebda fffd     ................
44022f40:	eb7c fffd eb7c fffd eb7c fffd eb1a fffd     |...|...|.......

44022f50 <__clz_tab>:
44022f50:	0100 0202 0303 0303 0404 0404 0404 0404     ................
44022f60:	0505 0505 0505 0505 0505 0505 0505 0505     ................
44022f70:	0606 0606 0606 0606 0606 0606 0606 0606     ................
44022f80:	0606 0606 0606 0606 0606 0606 0606 0606     ................
44022f90:	0707 0707 0707 0707 0707 0707 0707 0707     ................
44022fa0:	0707 0707 0707 0707 0707 0707 0707 0707     ................
44022fb0:	0707 0707 0707 0707 0707 0707 0707 0707     ................
44022fc0:	0707 0707 0707 0707 0707 0707 0707 0707     ................
44022fd0:	0808 0808 0808 0808 0808 0808 0808 0808     ................
44022fe0:	0808 0808 0808 0808 0808 0808 0808 0808     ................
44022ff0:	0808 0808 0808 0808 0808 0808 0808 0808     ................
44023000:	0808 0808 0808 0808 0808 0808 0808 0808     ................
44023010:	0808 0808 0808 0808 0808 0808 0808 0808     ................
44023020:	0808 0808 0808 0808 0808 0808 0808 0808     ................
44023030:	0808 0808 0808 0808 0808 0808 0808 0808     ................
44023040:	0808 0808 0808 0808 0808 0808 0808 0808     ................
